
Composite.elf:     file format elf32-littlearm

Sections:
Idx Name          Size      VMA       LMA       File off  Algn
  0 .isr_vector   00000194  08000000  08000000  00001000  2**0
                  CONTENTS, ALLOC, LOAD, READONLY, DATA
  1 .text         0000a598  080001a0  080001a0  000011a0  2**4
                  CONTENTS, ALLOC, LOAD, READONLY, CODE
  2 .rodata       0000e498  0800a738  0800a738  0000b738  2**2
                  CONTENTS, ALLOC, LOAD, READONLY, DATA
  3 .ARM.extab    00000000  08018bd0  08018bd0  0001a56c  2**0
                  CONTENTS, READONLY
  4 .ARM          00000008  08018bd0  08018bd0  00019bd0  2**2
                  CONTENTS, ALLOC, LOAD, READONLY, DATA
  5 .preinit_array 00000000  08018bd8  08018bd8  0001a56c  2**0
                  CONTENTS, ALLOC, LOAD, DATA
  6 .init_array   00000004  08018bd8  08018bd8  00019bd8  2**2
                  CONTENTS, ALLOC, LOAD, READONLY, DATA
  7 .fini_array   00000004  08018bdc  08018bdc  00019bdc  2**2
                  CONTENTS, ALLOC, LOAD, READONLY, DATA
  8 .data         0000056c  20000000  08018be0  0001a000  2**2
                  CONTENTS, ALLOC, LOAD, DATA
  9 .bss          0000e0dc  2000056c  0801914c  0001a56c  2**2
                  ALLOC
 10 ._user_heap_stack 00000e00  2000e648  0801914c  0001a648  2**0
                  ALLOC
 11 .ARM.attributes 00000030  00000000  00000000  0001a56c  2**0
                  CONTENTS, READONLY
 12 .comment      00000043  00000000  00000000  0001a59c  2**0
                  CONTENTS, READONLY
 13 .debug_frame  00000668  00000000  00000000  0001a5e0  2**2
                  CONTENTS, READONLY, DEBUGGING, OCTETS

Disassembly of section .text:

080001a0 <__do_global_dtors_aux>:
 80001a0:	b510      	push	{r4, lr}
 80001a2:	4c05      	ldr	r4, [pc, #20]	@ (80001b8 <__do_global_dtors_aux+0x18>)
 80001a4:	7823      	ldrb	r3, [r4, #0]
 80001a6:	b933      	cbnz	r3, 80001b6 <__do_global_dtors_aux+0x16>
 80001a8:	4b04      	ldr	r3, [pc, #16]	@ (80001bc <__do_global_dtors_aux+0x1c>)
 80001aa:	b113      	cbz	r3, 80001b2 <__do_global_dtors_aux+0x12>
 80001ac:	4804      	ldr	r0, [pc, #16]	@ (80001c0 <__do_global_dtors_aux+0x20>)
 80001ae:	f3af 8000 	nop.w
 80001b2:	2301      	movs	r3, #1
 80001b4:	7023      	strb	r3, [r4, #0]
 80001b6:	bd10      	pop	{r4, pc}
 80001b8:	2000056c 	.word	0x2000056c
 80001bc:	00000000 	.word	0x00000000
 80001c0:	0800a720 	.word	0x0800a720

080001c4 <frame_dummy>:
 80001c4:	b508      	push	{r3, lr}
 80001c6:	4b03      	ldr	r3, [pc, #12]	@ (80001d4 <frame_dummy+0x10>)
 80001c8:	b11b      	cbz	r3, 80001d2 <frame_dummy+0xe>
 80001ca:	4903      	ldr	r1, [pc, #12]	@ (80001d8 <frame_dummy+0x14>)
 80001cc:	4803      	ldr	r0, [pc, #12]	@ (80001dc <frame_dummy+0x18>)
 80001ce:	f3af 8000 	nop.w
 80001d2:	bd08      	pop	{r3, pc}
 80001d4:	00000000 	.word	0x00000000
 80001d8:	20000570 	.word	0x20000570
 80001dc:	0800a720 	.word	0x0800a720

080001e0 <strlen>:
 80001e0:	4603      	mov	r3, r0
 80001e2:	f813 2b01 	ldrb.w	r2, [r3], #1
 80001e6:	2a00      	cmp	r2, #0
 80001e8:	d1fb      	bne.n	80001e2 <strlen+0x2>
 80001ea:	1a18      	subs	r0, r3, r0
 80001ec:	3801      	subs	r0, #1
 80001ee:	4770      	bx	lr

080001f0 <memchr>:
 80001f0:	f001 01ff 	and.w	r1, r1, #255	@ 0xff
 80001f4:	2a10      	cmp	r2, #16
 80001f6:	db2b      	blt.n	8000250 <memchr+0x60>
 80001f8:	f010 0f07 	tst.w	r0, #7
 80001fc:	d008      	beq.n	8000210 <memchr+0x20>
 80001fe:	f810 3b01 	ldrb.w	r3, [r0], #1
 8000202:	3a01      	subs	r2, #1
 8000204:	428b      	cmp	r3, r1
 8000206:	d02d      	beq.n	8000264 <memchr+0x74>
 8000208:	f010 0f07 	tst.w	r0, #7
 800020c:	b342      	cbz	r2, 8000260 <memchr+0x70>
 800020e:	d1f6      	bne.n	80001fe <memchr+0xe>
 8000210:	b4f0      	push	{r4, r5, r6, r7}
 8000212:	ea41 2101 	orr.w	r1, r1, r1, lsl #8
 8000216:	ea41 4101 	orr.w	r1, r1, r1, lsl #16
 800021a:	f022 0407 	bic.w	r4, r2, #7
 800021e:	f07f 0700 	mvns.w	r7, #0
 8000222:	2300      	movs	r3, #0
 8000224:	e8f0 5602 	ldrd	r5, r6, [r0], #8
 8000228:	3c08      	subs	r4, #8
 800022a:	ea85 0501 	eor.w	r5, r5, r1
 800022e:	ea86 0601 	eor.w	r6, r6, r1
 8000232:	fa85 f547 	uadd8	r5, r5, r7
 8000236:	faa3 f587 	sel	r5, r3, r7
 800023a:	fa86 f647 	uadd8	r6, r6, r7
 800023e:	faa5 f687 	sel	r6, r5, r7
 8000242:	b98e      	cbnz	r6, 8000268 <memchr+0x78>
 8000244:	d1ee      	bne.n	8000224 <memchr+0x34>
 8000246:	bcf0      	pop	{r4, r5, r6, r7}
 8000248:	f001 01ff 	and.w	r1, r1, #255	@ 0xff
 800024c:	f002 0207 	and.w	r2, r2, #7
 8000250:	b132      	cbz	r2, 8000260 <memchr+0x70>
 8000252:	f810 3b01 	ldrb.w	r3, [r0], #1
 8000256:	3a01      	subs	r2, #1
 8000258:	ea83 0301 	eor.w	r3, r3, r1
 800025c:	b113      	cbz	r3, 8000264 <memchr+0x74>
 800025e:	d1f8      	bne.n	8000252 <memchr+0x62>
 8000260:	2000      	movs	r0, #0
 8000262:	4770      	bx	lr
 8000264:	3801      	subs	r0, #1
 8000266:	4770      	bx	lr
 8000268:	2d00      	cmp	r5, #0
 800026a:	bf06      	itte	eq
 800026c:	4635      	moveq	r5, r6
 800026e:	3803      	subeq	r0, #3
 8000270:	3807      	subne	r0, #7
 8000272:	f015 0f01 	tst.w	r5, #1
 8000276:	d107      	bne.n	8000288 <memchr+0x98>
 8000278:	3001      	adds	r0, #1
 800027a:	f415 7f80 	tst.w	r5, #256	@ 0x100
 800027e:	bf02      	ittt	eq
 8000280:	3001      	addeq	r0, #1
 8000282:	f415 3fc0 	tsteq.w	r5, #98304	@ 0x18000
 8000286:	3001      	addeq	r0, #1
 8000288:	bcf0      	pop	{r4, r5, r6, r7}
 800028a:	3801      	subs	r0, #1
 800028c:	4770      	bx	lr
 800028e:	bf00      	nop

08000290 <__aeabi_uldivmod>:
 8000290:	b953      	cbnz	r3, 80002a8 <__aeabi_uldivmod+0x18>
 8000292:	b94a      	cbnz	r2, 80002a8 <__aeabi_uldivmod+0x18>
 8000294:	2900      	cmp	r1, #0
 8000296:	bf08      	it	eq
 8000298:	2800      	cmpeq	r0, #0
 800029a:	bf1c      	itt	ne
 800029c:	f04f 31ff 	movne.w	r1, #4294967295
 80002a0:	f04f 30ff 	movne.w	r0, #4294967295
 80002a4:	f000 b988 	b.w	80005b8 <__aeabi_idiv0>
 80002a8:	f1ad 0c08 	sub.w	ip, sp, #8
 80002ac:	e96d ce04 	strd	ip, lr, [sp, #-16]!
 80002b0:	f000 f806 	bl	80002c0 <__udivmoddi4>
 80002b4:	f8dd e004 	ldr.w	lr, [sp, #4]
 80002b8:	e9dd 2302 	ldrd	r2, r3, [sp, #8]
 80002bc:	b004      	add	sp, #16
 80002be:	4770      	bx	lr

080002c0 <__udivmoddi4>:
 80002c0:	e92d 47f0 	stmdb	sp!, {r4, r5, r6, r7, r8, r9, sl, lr}
 80002c4:	9d08      	ldr	r5, [sp, #32]
 80002c6:	468e      	mov	lr, r1
 80002c8:	4604      	mov	r4, r0
 80002ca:	4688      	mov	r8, r1
 80002cc:	2b00      	cmp	r3, #0
 80002ce:	d14a      	bne.n	8000366 <__udivmoddi4+0xa6>
 80002d0:	428a      	cmp	r2, r1
 80002d2:	4617      	mov	r7, r2
 80002d4:	d962      	bls.n	800039c <__udivmoddi4+0xdc>
 80002d6:	fab2 f682 	clz	r6, r2
 80002da:	b14e      	cbz	r6, 80002f0 <__udivmoddi4+0x30>
 80002dc:	f1c6 0320 	rsb	r3, r6, #32
 80002e0:	fa01 f806 	lsl.w	r8, r1, r6
 80002e4:	fa20 f303 	lsr.w	r3, r0, r3
 80002e8:	40b7      	lsls	r7, r6
 80002ea:	ea43 0808 	orr.w	r8, r3, r8
 80002ee:	40b4      	lsls	r4, r6
 80002f0:	ea4f 4e17 	mov.w	lr, r7, lsr #16
 80002f4:	fa1f fc87 	uxth.w	ip, r7
 80002f8:	fbb8 f1fe 	udiv	r1, r8, lr
 80002fc:	0c23      	lsrs	r3, r4, #16
 80002fe:	fb0e 8811 	mls	r8, lr, r1, r8
 8000302:	ea43 4308 	orr.w	r3, r3, r8, lsl #16
 8000306:	fb01 f20c 	mul.w	r2, r1, ip
 800030a:	429a      	cmp	r2, r3
 800030c:	d909      	bls.n	8000322 <__udivmoddi4+0x62>
 800030e:	18fb      	adds	r3, r7, r3
 8000310:	f101 30ff 	add.w	r0, r1, #4294967295
 8000314:	f080 80ea 	bcs.w	80004ec <__udivmoddi4+0x22c>
 8000318:	429a      	cmp	r2, r3
 800031a:	f240 80e7 	bls.w	80004ec <__udivmoddi4+0x22c>
 800031e:	3902      	subs	r1, #2
 8000320:	443b      	add	r3, r7
 8000322:	1a9a      	subs	r2, r3, r2
 8000324:	b2a3      	uxth	r3, r4
 8000326:	fbb2 f0fe 	udiv	r0, r2, lr
 800032a:	fb0e 2210 	mls	r2, lr, r0, r2
 800032e:	ea43 4302 	orr.w	r3, r3, r2, lsl #16
 8000332:	fb00 fc0c 	mul.w	ip, r0, ip
 8000336:	459c      	cmp	ip, r3
 8000338:	d909      	bls.n	800034e <__udivmoddi4+0x8e>
 800033a:	18fb      	adds	r3, r7, r3
 800033c:	f100 32ff 	add.w	r2, r0, #4294967295
 8000340:	f080 80d6 	bcs.w	80004f0 <__udivmoddi4+0x230>
 8000344:	459c      	cmp	ip, r3
 8000346:	f240 80d3 	bls.w	80004f0 <__udivmoddi4+0x230>
 800034a:	443b      	add	r3, r7
 800034c:	3802      	subs	r0, #2
 800034e:	ea40 4001 	orr.w	r0, r0, r1, lsl #16
 8000352:	eba3 030c 	sub.w	r3, r3, ip
 8000356:	2100      	movs	r1, #0
 8000358:	b11d      	cbz	r5, 8000362 <__udivmoddi4+0xa2>
 800035a:	40f3      	lsrs	r3, r6
 800035c:	2200      	movs	r2, #0
 800035e:	e9c5 3200 	strd	r3, r2, [r5]
 8000362:	e8bd 87f0 	ldmia.w	sp!, {r4, r5, r6, r7, r8, r9, sl, pc}
 8000366:	428b      	cmp	r3, r1
 8000368:	d905      	bls.n	8000376 <__udivmoddi4+0xb6>
 800036a:	b10d      	cbz	r5, 8000370 <__udivmoddi4+0xb0>
 800036c:	e9c5 0100 	strd	r0, r1, [r5]
 8000370:	2100      	movs	r1, #0
 8000372:	4608      	mov	r0, r1
 8000374:	e7f5      	b.n	8000362 <__udivmoddi4+0xa2>
 8000376:	fab3 f183 	clz	r1, r3
 800037a:	2900      	cmp	r1, #0
 800037c:	d146      	bne.n	800040c <__udivmoddi4+0x14c>
 800037e:	4573      	cmp	r3, lr
 8000380:	d302      	bcc.n	8000388 <__udivmoddi4+0xc8>
 8000382:	4282      	cmp	r2, r0
 8000384:	f200 8105 	bhi.w	8000592 <__udivmoddi4+0x2d2>
 8000388:	1a84      	subs	r4, r0, r2
 800038a:	eb6e 0203 	sbc.w	r2, lr, r3
 800038e:	2001      	movs	r0, #1
 8000390:	4690      	mov	r8, r2
 8000392:	2d00      	cmp	r5, #0
 8000394:	d0e5      	beq.n	8000362 <__udivmoddi4+0xa2>
 8000396:	e9c5 4800 	strd	r4, r8, [r5]
 800039a:	e7e2      	b.n	8000362 <__udivmoddi4+0xa2>
 800039c:	2a00      	cmp	r2, #0
 800039e:	f000 8090 	beq.w	80004c2 <__udivmoddi4+0x202>
 80003a2:	fab2 f682 	clz	r6, r2
 80003a6:	2e00      	cmp	r6, #0
 80003a8:	f040 80a4 	bne.w	80004f4 <__udivmoddi4+0x234>
 80003ac:	1a8a      	subs	r2, r1, r2
 80003ae:	0c03      	lsrs	r3, r0, #16
 80003b0:	ea4f 4e17 	mov.w	lr, r7, lsr #16
 80003b4:	b280      	uxth	r0, r0
 80003b6:	b2bc      	uxth	r4, r7
 80003b8:	2101      	movs	r1, #1
 80003ba:	fbb2 fcfe 	udiv	ip, r2, lr
 80003be:	fb0e 221c 	mls	r2, lr, ip, r2
 80003c2:	ea43 4302 	orr.w	r3, r3, r2, lsl #16
 80003c6:	fb04 f20c 	mul.w	r2, r4, ip
 80003ca:	429a      	cmp	r2, r3
 80003cc:	d907      	bls.n	80003de <__udivmoddi4+0x11e>
 80003ce:	18fb      	adds	r3, r7, r3
 80003d0:	f10c 38ff 	add.w	r8, ip, #4294967295
 80003d4:	d202      	bcs.n	80003dc <__udivmoddi4+0x11c>
 80003d6:	429a      	cmp	r2, r3
 80003d8:	f200 80e0 	bhi.w	800059c <__udivmoddi4+0x2dc>
 80003dc:	46c4      	mov	ip, r8
 80003de:	1a9b      	subs	r3, r3, r2
 80003e0:	fbb3 f2fe 	udiv	r2, r3, lr
 80003e4:	fb0e 3312 	mls	r3, lr, r2, r3
 80003e8:	ea40 4303 	orr.w	r3, r0, r3, lsl #16
 80003ec:	fb02 f404 	mul.w	r4, r2, r4
 80003f0:	429c      	cmp	r4, r3
 80003f2:	d907      	bls.n	8000404 <__udivmoddi4+0x144>
 80003f4:	18fb      	adds	r3, r7, r3
 80003f6:	f102 30ff 	add.w	r0, r2, #4294967295
 80003fa:	d202      	bcs.n	8000402 <__udivmoddi4+0x142>
 80003fc:	429c      	cmp	r4, r3
 80003fe:	f200 80ca 	bhi.w	8000596 <__udivmoddi4+0x2d6>
 8000402:	4602      	mov	r2, r0
 8000404:	1b1b      	subs	r3, r3, r4
 8000406:	ea42 400c 	orr.w	r0, r2, ip, lsl #16
 800040a:	e7a5      	b.n	8000358 <__udivmoddi4+0x98>
 800040c:	f1c1 0620 	rsb	r6, r1, #32
 8000410:	408b      	lsls	r3, r1
 8000412:	fa22 f706 	lsr.w	r7, r2, r6
 8000416:	431f      	orrs	r7, r3
 8000418:	fa0e f401 	lsl.w	r4, lr, r1
 800041c:	fa20 f306 	lsr.w	r3, r0, r6
 8000420:	fa2e fe06 	lsr.w	lr, lr, r6
 8000424:	ea4f 4917 	mov.w	r9, r7, lsr #16
 8000428:	4323      	orrs	r3, r4
 800042a:	fa00 f801 	lsl.w	r8, r0, r1
 800042e:	fa1f fc87 	uxth.w	ip, r7
 8000432:	fbbe f0f9 	udiv	r0, lr, r9
 8000436:	0c1c      	lsrs	r4, r3, #16
 8000438:	fb09 ee10 	mls	lr, r9, r0, lr
 800043c:	ea44 440e 	orr.w	r4, r4, lr, lsl #16
 8000440:	fb00 fe0c 	mul.w	lr, r0, ip
 8000444:	45a6      	cmp	lr, r4
 8000446:	fa02 f201 	lsl.w	r2, r2, r1
 800044a:	d909      	bls.n	8000460 <__udivmoddi4+0x1a0>
 800044c:	193c      	adds	r4, r7, r4
 800044e:	f100 3aff 	add.w	sl, r0, #4294967295
 8000452:	f080 809c 	bcs.w	800058e <__udivmoddi4+0x2ce>
 8000456:	45a6      	cmp	lr, r4
 8000458:	f240 8099 	bls.w	800058e <__udivmoddi4+0x2ce>
 800045c:	3802      	subs	r0, #2
 800045e:	443c      	add	r4, r7
 8000460:	eba4 040e 	sub.w	r4, r4, lr
 8000464:	fa1f fe83 	uxth.w	lr, r3
 8000468:	fbb4 f3f9 	udiv	r3, r4, r9
 800046c:	fb09 4413 	mls	r4, r9, r3, r4
 8000470:	ea4e 4404 	orr.w	r4, lr, r4, lsl #16
 8000474:	fb03 fc0c 	mul.w	ip, r3, ip
 8000478:	45a4      	cmp	ip, r4
 800047a:	d908      	bls.n	800048e <__udivmoddi4+0x1ce>
 800047c:	193c      	adds	r4, r7, r4
 800047e:	f103 3eff 	add.w	lr, r3, #4294967295
 8000482:	f080 8082 	bcs.w	800058a <__udivmoddi4+0x2ca>
 8000486:	45a4      	cmp	ip, r4
 8000488:	d97f      	bls.n	800058a <__udivmoddi4+0x2ca>
 800048a:	3b02      	subs	r3, #2
 800048c:	443c      	add	r4, r7
 800048e:	ea43 4000 	orr.w	r0, r3, r0, lsl #16
 8000492:	eba4 040c 	sub.w	r4, r4, ip
 8000496:	fba0 ec02 	umull	lr, ip, r0, r2
 800049a:	4564      	cmp	r4, ip
 800049c:	4673      	mov	r3, lr
 800049e:	46e1      	mov	r9, ip
 80004a0:	d362      	bcc.n	8000568 <__udivmoddi4+0x2a8>
 80004a2:	d05f      	beq.n	8000564 <__udivmoddi4+0x2a4>
 80004a4:	b15d      	cbz	r5, 80004be <__udivmoddi4+0x1fe>
 80004a6:	ebb8 0203 	subs.w	r2, r8, r3
 80004aa:	eb64 0409 	sbc.w	r4, r4, r9
 80004ae:	fa04 f606 	lsl.w	r6, r4, r6
 80004b2:	fa22 f301 	lsr.w	r3, r2, r1
 80004b6:	431e      	orrs	r6, r3
 80004b8:	40cc      	lsrs	r4, r1
 80004ba:	e9c5 6400 	strd	r6, r4, [r5]
 80004be:	2100      	movs	r1, #0
 80004c0:	e74f      	b.n	8000362 <__udivmoddi4+0xa2>
 80004c2:	fbb1 fcf2 	udiv	ip, r1, r2
 80004c6:	0c01      	lsrs	r1, r0, #16
 80004c8:	ea41 410e 	orr.w	r1, r1, lr, lsl #16
 80004cc:	b280      	uxth	r0, r0
 80004ce:	ea40 4201 	orr.w	r2, r0, r1, lsl #16
 80004d2:	463b      	mov	r3, r7
 80004d4:	4638      	mov	r0, r7
 80004d6:	463c      	mov	r4, r7
 80004d8:	46b8      	mov	r8, r7
 80004da:	46be      	mov	lr, r7
 80004dc:	2620      	movs	r6, #32
 80004de:	fbb1 f1f7 	udiv	r1, r1, r7
 80004e2:	eba2 0208 	sub.w	r2, r2, r8
 80004e6:	ea41 410c 	orr.w	r1, r1, ip, lsl #16
 80004ea:	e766      	b.n	80003ba <__udivmoddi4+0xfa>
 80004ec:	4601      	mov	r1, r0
 80004ee:	e718      	b.n	8000322 <__udivmoddi4+0x62>
 80004f0:	4610      	mov	r0, r2
 80004f2:	e72c      	b.n	800034e <__udivmoddi4+0x8e>
 80004f4:	f1c6 0220 	rsb	r2, r6, #32
 80004f8:	fa2e f302 	lsr.w	r3, lr, r2
 80004fc:	40b7      	lsls	r7, r6
 80004fe:	40b1      	lsls	r1, r6
 8000500:	fa20 f202 	lsr.w	r2, r0, r2
 8000504:	ea4f 4e17 	mov.w	lr, r7, lsr #16
 8000508:	430a      	orrs	r2, r1
 800050a:	fbb3 f8fe 	udiv	r8, r3, lr
 800050e:	b2bc      	uxth	r4, r7
 8000510:	fb0e 3318 	mls	r3, lr, r8, r3
 8000514:	0c11      	lsrs	r1, r2, #16
 8000516:	ea41 4103 	orr.w	r1, r1, r3, lsl #16
 800051a:	fb08 f904 	mul.w	r9, r8, r4
 800051e:	40b0      	lsls	r0, r6
 8000520:	4589      	cmp	r9, r1
 8000522:	ea4f 4310 	mov.w	r3, r0, lsr #16
 8000526:	b280      	uxth	r0, r0
 8000528:	d93e      	bls.n	80005a8 <__udivmoddi4+0x2e8>
 800052a:	1879      	adds	r1, r7, r1
 800052c:	f108 3cff 	add.w	ip, r8, #4294967295
 8000530:	d201      	bcs.n	8000536 <__udivmoddi4+0x276>
 8000532:	4589      	cmp	r9, r1
 8000534:	d81f      	bhi.n	8000576 <__udivmoddi4+0x2b6>
 8000536:	eba1 0109 	sub.w	r1, r1, r9
 800053a:	fbb1 f9fe 	udiv	r9, r1, lr
 800053e:	fb09 f804 	mul.w	r8, r9, r4
 8000542:	fb0e 1119 	mls	r1, lr, r9, r1
 8000546:	b292      	uxth	r2, r2
 8000548:	ea42 4201 	orr.w	r2, r2, r1, lsl #16
 800054c:	4542      	cmp	r2, r8
 800054e:	d229      	bcs.n	80005a4 <__udivmoddi4+0x2e4>
 8000550:	18ba      	adds	r2, r7, r2
 8000552:	f109 31ff 	add.w	r1, r9, #4294967295
 8000556:	d2c4      	bcs.n	80004e2 <__udivmoddi4+0x222>
 8000558:	4542      	cmp	r2, r8
 800055a:	d2c2      	bcs.n	80004e2 <__udivmoddi4+0x222>
 800055c:	f1a9 0102 	sub.w	r1, r9, #2
 8000560:	443a      	add	r2, r7
 8000562:	e7be      	b.n	80004e2 <__udivmoddi4+0x222>
 8000564:	45f0      	cmp	r8, lr
 8000566:	d29d      	bcs.n	80004a4 <__udivmoddi4+0x1e4>
 8000568:	ebbe 0302 	subs.w	r3, lr, r2
 800056c:	eb6c 0c07 	sbc.w	ip, ip, r7
 8000570:	3801      	subs	r0, #1
 8000572:	46e1      	mov	r9, ip
 8000574:	e796      	b.n	80004a4 <__udivmoddi4+0x1e4>
 8000576:	eba7 0909 	sub.w	r9, r7, r9
 800057a:	4449      	add	r1, r9
 800057c:	f1a8 0c02 	sub.w	ip, r8, #2
 8000580:	fbb1 f9fe 	udiv	r9, r1, lr
 8000584:	fb09 f804 	mul.w	r8, r9, r4
 8000588:	e7db      	b.n	8000542 <__udivmoddi4+0x282>
 800058a:	4673      	mov	r3, lr
 800058c:	e77f      	b.n	800048e <__udivmoddi4+0x1ce>
 800058e:	4650      	mov	r0, sl
 8000590:	e766      	b.n	8000460 <__udivmoddi4+0x1a0>
 8000592:	4608      	mov	r0, r1
 8000594:	e6fd      	b.n	8000392 <__udivmoddi4+0xd2>
 8000596:	443b      	add	r3, r7
 8000598:	3a02      	subs	r2, #2
 800059a:	e733      	b.n	8000404 <__udivmoddi4+0x144>
 800059c:	f1ac 0c02 	sub.w	ip, ip, #2
 80005a0:	443b      	add	r3, r7
 80005a2:	e71c      	b.n	80003de <__udivmoddi4+0x11e>
 80005a4:	4649      	mov	r1, r9
 80005a6:	e79c      	b.n	80004e2 <__udivmoddi4+0x222>
 80005a8:	eba1 0109 	sub.w	r1, r1, r9
 80005ac:	46c4      	mov	ip, r8
 80005ae:	fbb1 f9fe 	udiv	r9, r1, lr
 80005b2:	fb09 f804 	mul.w	r8, r9, r4
 80005b6:	e7c4      	b.n	8000542 <__udivmoddi4+0x282>

080005b8 <__aeabi_idiv0>:
 80005b8:	4770      	bx	lr
 80005ba:	bf00      	nop

080005bc <MX_ADC1_Init>:
 80005bc:	b51f      	push	{r0, r1, r2, r3, r4, lr}
 80005be:	2210      	movs	r2, #16
 80005c0:	2100      	movs	r1, #0
 80005c2:	4668      	mov	r0, sp
 80005c4:	f009 fc2e 	bl	8009e24 <memset>
 80005c8:	4813      	ldr	r0, [pc, #76]	@ (8000618 <MX_ADC1_Init+0x5c>)
 80005ca:	4a14      	ldr	r2, [pc, #80]	@ (800061c <MX_ADC1_Init+0x60>)
 80005cc:	f44f 3380 	mov.w	r3, #65536	@ 0x10000
 80005d0:	e9c0 2300 	strd	r2, r3, [r0]
 80005d4:	2401      	movs	r4, #1
 80005d6:	2300      	movs	r3, #0
 80005d8:	4a11      	ldr	r2, [pc, #68]	@ (8000620 <MX_ADC1_Init+0x64>)
 80005da:	6083      	str	r3, [r0, #8]
 80005dc:	6103      	str	r3, [r0, #16]
 80005de:	7603      	strb	r3, [r0, #24]
 80005e0:	f880 3020 	strb.w	r3, [r0, #32]
 80005e4:	62c3      	str	r3, [r0, #44]	@ 0x2c
 80005e6:	6282      	str	r2, [r0, #40]	@ 0x28
 80005e8:	60c3      	str	r3, [r0, #12]
 80005ea:	61c4      	str	r4, [r0, #28]
 80005ec:	f880 3030 	strb.w	r3, [r0, #48]	@ 0x30
 80005f0:	6144      	str	r4, [r0, #20]
 80005f2:	f001 f875 	bl	80016e0 <HAL_ADC_Init>
 80005f6:	b108      	cbz	r0, 80005fc <MX_ADC1_Init+0x40>
 80005f8:	f000 fd38 	bl	800106c <Error_Handler>
 80005fc:	2310      	movs	r3, #16
 80005fe:	e9cd 3400 	strd	r3, r4, [sp]
 8000602:	4805      	ldr	r0, [pc, #20]	@ (8000618 <MX_ADC1_Init+0x5c>)
 8000604:	2300      	movs	r3, #0
 8000606:	4669      	mov	r1, sp
 8000608:	9302      	str	r3, [sp, #8]
 800060a:	f001 f99f 	bl	800194c <HAL_ADC_ConfigChannel>
 800060e:	b108      	cbz	r0, 8000614 <MX_ADC1_Init+0x58>
 8000610:	f000 fd2c 	bl	800106c <Error_Handler>
 8000614:	b004      	add	sp, #16
 8000616:	bd10      	pop	{r4, pc}
 8000618:	20000588 	.word	0x20000588
 800061c:	40012000 	.word	0x40012000
 8000620:	0f000001 	.word	0x0f000001

08000624 <HAL_ADC_MspInit>:
 8000624:	6802      	ldr	r2, [r0, #0]
 8000626:	4b09      	ldr	r3, [pc, #36]	@ (800064c <HAL_ADC_MspInit+0x28>)
 8000628:	429a      	cmp	r2, r3
 800062a:	b082      	sub	sp, #8
 800062c:	d10b      	bne.n	8000646 <HAL_ADC_MspInit+0x22>
 800062e:	2300      	movs	r3, #0
 8000630:	9301      	str	r3, [sp, #4]
 8000632:	4b07      	ldr	r3, [pc, #28]	@ (8000650 <HAL_ADC_MspInit+0x2c>)
 8000634:	6c5a      	ldr	r2, [r3, #68]	@ 0x44
 8000636:	f442 7280 	orr.w	r2, r2, #256	@ 0x100
 800063a:	645a      	str	r2, [r3, #68]	@ 0x44
 800063c:	6c5b      	ldr	r3, [r3, #68]	@ 0x44
 800063e:	f403 7380 	and.w	r3, r3, #256	@ 0x100
 8000642:	9301      	str	r3, [sp, #4]
 8000644:	9b01      	ldr	r3, [sp, #4]
 8000646:	b002      	add	sp, #8
 8000648:	4770      	bx	lr
 800064a:	bf00      	nop
 800064c:	40012000 	.word	0x40012000
 8000650:	40023800 	.word	0x40023800

08000654 <MX_CRC_Init>:
 8000654:	4805      	ldr	r0, [pc, #20]	@ (800066c <MX_CRC_Init+0x18>)
 8000656:	b508      	push	{r3, lr}
 8000658:	4b05      	ldr	r3, [pc, #20]	@ (8000670 <MX_CRC_Init+0x1c>)
 800065a:	6003      	str	r3, [r0, #0]
 800065c:	f001 faae 	bl	8001bbc <HAL_CRC_Init>
 8000660:	b118      	cbz	r0, 800066a <MX_CRC_Init+0x16>
 8000662:	e8bd 4008 	ldmia.w	sp!, {r3, lr}
 8000666:	f000 bd01 	b.w	800106c <Error_Handler>
 800066a:	bd08      	pop	{r3, pc}
 800066c:	200005d0 	.word	0x200005d0
 8000670:	40023000 	.word	0x40023000

08000674 <HAL_CRC_MspInit>:
 8000674:	6802      	ldr	r2, [r0, #0]
 8000676:	4b09      	ldr	r3, [pc, #36]	@ (800069c <HAL_CRC_MspInit+0x28>)
 8000678:	429a      	cmp	r2, r3
 800067a:	b082      	sub	sp, #8
 800067c:	d10b      	bne.n	8000696 <HAL_CRC_MspInit+0x22>
 800067e:	2300      	movs	r3, #0
 8000680:	9301      	str	r3, [sp, #4]
 8000682:	4b07      	ldr	r3, [pc, #28]	@ (80006a0 <HAL_CRC_MspInit+0x2c>)
 8000684:	6b1a      	ldr	r2, [r3, #48]	@ 0x30
 8000686:	f442 5280 	orr.w	r2, r2, #4096	@ 0x1000
 800068a:	631a      	str	r2, [r3, #48]	@ 0x30
 800068c:	6b1b      	ldr	r3, [r3, #48]	@ 0x30
 800068e:	f403 5380 	and.w	r3, r3, #4096	@ 0x1000
 8000692:	9301      	str	r3, [sp, #4]
 8000694:	9b01      	ldr	r3, [sp, #4]
 8000696:	b002      	add	sp, #8
 8000698:	4770      	bx	lr
 800069a:	bf00      	nop
 800069c:	40023000 	.word	0x40023000
 80006a0:	40023800 	.word	0x40023800

080006a4 <MX_DMA_Init>:
 80006a4:	b507      	push	{r0, r1, r2, lr}
 80006a6:	2300      	movs	r3, #0
 80006a8:	4a3d      	ldr	r2, [pc, #244]	@ (80007a0 <MX_DMA_Init+0xfc>)
 80006aa:	9300      	str	r3, [sp, #0]
 80006ac:	6b11      	ldr	r1, [r2, #48]	@ 0x30
 80006ae:	483d      	ldr	r0, [pc, #244]	@ (80007a4 <MX_DMA_Init+0x100>)
 80006b0:	f441 1100 	orr.w	r1, r1, #2097152	@ 0x200000
 80006b4:	6311      	str	r1, [r2, #48]	@ 0x30
 80006b6:	6b11      	ldr	r1, [r2, #48]	@ 0x30
 80006b8:	f401 1100 	and.w	r1, r1, #2097152	@ 0x200000
 80006bc:	9100      	str	r1, [sp, #0]
 80006be:	9900      	ldr	r1, [sp, #0]
 80006c0:	9301      	str	r3, [sp, #4]
 80006c2:	6b11      	ldr	r1, [r2, #48]	@ 0x30
 80006c4:	f441 0180 	orr.w	r1, r1, #4194304	@ 0x400000
 80006c8:	6311      	str	r1, [r2, #48]	@ 0x30
 80006ca:	6b12      	ldr	r2, [r2, #48]	@ 0x30
 80006cc:	6303      	str	r3, [r0, #48]	@ 0x30
 80006ce:	f402 0280 	and.w	r2, r2, #4194304	@ 0x400000
 80006d2:	9201      	str	r2, [sp, #4]
 80006d4:	9a01      	ldr	r2, [sp, #4]
 80006d6:	4a34      	ldr	r2, [pc, #208]	@ (80007a8 <MX_DMA_Init+0x104>)
 80006d8:	f04f 0e80 	mov.w	lr, #128	@ 0x80
 80006dc:	e9c0 2300 	strd	r2, r3, [r0]
 80006e0:	f44f 7200 	mov.w	r2, #512	@ 0x200
 80006e4:	e9c0 e202 	strd	lr, r2, [r0, #8]
 80006e8:	f44f 6280 	mov.w	r2, #1024	@ 0x400
 80006ec:	e9c0 2304 	strd	r2, r3, [r0, #16]
 80006f0:	f44f 3140 	mov.w	r1, #196608	@ 0x30000
 80006f4:	2204      	movs	r2, #4
 80006f6:	e9c0 1208 	strd	r1, r2, [r0, #32]
 80006fa:	2203      	movs	r2, #3
 80006fc:	e9c0 3306 	strd	r3, r3, [r0, #24]
 8000700:	e9c0 230a 	strd	r2, r3, [r0, #40]	@ 0x28
 8000704:	f001 fa8e 	bl	8001c24 <HAL_DMA_Init>
 8000708:	b108      	cbz	r0, 800070e <MX_DMA_Init+0x6a>
 800070a:	f000 fcaf 	bl	800106c <Error_Handler>
 800070e:	4827      	ldr	r0, [pc, #156]	@ (80007ac <MX_DMA_Init+0x108>)
 8000710:	4a27      	ldr	r2, [pc, #156]	@ (80007b0 <MX_DMA_Init+0x10c>)
 8000712:	2300      	movs	r3, #0
 8000714:	e9c0 2300 	strd	r2, r3, [r0]
 8000718:	2180      	movs	r1, #128	@ 0x80
 800071a:	f44f 7200 	mov.w	r2, #512	@ 0x200
 800071e:	e9c0 1202 	strd	r1, r2, [r0, #8]
 8000722:	f44f 6280 	mov.w	r2, #1024	@ 0x400
 8000726:	e9c0 2304 	strd	r2, r3, [r0, #16]
 800072a:	f44f 3c80 	mov.w	ip, #65536	@ 0x10000
 800072e:	2204      	movs	r2, #4
 8000730:	e9c0 c208 	strd	ip, r2, [r0, #32]
 8000734:	2203      	movs	r2, #3
 8000736:	e9c0 3306 	strd	r3, r3, [r0, #24]
 800073a:	e9c0 230a 	strd	r2, r3, [r0, #40]	@ 0x28
 800073e:	6303      	str	r3, [r0, #48]	@ 0x30
 8000740:	f001 fa70 	bl	8001c24 <HAL_DMA_Init>
 8000744:	b108      	cbz	r0, 800074a <MX_DMA_Init+0xa6>
 8000746:	f000 fc91 	bl	800106c <Error_Handler>
 800074a:	2200      	movs	r2, #0
 800074c:	2105      	movs	r1, #5
 800074e:	200c      	movs	r0, #12
 8000750:	f001 f9c6 	bl	8001ae0 <HAL_NVIC_SetPriority>
 8000754:	200c      	movs	r0, #12
 8000756:	f001 fa05 	bl	8001b64 <HAL_NVIC_EnableIRQ>
 800075a:	2200      	movs	r2, #0
 800075c:	2105      	movs	r1, #5
 800075e:	200f      	movs	r0, #15
 8000760:	f001 f9be 	bl	8001ae0 <HAL_NVIC_SetPriority>
 8000764:	200f      	movs	r0, #15
 8000766:	f001 f9fd 	bl	8001b64 <HAL_NVIC_EnableIRQ>
 800076a:	2200      	movs	r2, #0
 800076c:	2105      	movs	r1, #5
 800076e:	2010      	movs	r0, #16
 8000770:	f001 f9b6 	bl	8001ae0 <HAL_NVIC_SetPriority>
 8000774:	2010      	movs	r0, #16
 8000776:	f001 f9f5 	bl	8001b64 <HAL_NVIC_EnableIRQ>
 800077a:	2200      	movs	r2, #0
 800077c:	2105      	movs	r1, #5
 800077e:	2039      	movs	r0, #57	@ 0x39
 8000780:	f001 f9ae 	bl	8001ae0 <HAL_NVIC_SetPriority>
 8000784:	2039      	movs	r0, #57	@ 0x39
 8000786:	f001 f9ed 	bl	8001b64 <HAL_NVIC_EnableIRQ>
 800078a:	2200      	movs	r2, #0
 800078c:	2105      	movs	r1, #5
 800078e:	2045      	movs	r0, #69	@ 0x45
 8000790:	f001 f9a6 	bl	8001ae0 <HAL_NVIC_SetPriority>
 8000794:	2045      	movs	r0, #69	@ 0x45
 8000796:	b003      	add	sp, #12
 8000798:	f85d eb04 	ldr.w	lr, [sp], #4
 800079c:	f001 b9e2 	b.w	8001b64 <HAL_NVIC_EnableIRQ>
 80007a0:	40023800 	.word	0x40023800
 80007a4:	20000638 	.word	0x20000638
 80007a8:	40026410 	.word	0x40026410
 80007ac:	200005d8 	.word	0x200005d8
 80007b0:	40026440 	.word	0x40026440

080007b4 <Start_KeyScan_Task>:
 80007b4:	b508      	push	{r3, lr}
 80007b6:	f008 fe1d 	bl	80093f4 <xTaskGetTickCount>
 80007ba:	4c09      	ldr	r4, [pc, #36]	@ (80007e0 <Start_KeyScan_Task+0x2c>)
 80007bc:	4d09      	ldr	r5, [pc, #36]	@ (80007e4 <Start_KeyScan_Task+0x30>)
 80007be:	4e0a      	ldr	r6, [pc, #40]	@ (80007e8 <Start_KeyScan_Task+0x34>)
 80007c0:	6020      	str	r0, [r4, #0]
 80007c2:	2101      	movs	r1, #1
 80007c4:	4620      	mov	r0, r4
 80007c6:	f008 ff2d 	bl	8009624 <vTaskDelayUntil>
 80007ca:	2300      	movs	r3, #0
 80007cc:	2b02      	cmp	r3, #2
 80007ce:	702b      	strb	r3, [r5, #0]
 80007d0:	d8f7      	bhi.n	80007c2 <Start_KeyScan_Task+0xe>
 80007d2:	4630      	mov	r0, r6
 80007d4:	f006 f922 	bl	8006a1c <SingleScan>
 80007d8:	782b      	ldrb	r3, [r5, #0]
 80007da:	3301      	adds	r3, #1
 80007dc:	b2db      	uxtb	r3, r3
 80007de:	e7f5      	b.n	80007cc <Start_KeyScan_Task+0x18>
 80007e0:	2000069c 	.word	0x2000069c
 80007e4:	20000698 	.word	0x20000698
 80007e8:	2000077b 	.word	0x2000077b

080007ec <DRAW_FRAME.part.0>:
 80007ec:	b530      	push	{r4, r5, lr}
 80007ee:	b085      	sub	sp, #20
 80007f0:	f245 4458 	movw	r4, #21592	@ 0x5458
 80007f4:	23ff      	movs	r3, #255	@ 0xff
 80007f6:	9400      	str	r4, [sp, #0]
 80007f8:	4619      	mov	r1, r3
 80007fa:	22f0      	movs	r2, #240	@ 0xf0
 80007fc:	2000      	movs	r0, #0
 80007fe:	f005 fd20 	bl	8006242 <LCD_DrawLine>
 8000802:	2367      	movs	r3, #103	@ 0x67
 8000804:	9400      	str	r4, [sp, #0]
 8000806:	4619      	mov	r1, r3
 8000808:	22f0      	movs	r2, #240	@ 0xf0
 800080a:	2000      	movs	r0, #0
 800080c:	f005 fd19 	bl	8006242 <LCD_DrawLine>
 8000810:	2200      	movs	r2, #0
 8000812:	9400      	str	r4, [sp, #0]
 8000814:	4610      	mov	r0, r2
 8000816:	23fe      	movs	r3, #254	@ 0xfe
 8000818:	2167      	movs	r1, #103	@ 0x67
 800081a:	f005 fd12 	bl	8006242 <LCD_DrawLine>
 800081e:	22ef      	movs	r2, #239	@ 0xef
 8000820:	9400      	str	r4, [sp, #0]
 8000822:	4610      	mov	r0, r2
 8000824:	23fe      	movs	r3, #254	@ 0xfe
 8000826:	2167      	movs	r1, #103	@ 0x67
 8000828:	f005 fd0b 	bl	8006242 <LCD_DrawLine>
 800082c:	2400      	movs	r4, #0
 800082e:	2318      	movs	r3, #24
 8000830:	e9cd 3401 	strd	r3, r4, [sp, #4]
 8000834:	2510      	movs	r5, #16
 8000836:	4a10      	ldr	r2, [pc, #64]	@ (8000878 <DRAW_FRAME.part.0+0x8c>)
 8000838:	9400      	str	r4, [sp, #0]
 800083a:	f64f 73ff 	movw	r3, #65535	@ 0xffff
 800083e:	f44f 7181 	mov.w	r1, #258	@ 0x102
 8000842:	2014      	movs	r0, #20
 8000844:	f005 fdd6 	bl	80063f4 <LCD_ShowString>
 8000848:	e9cd 4500 	strd	r4, r5, [sp]
 800084c:	4a0b      	ldr	r2, [pc, #44]	@ (800087c <DRAW_FRAME.part.0+0x90>)
 800084e:	9402      	str	r4, [sp, #8]
 8000850:	f64f 73ff 	movw	r3, #65535	@ 0xffff
 8000854:	f44f 718d 	mov.w	r1, #282	@ 0x11a
 8000858:	201e      	movs	r0, #30
 800085a:	f005 fdcb 	bl	80063f4 <LCD_ShowString>
 800085e:	e9cd 5401 	strd	r5, r4, [sp, #4]
 8000862:	4a07      	ldr	r2, [pc, #28]	@ (8000880 <DRAW_FRAME.part.0+0x94>)
 8000864:	9400      	str	r4, [sp, #0]
 8000866:	f64f 73ff 	movw	r3, #65535	@ 0xffff
 800086a:	f44f 718d 	mov.w	r1, #282	@ 0x11a
 800086e:	2085      	movs	r0, #133	@ 0x85
 8000870:	f005 fdc0 	bl	80063f4 <LCD_ShowString>
 8000874:	b005      	add	sp, #20
 8000876:	bd30      	pop	{r4, r5, pc}
 8000878:	0800a738 	.word	0x0800a738
 800087c:	0800a742 	.word	0x0800a742
 8000880:	0800a746 	.word	0x0800a746

08000884 <MX_FREERTOS_Init>:
 8000884:	b508      	push	{r3, lr}
 8000886:	4a0b      	ldr	r2, [pc, #44]	@ (80008b4 <MX_FREERTOS_Init+0x30>)
 8000888:	480b      	ldr	r0, [pc, #44]	@ (80008b8 <MX_FREERTOS_Init+0x34>)
 800088a:	2100      	movs	r1, #0
 800088c:	f007 fd53 	bl	8008336 <osThreadNew>
 8000890:	4b0a      	ldr	r3, [pc, #40]	@ (80008bc <MX_FREERTOS_Init+0x38>)
 8000892:	4a0b      	ldr	r2, [pc, #44]	@ (80008c0 <MX_FREERTOS_Init+0x3c>)
 8000894:	6018      	str	r0, [r3, #0]
 8000896:	2100      	movs	r1, #0
 8000898:	480a      	ldr	r0, [pc, #40]	@ (80008c4 <MX_FREERTOS_Init+0x40>)
 800089a:	f007 fd4c 	bl	8008336 <osThreadNew>
 800089e:	4b0a      	ldr	r3, [pc, #40]	@ (80008c8 <MX_FREERTOS_Init+0x44>)
 80008a0:	4a0a      	ldr	r2, [pc, #40]	@ (80008cc <MX_FREERTOS_Init+0x48>)
 80008a2:	6018      	str	r0, [r3, #0]
 80008a4:	2100      	movs	r1, #0
 80008a6:	480a      	ldr	r0, [pc, #40]	@ (80008d0 <MX_FREERTOS_Init+0x4c>)
 80008a8:	f007 fd45 	bl	8008336 <osThreadNew>
 80008ac:	4b09      	ldr	r3, [pc, #36]	@ (80008d4 <MX_FREERTOS_Init+0x50>)
 80008ae:	6018      	str	r0, [r3, #0]
 80008b0:	bd08      	pop	{r3, pc}
 80008b2:	bf00      	nop
 80008b4:	0800acb0 	.word	0x0800acb0
 80008b8:	08000b9d 	.word	0x08000b9d
 80008bc:	200006ac 	.word	0x200006ac
 80008c0:	0800acf8 	.word	0x0800acf8
 80008c4:	08000a49 	.word	0x08000a49
 80008c8:	200006b4 	.word	0x200006b4
 80008cc:	0800acd4 	.word	0x0800acd4
 80008d0:	080007b5 	.word	0x080007b5
 80008d4:	200006b0 	.word	0x200006b0

080008d8 <DRAW_DATA>:
 80008d8:	e92d 4ff0 	stmdb	sp!, {r4, r5, r6, r7, r8, r9, sl, fp, lr}
 80008dc:	b08d      	sub	sp, #52	@ 0x34
 80008de:	4605      	mov	r5, r0
 80008e0:	221c      	movs	r2, #28
 80008e2:	2100      	movs	r1, #0
 80008e4:	a805      	add	r0, sp, #20
 80008e6:	f009 fa9d 	bl	8009e24 <memset>
 80008ea:	2d00      	cmp	r5, #0
 80008ec:	f040 808c 	bne.w	8000a08 <DRAW_DATA+0x130>
 80008f0:	2318      	movs	r3, #24
 80008f2:	e9cd 5301 	strd	r5, r3, [sp, #4]
 80008f6:	f64f 74ff 	movw	r4, #65535	@ 0xffff
 80008fa:	4a4a      	ldr	r2, [pc, #296]	@ (8000a24 <DRAW_DATA+0x14c>)
 80008fc:	9400      	str	r4, [sp, #0]
 80008fe:	6852      	ldr	r2, [r2, #4]
 8000900:	f8df 9138 	ldr.w	r9, [pc, #312]	@ 8000a3c <DRAW_DATA+0x164>
 8000904:	2307      	movs	r3, #7
 8000906:	f44f 7181 	mov.w	r1, #258	@ 0x102
 800090a:	2081      	movs	r0, #129	@ 0x81
 800090c:	2610      	movs	r6, #16
 800090e:	f005 fdc9 	bl	80064a4 <LCD_ShowIntNum>
 8000912:	e9cd 5601 	strd	r5, r6, [sp, #4]
 8000916:	4a44      	ldr	r2, [pc, #272]	@ (8000a28 <DRAW_DATA+0x150>)
 8000918:	9400      	str	r4, [sp, #0]
 800091a:	8812      	ldrh	r2, [r2, #0]
 800091c:	2305      	movs	r3, #5
 800091e:	f44f 718d 	mov.w	r1, #282	@ 0x11a
 8000922:	2036      	movs	r0, #54	@ 0x36
 8000924:	f005 fdbe 	bl	80064a4 <LCD_ShowIntNum>
 8000928:	e9cd 5601 	strd	r5, r6, [sp, #4]
 800092c:	4a3f      	ldr	r2, [pc, #252]	@ (8000a2c <DRAW_DATA+0x154>)
 800092e:	9400      	str	r4, [sp, #0]
 8000930:	8812      	ldrh	r2, [r2, #0]
 8000932:	2305      	movs	r3, #5
 8000934:	f44f 718d 	mov.w	r1, #282	@ 0x11a
 8000938:	209d      	movs	r0, #157	@ 0x9d
 800093a:	f005 fdb3 	bl	80064a4 <LCD_ShowIntNum>
 800093e:	f04f 0869 	mov.w	r8, #105	@ 0x69
 8000942:	4a3b      	ldr	r2, [pc, #236]	@ (8000a30 <DRAW_DATA+0x158>)
 8000944:	7814      	ldrb	r4, [r2, #0]
 8000946:	b2eb      	uxtb	r3, r5
 8000948:	429c      	cmp	r4, r3
 800094a:	bf94      	ite	ls
 800094c:	3406      	addls	r4, #6
 800094e:	f104 34ff 	addhi.w	r4, r4, #4294967295
 8000952:	1ae4      	subs	r4, r4, r3
 8000954:	b2e4      	uxtb	r4, r4
 8000956:	f819 3004 	ldrb.w	r3, [r9, r4]
 800095a:	2b00      	cmp	r3, #0
 800095c:	d04a      	beq.n	80009f4 <DRAW_DATA+0x11c>
 800095e:	f8df a0e0 	ldr.w	sl, [pc, #224]	@ 8000a40 <DRAW_DATA+0x168>
 8000962:	f89a 3000 	ldrb.w	r3, [sl]
 8000966:	b353      	cbz	r3, 80009be <DRAW_DATA+0xe6>
 8000968:	2120      	movs	r1, #32
 800096a:	221a      	movs	r2, #26
 800096c:	f10d 0015 	add.w	r0, sp, #21
 8000970:	f009 fa58 	bl	8009e24 <memset>
 8000974:	eb04 0784 	add.w	r7, r4, r4, lsl #2
 8000978:	4b2e      	ldr	r3, [pc, #184]	@ (8000a34 <DRAW_DATA+0x15c>)
 800097a:	f8df b0c8 	ldr.w	fp, [pc, #200]	@ 8000a44 <DRAW_DATA+0x16c>
 800097e:	492e      	ldr	r1, [pc, #184]	@ (8000a38 <DRAW_DATA+0x160>)
 8000980:	2600      	movs	r6, #0
 8000982:	eb07 0787 	add.w	r7, r7, r7, lsl #2
 8000986:	f88d 6014 	strb.w	r6, [sp, #20]
 800098a:	441f      	add	r7, r3
 800098c:	f81b 2004 	ldrb.w	r2, [fp, r4]
 8000990:	b2f3      	uxtb	r3, r6
 8000992:	429a      	cmp	r2, r3
 8000994:	d909      	bls.n	80009aa <DRAW_DATA+0xd2>
 8000996:	aa05      	add	r2, sp, #20
 8000998:	f817 3b01 	ldrb.w	r3, [r7], #1
 800099c:	4610      	mov	r0, r2
 800099e:	3601      	adds	r6, #1
 80009a0:	f009 fa1e 	bl	8009de0 <siprintf>
 80009a4:	2e09      	cmp	r6, #9
 80009a6:	4924      	ldr	r1, [pc, #144]	@ (8000a38 <DRAW_DATA+0x160>)
 80009a8:	d1f0      	bne.n	800098c <DRAW_DATA+0xb4>
 80009aa:	a805      	add	r0, sp, #20
 80009ac:	f7ff fc18 	bl	80001e0 <strlen>
 80009b0:	f100 0330 	add.w	r3, r0, #48	@ 0x30
 80009b4:	eb0d 0003 	add.w	r0, sp, r3
 80009b8:	2320      	movs	r3, #32
 80009ba:	f800 3c1c 	strb.w	r3, [r0, #-28]
 80009be:	f89a 3000 	ldrb.w	r3, [sl]
 80009c2:	bb23      	cbnz	r3, 8000a0e <DRAW_DATA+0x136>
 80009c4:	491b      	ldr	r1, [pc, #108]	@ (8000a34 <DRAW_DATA+0x15c>)
 80009c6:	eb04 0284 	add.w	r2, r4, r4, lsl #2
 80009ca:	eb02 0282 	add.w	r2, r2, r2, lsl #2
 80009ce:	440a      	add	r2, r1
 80009d0:	f819 1004 	ldrb.w	r1, [r9, r4]
 80009d4:	2901      	cmp	r1, #1
 80009d6:	d11d      	bne.n	8000a14 <DRAW_DATA+0x13c>
 80009d8:	2b00      	cmp	r3, #0
 80009da:	bf0c      	ite	eq
 80009dc:	f44f 63fc 	moveq.w	r3, #2016	@ 0x7e0
 80009e0:	231f      	movne	r3, #31
 80009e2:	2100      	movs	r1, #0
 80009e4:	2010      	movs	r0, #16
 80009e6:	e9cd 0101 	strd	r0, r1, [sp, #4]
 80009ea:	9100      	str	r1, [sp, #0]
 80009ec:	2002      	movs	r0, #2
 80009ee:	4641      	mov	r1, r8
 80009f0:	f005 fd23 	bl	800643a <LCD_ShowString_CL>
 80009f4:	2001      	movs	r0, #1
 80009f6:	3501      	adds	r5, #1
 80009f8:	f007 fce1 	bl	80083be <osDelay>
 80009fc:	f108 0814 	add.w	r8, r8, #20
 8000a00:	2d07      	cmp	r5, #7
 8000a02:	fa1f f888 	uxth.w	r8, r8
 8000a06:	d19c      	bne.n	8000942 <DRAW_DATA+0x6a>
 8000a08:	b00d      	add	sp, #52	@ 0x34
 8000a0a:	e8bd 8ff0 	ldmia.w	sp!, {r4, r5, r6, r7, r8, r9, sl, fp, pc}
 8000a0e:	f10d 0215 	add.w	r2, sp, #21
 8000a12:	e7dd      	b.n	80009d0 <DRAW_DATA+0xf8>
 8000a14:	2b00      	cmp	r3, #0
 8000a16:	f64f 031f 	movw	r3, #63519	@ 0xf81f
 8000a1a:	bf08      	it	eq
 8000a1c:	f44f 4378 	moveq.w	r3, #63488	@ 0xf800
 8000a20:	e7df      	b.n	80009e2 <DRAW_DATA+0x10a>
 8000a22:	bf00      	nop
 8000a24:	20000a64 	.word	0x20000a64
 8000a28:	200006ba 	.word	0x200006ba
 8000a2c:	200006b8 	.word	0x200006b8
 8000a30:	200006bc 	.word	0x200006bc
 8000a34:	200006cb 	.word	0x200006cb
 8000a38:	0800a74a 	.word	0x0800a74a
 8000a3c:	200006bd 	.word	0x200006bd
 8000a40:	200050a7 	.word	0x200050a7
 8000a44:	200006c4 	.word	0x200006c4

08000a48 <Start_LED_Task>:
 8000a48:	b507      	push	{r0, r1, r2, lr}
 8000a4a:	4817      	ldr	r0, [pc, #92]	@ (8000aa8 <Start_LED_Task+0x60>)
 8000a4c:	4c16      	ldr	r4, [pc, #88]	@ (8000aa8 <Start_LED_Task+0x60>)
 8000a4e:	4e17      	ldr	r6, [pc, #92]	@ (8000aac <Start_LED_Task+0x64>)
 8000a50:	4d17      	ldr	r5, [pc, #92]	@ (8000ab0 <Start_LED_Task+0x68>)
 8000a52:	2200      	movs	r2, #0
 8000a54:	2140      	movs	r1, #64	@ 0x40
 8000a56:	f001 fdbd 	bl	80025d4 <HAL_GPIO_WritePin>
 8000a5a:	4620      	mov	r0, r4
 8000a5c:	2140      	movs	r1, #64	@ 0x40
 8000a5e:	f001 fdd3 	bl	8002608 <HAL_GPIO_TogglePin>
 8000a62:	8830      	ldrh	r0, [r6, #0]
 8000a64:	f64f 73ff 	movw	r3, #65535	@ 0xffff
 8000a68:	4298      	cmp	r0, r3
 8000a6a:	d109      	bne.n	8000a80 <Start_LED_Task+0x38>
 8000a6c:	4620      	mov	r0, r4
 8000a6e:	2201      	movs	r2, #1
 8000a70:	2140      	movs	r1, #64	@ 0x40
 8000a72:	f001 fdaf 	bl	80025d4 <HAL_GPIO_WritePin>
 8000a76:	f44f 707a 	mov.w	r0, #1000	@ 0x3e8
 8000a7a:	f007 fca0 	bl	80083be <osDelay>
 8000a7e:	e7ec      	b.n	8000a5a <Start_LED_Task+0x12>
 8000a80:	f007 fc9d 	bl	80083be <osDelay>
 8000a84:	782b      	ldrb	r3, [r5, #0]
 8000a86:	b15b      	cbz	r3, 8000aa0 <Start_LED_Task+0x58>
 8000a88:	4b0a      	ldr	r3, [pc, #40]	@ (8000ab4 <Start_LED_Task+0x6c>)
 8000a8a:	9300      	str	r3, [sp, #0]
 8000a8c:	22f0      	movs	r2, #240	@ 0xf0
 8000a8e:	235b      	movs	r3, #91	@ 0x5b
 8000a90:	210a      	movs	r1, #10
 8000a92:	2000      	movs	r0, #0
 8000a94:	f005 fd53 	bl	800653e <LCD_ShowPicture>
 8000a98:	2300      	movs	r3, #0
 8000a9a:	702b      	strb	r3, [r5, #0]
 8000a9c:	f7ff fea6 	bl	80007ec <DRAW_FRAME.part.0>
 8000aa0:	2000      	movs	r0, #0
 8000aa2:	f7ff ff19 	bl	80008d8 <DRAW_DATA>
 8000aa6:	e7d8      	b.n	8000a5a <Start_LED_Task+0x12>
 8000aa8:	40020000 	.word	0x40020000
 8000aac:	20000238 	.word	0x20000238
 8000ab0:	20000000 	.word	0x20000000
 8000ab4:	0800ad1c 	.word	0x0800ad1c

08000ab8 <zuart_tx_process>:
 8000ab8:	e92d 4ff8 	stmdb	sp!, {r3, r4, r5, r6, r7, r8, r9, sl, fp, lr}
 8000abc:	4d2c      	ldr	r5, [pc, #176]	@ (8000b70 <zuart_tx_process+0xb8>)
 8000abe:	782b      	ldrb	r3, [r5, #0]
 8000ac0:	b133      	cbz	r3, 8000ad0 <zuart_tx_process+0x18>
 8000ac2:	4b2c      	ldr	r3, [pc, #176]	@ (8000b74 <zuart_tx_process+0xbc>)
 8000ac4:	f893 303d 	ldrb.w	r3, [r3, #61]	@ 0x3d
 8000ac8:	2b21      	cmp	r3, #33	@ 0x21
 8000aca:	d14e      	bne.n	8000b6a <zuart_tx_process+0xb2>
 8000acc:	e8bd 8ff8 	ldmia.w	sp!, {r3, r4, r5, r6, r7, r8, r9, sl, fp, pc}
 8000ad0:	4a29      	ldr	r2, [pc, #164]	@ (8000b78 <zuart_tx_process+0xc0>)
 8000ad2:	7813      	ldrb	r3, [r2, #0]
 8000ad4:	2b00      	cmp	r3, #0
 8000ad6:	d0f9      	beq.n	8000acc <zuart_tx_process+0x14>
 8000ad8:	4928      	ldr	r1, [pc, #160]	@ (8000b7c <zuart_tx_process+0xc4>)
 8000ada:	f8df b0b8 	ldr.w	fp, [pc, #184]	@ 8000b94 <zuart_tx_process+0xdc>
 8000ade:	780f      	ldrb	r7, [r1, #0]
 8000ae0:	3b01      	subs	r3, #1
 8000ae2:	7013      	strb	r3, [r2, #0]
 8000ae4:	f83b 2017 	ldrh.w	r2, [fp, r7, lsl #1]
 8000ae8:	1c78      	adds	r0, r7, #1
 8000aea:	f04f 0a01 	mov.w	sl, #1
 8000aee:	7008      	strb	r0, [r1, #0]
 8000af0:	f885 a000 	strb.w	sl, [r5]
 8000af4:	2a00      	cmp	r2, #0
 8000af6:	d0e9      	beq.n	8000acc <zuart_tx_process+0x14>
 8000af8:	4e21      	ldr	r6, [pc, #132]	@ (8000b80 <zuart_tx_process+0xc8>)
 8000afa:	f8df 909c 	ldr.w	r9, [pc, #156]	@ 8000b98 <zuart_tx_process+0xe0>
 8000afe:	481d      	ldr	r0, [pc, #116]	@ (8000b74 <zuart_tx_process+0xbc>)
 8000b00:	eb06 1687 	add.w	r6, r6, r7, lsl #6
 8000b04:	4631      	mov	r1, r6
 8000b06:	f004 fa8b 	bl	8005020 <HAL_UART_Transmit_DMA>
 8000b0a:	f899 4000 	ldrb.w	r4, [r9]
 8000b0e:	4a1d      	ldr	r2, [pc, #116]	@ (8000b84 <zuart_tx_process+0xcc>)
 8000b10:	eb04 0384 	add.w	r3, r4, r4, lsl #2
 8000b14:	eb03 0383 	add.w	r3, r3, r3, lsl #2
 8000b18:	4413      	add	r3, r2
 8000b1a:	2120      	movs	r1, #32
 8000b1c:	2218      	movs	r2, #24
 8000b1e:	4680      	mov	r8, r0
 8000b20:	4618      	mov	r0, r3
 8000b22:	f009 f97f 	bl	8009e24 <memset>
 8000b26:	f83b 7017 	ldrh.w	r7, [fp, r7, lsl #1]
 8000b2a:	2f18      	cmp	r7, #24
 8000b2c:	463a      	mov	r2, r7
 8000b2e:	4631      	mov	r1, r6
 8000b30:	bf28      	it	cs
 8000b32:	2218      	movcs	r2, #24
 8000b34:	f009 f9aa 	bl	8009e8c <memcpy>
 8000b38:	4b13      	ldr	r3, [pc, #76]	@ (8000b88 <zuart_tx_process+0xd0>)
 8000b3a:	f803 a004 	strb.w	sl, [r3, r4]
 8000b3e:	4b13      	ldr	r3, [pc, #76]	@ (8000b8c <zuart_tx_process+0xd4>)
 8000b40:	551f      	strb	r7, [r3, r4]
 8000b42:	4b13      	ldr	r3, [pc, #76]	@ (8000b90 <zuart_tx_process+0xd8>)
 8000b44:	881a      	ldrh	r2, [r3, #0]
 8000b46:	4417      	add	r7, r2
 8000b48:	4454      	add	r4, sl
 8000b4a:	801f      	strh	r7, [r3, #0]
 8000b4c:	2307      	movs	r3, #7
 8000b4e:	fbb4 f3f3 	udiv	r3, r4, r3
 8000b52:	ebc3 03c3 	rsb	r3, r3, r3, lsl #3
 8000b56:	1ae4      	subs	r4, r4, r3
 8000b58:	f889 4000 	strb.w	r4, [r9]
 8000b5c:	f1b8 0f00 	cmp.w	r8, #0
 8000b60:	d1b4      	bne.n	8000acc <zuart_tx_process+0x14>
 8000b62:	782b      	ldrb	r3, [r5, #0]
 8000b64:	2b00      	cmp	r3, #0
 8000b66:	d0b1      	beq.n	8000acc <zuart_tx_process+0x14>
 8000b68:	e7ab      	b.n	8000ac2 <zuart_tx_process+0xa>
 8000b6a:	2300      	movs	r3, #0
 8000b6c:	702b      	strb	r3, [r5, #0]
 8000b6e:	e7ad      	b.n	8000acc <zuart_tx_process+0x14>
 8000b70:	20005358 	.word	0x20005358
 8000b74:	20000a64 	.word	0x20000a64
 8000b78:	20005359 	.word	0x20005359
 8000b7c:	2000535a 	.word	0x2000535a
 8000b80:	2000555c 	.word	0x2000555c
 8000b84:	200006cb 	.word	0x200006cb
 8000b88:	200006bd 	.word	0x200006bd
 8000b8c:	200006c4 	.word	0x200006c4
 8000b90:	200006ba 	.word	0x200006ba
 8000b94:	2000535c 	.word	0x2000535c
 8000b98:	200006bc 	.word	0x200006bc

08000b9c <StartDefaultTask>:
 8000b9c:	b583      	push	{r0, r1, r7, lr}
 8000b9e:	2300      	movs	r3, #0
 8000ba0:	4d16      	ldr	r5, [pc, #88]	@ (8000bfc <StartDefaultTask+0x60>)
 8000ba2:	f88d 3007 	strb.w	r3, [sp, #7]
 8000ba6:	4c16      	ldr	r4, [pc, #88]	@ (8000c00 <StartDefaultTask+0x64>)
 8000ba8:	4e16      	ldr	r6, [pc, #88]	@ (8000c04 <StartDefaultTask+0x68>)
 8000baa:	4f17      	ldr	r7, [pc, #92]	@ (8000c08 <StartDefaultTask+0x6c>)
 8000bac:	f006 fc30 	bl	8007410 <MX_USB_DEVICE_Init>
 8000bb0:	2301      	movs	r3, #1
 8000bb2:	702b      	strb	r3, [r5, #0]
 8000bb4:	2303      	movs	r3, #3
 8000bb6:	7023      	strb	r3, [r4, #0]
 8000bb8:	f008 fc1c 	bl	80093f4 <xTaskGetTickCount>
 8000bbc:	6030      	str	r0, [r6, #0]
 8000bbe:	2101      	movs	r1, #1
 8000bc0:	4630      	mov	r0, r6
 8000bc2:	f008 fd2f 	bl	8009624 <vTaskDelayUntil>
 8000bc6:	7c6b      	ldrb	r3, [r5, #17]
 8000bc8:	783a      	ldrb	r2, [r7, #0]
 8000bca:	429a      	cmp	r2, r3
 8000bcc:	d00e      	beq.n	8000bec <StartDefaultTask+0x50>
 8000bce:	f8df 9030 	ldr.w	r9, [pc, #48]	@ 8000c00 <StartDefaultTask+0x64>
 8000bd2:	f8df 8038 	ldr.w	r8, [pc, #56]	@ 8000c0c <StartDefaultTask+0x70>
 8000bd6:	7063      	strb	r3, [r4, #1]
 8000bd8:	2202      	movs	r2, #2
 8000bda:	4649      	mov	r1, r9
 8000bdc:	4640      	mov	r0, r8
 8000bde:	f007 faf9 	bl	80081d4 <USBD_CUSTOM_HID_SendReport>
 8000be2:	2800      	cmp	r0, #0
 8000be4:	d1f8      	bne.n	8000bd8 <StartDefaultTask+0x3c>
 8000be6:	7863      	ldrb	r3, [r4, #1]
 8000be8:	703b      	strb	r3, [r7, #0]
 8000bea:	e7e8      	b.n	8000bbe <StartDefaultTask+0x22>
 8000bec:	4903      	ldr	r1, [pc, #12]	@ (8000bfc <StartDefaultTask+0x60>)
 8000bee:	4807      	ldr	r0, [pc, #28]	@ (8000c0c <StartDefaultTask+0x70>)
 8000bf0:	2211      	movs	r2, #17
 8000bf2:	f007 faef 	bl	80081d4 <USBD_CUSTOM_HID_SendReport>
 8000bf6:	f7ff ff5f 	bl	8000ab8 <zuart_tx_process>
 8000bfa:	e7e0      	b.n	8000bbe <StartDefaultTask+0x22>
 8000bfc:	2000077a 	.word	0x2000077a
 8000c00:	200006a8 	.word	0x200006a8
 8000c04:	200006a4 	.word	0x200006a4
 8000c08:	200006a0 	.word	0x200006a0
 8000c0c:	20009674 	.word	0x20009674

08000c10 <MX_GPIO_Init>:
 8000c10:	e92d 43f0 	stmdb	sp!, {r4, r5, r6, r7, r8, r9, lr}
 8000c14:	2214      	movs	r2, #20
 8000c16:	b08b      	sub	sp, #44	@ 0x2c
 8000c18:	eb0d 0002 	add.w	r0, sp, r2
 8000c1c:	2100      	movs	r1, #0
 8000c1e:	f009 f901 	bl	8009e24 <memset>
 8000c22:	2400      	movs	r4, #0
 8000c24:	4b69      	ldr	r3, [pc, #420]	@ (8000dcc <MX_GPIO_Init+0x1bc>)
 8000c26:	9400      	str	r4, [sp, #0]
 8000c28:	6b1a      	ldr	r2, [r3, #48]	@ 0x30
 8000c2a:	4e69      	ldr	r6, [pc, #420]	@ (8000dd0 <MX_GPIO_Init+0x1c0>)
 8000c2c:	f8df 91a8 	ldr.w	r9, [pc, #424]	@ 8000dd8 <MX_GPIO_Init+0x1c8>
 8000c30:	f8df 81a8 	ldr.w	r8, [pc, #424]	@ 8000ddc <MX_GPIO_Init+0x1cc>
 8000c34:	f042 0204 	orr.w	r2, r2, #4
 8000c38:	631a      	str	r2, [r3, #48]	@ 0x30
 8000c3a:	6b1a      	ldr	r2, [r3, #48]	@ 0x30
 8000c3c:	f002 0204 	and.w	r2, r2, #4
 8000c40:	9200      	str	r2, [sp, #0]
 8000c42:	9a00      	ldr	r2, [sp, #0]
 8000c44:	9401      	str	r4, [sp, #4]
 8000c46:	6b1a      	ldr	r2, [r3, #48]	@ 0x30
 8000c48:	f042 0280 	orr.w	r2, r2, #128	@ 0x80
 8000c4c:	631a      	str	r2, [r3, #48]	@ 0x30
 8000c4e:	6b1a      	ldr	r2, [r3, #48]	@ 0x30
 8000c50:	f002 0280 	and.w	r2, r2, #128	@ 0x80
 8000c54:	9201      	str	r2, [sp, #4]
 8000c56:	9a01      	ldr	r2, [sp, #4]
 8000c58:	9402      	str	r4, [sp, #8]
 8000c5a:	6b1a      	ldr	r2, [r3, #48]	@ 0x30
 8000c5c:	f042 0201 	orr.w	r2, r2, #1
 8000c60:	631a      	str	r2, [r3, #48]	@ 0x30
 8000c62:	6b1a      	ldr	r2, [r3, #48]	@ 0x30
 8000c64:	f002 0201 	and.w	r2, r2, #1
 8000c68:	9202      	str	r2, [sp, #8]
 8000c6a:	9a02      	ldr	r2, [sp, #8]
 8000c6c:	9403      	str	r4, [sp, #12]
 8000c6e:	6b1a      	ldr	r2, [r3, #48]	@ 0x30
 8000c70:	f042 0202 	orr.w	r2, r2, #2
 8000c74:	631a      	str	r2, [r3, #48]	@ 0x30
 8000c76:	6b1a      	ldr	r2, [r3, #48]	@ 0x30
 8000c78:	f002 0202 	and.w	r2, r2, #2
 8000c7c:	9203      	str	r2, [sp, #12]
 8000c7e:	9a03      	ldr	r2, [sp, #12]
 8000c80:	9404      	str	r4, [sp, #16]
 8000c82:	6b1a      	ldr	r2, [r3, #48]	@ 0x30
 8000c84:	f042 0208 	orr.w	r2, r2, #8
 8000c88:	631a      	str	r2, [r3, #48]	@ 0x30
 8000c8a:	6b1b      	ldr	r3, [r3, #48]	@ 0x30
 8000c8c:	f003 0308 	and.w	r3, r3, #8
 8000c90:	9304      	str	r3, [sp, #16]
 8000c92:	4630      	mov	r0, r6
 8000c94:	2201      	movs	r2, #1
 8000c96:	f44f 5110 	mov.w	r1, #9216	@ 0x2400
 8000c9a:	9b04      	ldr	r3, [sp, #16]
 8000c9c:	f001 fc9a 	bl	80025d4 <HAL_GPIO_WritePin>
 8000ca0:	4648      	mov	r0, r9
 8000ca2:	2201      	movs	r2, #1
 8000ca4:	f248 01c1 	movw	r1, #32961	@ 0x80c1
 8000ca8:	f001 fc94 	bl	80025d4 <HAL_GPIO_WritePin>
 8000cac:	4622      	mov	r2, r4
 8000cae:	4640      	mov	r0, r8
 8000cb0:	f44f 41a0 	mov.w	r1, #20480	@ 0x5000
 8000cb4:	f001 fc8e 	bl	80025d4 <HAL_GPIO_WritePin>
 8000cb8:	4622      	mov	r2, r4
 8000cba:	4630      	mov	r0, r6
 8000cbc:	f44f 7180 	mov.w	r1, #256	@ 0x100
 8000cc0:	f001 fc88 	bl	80025d4 <HAL_GPIO_WritePin>
 8000cc4:	2201      	movs	r2, #1
 8000cc6:	4640      	mov	r0, r8
 8000cc8:	2120      	movs	r1, #32
 8000cca:	2501      	movs	r5, #1
 8000ccc:	f001 fc82 	bl	80025d4 <HAL_GPIO_WritePin>
 8000cd0:	f44f 5300 	mov.w	r3, #8192	@ 0x2000
 8000cd4:	a905      	add	r1, sp, #20
 8000cd6:	4630      	mov	r0, r6
 8000cd8:	2703      	movs	r7, #3
 8000cda:	e9cd 3505 	strd	r3, r5, [sp, #20]
 8000cde:	e9cd 5407 	strd	r5, r4, [sp, #28]
 8000ce2:	f001 fa91 	bl	8002208 <HAL_GPIO_Init>
 8000ce6:	f24c 033f 	movw	r3, #49215	@ 0xc03f
 8000cea:	a905      	add	r1, sp, #20
 8000cec:	4630      	mov	r0, r6
 8000cee:	e9cd 3705 	strd	r3, r7, [sp, #20]
 8000cf2:	9407      	str	r4, [sp, #28]
 8000cf4:	f001 fa88 	bl	8002208 <HAL_GPIO_Init>
 8000cf8:	f248 0301 	movw	r3, #32769	@ 0x8001
 8000cfc:	a905      	add	r1, sp, #20
 8000cfe:	4648      	mov	r0, r9
 8000d00:	e9cd 3505 	strd	r3, r5, [sp, #20]
 8000d04:	e9cd 4707 	strd	r4, r7, [sp, #28]
 8000d08:	f001 fa7e 	bl	8002208 <HAL_GPIO_Init>
 8000d0c:	233e      	movs	r3, #62	@ 0x3e
 8000d0e:	a905      	add	r1, sp, #20
 8000d10:	4648      	mov	r0, r9
 8000d12:	e9cd 3405 	strd	r3, r4, [sp, #20]
 8000d16:	9507      	str	r5, [sp, #28]
 8000d18:	f001 fa76 	bl	8002208 <HAL_GPIO_Init>
 8000d1c:	22c0      	movs	r2, #192	@ 0xc0
 8000d1e:	2311      	movs	r3, #17
 8000d20:	a905      	add	r1, sp, #20
 8000d22:	4648      	mov	r0, r9
 8000d24:	e9cd 2305 	strd	r2, r3, [sp, #20]
 8000d28:	e9cd 5407 	strd	r5, r4, [sp, #28]
 8000d2c:	f001 fa6c 	bl	8002208 <HAL_GPIO_Init>
 8000d30:	f240 4307 	movw	r3, #1031	@ 0x407
 8000d34:	a905      	add	r1, sp, #20
 8000d36:	4640      	mov	r0, r8
 8000d38:	e9cd 3705 	strd	r3, r7, [sp, #20]
 8000d3c:	9407      	str	r4, [sp, #28]
 8000d3e:	f001 fa63 	bl	8002208 <HAL_GPIO_Init>
 8000d42:	f245 0320 	movw	r3, #20512	@ 0x5020
 8000d46:	a905      	add	r1, sp, #20
 8000d48:	4640      	mov	r0, r8
 8000d4a:	e9cd 3505 	strd	r3, r5, [sp, #20]
 8000d4e:	e9cd 4707 	strd	r4, r7, [sp, #28]
 8000d52:	f001 fa59 	bl	8002208 <HAL_GPIO_Init>
 8000d56:	f44f 7380 	mov.w	r3, #256	@ 0x100
 8000d5a:	a905      	add	r1, sp, #20
 8000d5c:	4630      	mov	r0, r6
 8000d5e:	e9cd 3505 	strd	r3, r5, [sp, #20]
 8000d62:	e9cd 4707 	strd	r4, r7, [sp, #28]
 8000d66:	f001 fa4f 	bl	8002208 <HAL_GPIO_Init>
 8000d6a:	f44f 63c0 	mov.w	r3, #1536	@ 0x600
 8000d6e:	a905      	add	r1, sp, #20
 8000d70:	4648      	mov	r0, r9
 8000d72:	e9cd 3705 	strd	r3, r7, [sp, #20]
 8000d76:	9407      	str	r4, [sp, #28]
 8000d78:	f001 fa46 	bl	8002208 <HAL_GPIO_Init>
 8000d7c:	f44f 6380 	mov.w	r3, #1024	@ 0x400
 8000d80:	a905      	add	r1, sp, #20
 8000d82:	4630      	mov	r0, r6
 8000d84:	e9cd 3505 	strd	r3, r5, [sp, #20]
 8000d88:	e9cd 5707 	strd	r5, r7, [sp, #28]
 8000d8c:	f001 fa3c 	bl	8002208 <HAL_GPIO_Init>
 8000d90:	f44f 53c0 	mov.w	r3, #6144	@ 0x1800
 8000d94:	a905      	add	r1, sp, #20
 8000d96:	4630      	mov	r0, r6
 8000d98:	e9cd 3405 	strd	r3, r4, [sp, #20]
 8000d9c:	9507      	str	r5, [sp, #28]
 8000d9e:	f001 fa33 	bl	8002208 <HAL_GPIO_Init>
 8000da2:	2304      	movs	r3, #4
 8000da4:	a905      	add	r1, sp, #20
 8000da6:	480b      	ldr	r0, [pc, #44]	@ (8000dd4 <MX_GPIO_Init+0x1c4>)
 8000da8:	9507      	str	r5, [sp, #28]
 8000daa:	e9cd 3405 	strd	r3, r4, [sp, #20]
 8000dae:	f001 fa2b 	bl	8002208 <HAL_GPIO_Init>
 8000db2:	f44f 7376 	mov.w	r3, #984	@ 0x3d8
 8000db6:	a905      	add	r1, sp, #20
 8000db8:	4640      	mov	r0, r8
 8000dba:	e9cd 3405 	strd	r3, r4, [sp, #20]
 8000dbe:	9507      	str	r5, [sp, #28]
 8000dc0:	f001 fa22 	bl	8002208 <HAL_GPIO_Init>
 8000dc4:	b00b      	add	sp, #44	@ 0x2c
 8000dc6:	e8bd 83f0 	ldmia.w	sp!, {r4, r5, r6, r7, r8, r9, pc}
 8000dca:	bf00      	nop
 8000dcc:	40023800 	.word	0x40023800
 8000dd0:	40020800 	.word	0x40020800
 8000dd4:	40020c00 	.word	0x40020c00
 8000dd8:	40020000 	.word	0x40020000
 8000ddc:	40020400 	.word	0x40020400

08000de0 <MX_I2C3_Init>:
 8000de0:	b508      	push	{r3, lr}
 8000de2:	480b      	ldr	r0, [pc, #44]	@ (8000e10 <MX_I2C3_Init+0x30>)
 8000de4:	4a0b      	ldr	r2, [pc, #44]	@ (8000e14 <MX_I2C3_Init+0x34>)
 8000de6:	4b0c      	ldr	r3, [pc, #48]	@ (8000e18 <MX_I2C3_Init+0x38>)
 8000de8:	e9c0 2300 	strd	r2, r3, [r0]
 8000dec:	2300      	movs	r3, #0
 8000dee:	f44f 4280 	mov.w	r2, #16384	@ 0x4000
 8000df2:	e9c0 3302 	strd	r3, r3, [r0, #8]
 8000df6:	e9c0 2304 	strd	r2, r3, [r0, #16]
 8000dfa:	e9c0 3306 	strd	r3, r3, [r0, #24]
 8000dfe:	6203      	str	r3, [r0, #32]
 8000e00:	f001 fc16 	bl	8002630 <HAL_I2C_Init>
 8000e04:	b118      	cbz	r0, 8000e0e <MX_I2C3_Init+0x2e>
 8000e06:	e8bd 4008 	ldmia.w	sp!, {r3, lr}
 8000e0a:	f000 b92f 	b.w	800106c <Error_Handler>
 8000e0e:	bd08      	pop	{r3, pc}
 8000e10:	2000084c 	.word	0x2000084c
 8000e14:	40005c00 	.word	0x40005c00
 8000e18:	000186a0 	.word	0x000186a0

08000e1c <HAL_I2C_MspInit>:
 8000e1c:	e92d 43f0 	stmdb	sp!, {r4, r5, r6, r7, r8, r9, lr}
 8000e20:	4606      	mov	r6, r0
 8000e22:	b089      	sub	sp, #36	@ 0x24
 8000e24:	2214      	movs	r2, #20
 8000e26:	2100      	movs	r1, #0
 8000e28:	a803      	add	r0, sp, #12
 8000e2a:	f008 fffb 	bl	8009e24 <memset>
 8000e2e:	6832      	ldr	r2, [r6, #0]
 8000e30:	4b3e      	ldr	r3, [pc, #248]	@ (8000f2c <HAL_I2C_MspInit+0x110>)
 8000e32:	429a      	cmp	r2, r3
 8000e34:	d177      	bne.n	8000f26 <HAL_I2C_MspInit+0x10a>
 8000e36:	4c3e      	ldr	r4, [pc, #248]	@ (8000f30 <HAL_I2C_MspInit+0x114>)
 8000e38:	483e      	ldr	r0, [pc, #248]	@ (8000f34 <HAL_I2C_MspInit+0x118>)
 8000e3a:	2500      	movs	r5, #0
 8000e3c:	9500      	str	r5, [sp, #0]
 8000e3e:	6b23      	ldr	r3, [r4, #48]	@ 0x30
 8000e40:	f043 0304 	orr.w	r3, r3, #4
 8000e44:	6323      	str	r3, [r4, #48]	@ 0x30
 8000e46:	6b23      	ldr	r3, [r4, #48]	@ 0x30
 8000e48:	f003 0304 	and.w	r3, r3, #4
 8000e4c:	9300      	str	r3, [sp, #0]
 8000e4e:	9b00      	ldr	r3, [sp, #0]
 8000e50:	9501      	str	r5, [sp, #4]
 8000e52:	6b23      	ldr	r3, [r4, #48]	@ 0x30
 8000e54:	f043 0301 	orr.w	r3, r3, #1
 8000e58:	6323      	str	r3, [r4, #48]	@ 0x30
 8000e5a:	6b23      	ldr	r3, [r4, #48]	@ 0x30
 8000e5c:	f003 0301 	and.w	r3, r3, #1
 8000e60:	9301      	str	r3, [sp, #4]
 8000e62:	9b01      	ldr	r3, [sp, #4]
 8000e64:	f04f 0912 	mov.w	r9, #18
 8000e68:	f44f 7300 	mov.w	r3, #512	@ 0x200
 8000e6c:	f04f 0803 	mov.w	r8, #3
 8000e70:	2704      	movs	r7, #4
 8000e72:	a903      	add	r1, sp, #12
 8000e74:	e9cd 3903 	strd	r3, r9, [sp, #12]
 8000e78:	e9cd 8706 	strd	r8, r7, [sp, #24]
 8000e7c:	f001 f9c4 	bl	8002208 <HAL_GPIO_Init>
 8000e80:	f44f 7380 	mov.w	r3, #256	@ 0x100
 8000e84:	482c      	ldr	r0, [pc, #176]	@ (8000f38 <HAL_I2C_MspInit+0x11c>)
 8000e86:	9707      	str	r7, [sp, #28]
 8000e88:	a903      	add	r1, sp, #12
 8000e8a:	e9cd 3903 	strd	r3, r9, [sp, #12]
 8000e8e:	e9cd 5805 	strd	r5, r8, [sp, #20]
 8000e92:	f001 f9b9 	bl	8002208 <HAL_GPIO_Init>
 8000e96:	9502      	str	r5, [sp, #8]
 8000e98:	6c23      	ldr	r3, [r4, #64]	@ 0x40
 8000e9a:	4828      	ldr	r0, [pc, #160]	@ (8000f3c <HAL_I2C_MspInit+0x120>)
 8000e9c:	f443 0300 	orr.w	r3, r3, #8388608	@ 0x800000
 8000ea0:	6423      	str	r3, [r4, #64]	@ 0x40
 8000ea2:	6c23      	ldr	r3, [r4, #64]	@ 0x40
 8000ea4:	4c26      	ldr	r4, [pc, #152]	@ (8000f40 <HAL_I2C_MspInit+0x124>)
 8000ea6:	f403 0300 	and.w	r3, r3, #8388608	@ 0x800000
 8000eaa:	9302      	str	r3, [sp, #8]
 8000eac:	9b02      	ldr	r3, [sp, #8]
 8000eae:	f04f 7300 	mov.w	r3, #33554432	@ 0x2000000
 8000eb2:	e9c4 0300 	strd	r0, r3, [r4]
 8000eb6:	f44f 6380 	mov.w	r3, #1024	@ 0x400
 8000eba:	e9c4 3504 	strd	r3, r5, [r4, #16]
 8000ebe:	4620      	mov	r0, r4
 8000ec0:	f44f 3300 	mov.w	r3, #131072	@ 0x20000
 8000ec4:	e9c4 5502 	strd	r5, r5, [r4, #8]
 8000ec8:	e9c4 5506 	strd	r5, r5, [r4, #24]
 8000ecc:	e9c4 3508 	strd	r3, r5, [r4, #32]
 8000ed0:	f000 fea8 	bl	8001c24 <HAL_DMA_Init>
 8000ed4:	b108      	cbz	r0, 8000eda <HAL_I2C_MspInit+0xbe>
 8000ed6:	f000 f8c9 	bl	800106c <Error_Handler>
 8000eda:	4a1a      	ldr	r2, [pc, #104]	@ (8000f44 <HAL_I2C_MspInit+0x128>)
 8000edc:	63b4      	str	r4, [r6, #56]	@ 0x38
 8000ede:	63a6      	str	r6, [r4, #56]	@ 0x38
 8000ee0:	4c19      	ldr	r4, [pc, #100]	@ (8000f48 <HAL_I2C_MspInit+0x12c>)
 8000ee2:	f04f 6340 	mov.w	r3, #201326592	@ 0xc000000
 8000ee6:	e9c4 2300 	strd	r2, r3, [r4]
 8000eea:	2300      	movs	r3, #0
 8000eec:	f44f 6280 	mov.w	r2, #1024	@ 0x400
 8000ef0:	e9c4 2304 	strd	r2, r3, [r4, #16]
 8000ef4:	2140      	movs	r1, #64	@ 0x40
 8000ef6:	f44f 3200 	mov.w	r2, #131072	@ 0x20000
 8000efa:	4620      	mov	r0, r4
 8000efc:	e9c4 1302 	strd	r1, r3, [r4, #8]
 8000f00:	e9c4 3306 	strd	r3, r3, [r4, #24]
 8000f04:	e9c4 2308 	strd	r2, r3, [r4, #32]
 8000f08:	f000 fe8c 	bl	8001c24 <HAL_DMA_Init>
 8000f0c:	b108      	cbz	r0, 8000f12 <HAL_I2C_MspInit+0xf6>
 8000f0e:	f000 f8ad 	bl	800106c <Error_Handler>
 8000f12:	6374      	str	r4, [r6, #52]	@ 0x34
 8000f14:	2048      	movs	r0, #72	@ 0x48
 8000f16:	2200      	movs	r2, #0
 8000f18:	2105      	movs	r1, #5
 8000f1a:	63a6      	str	r6, [r4, #56]	@ 0x38
 8000f1c:	f000 fde0 	bl	8001ae0 <HAL_NVIC_SetPriority>
 8000f20:	2048      	movs	r0, #72	@ 0x48
 8000f22:	f000 fe1f 	bl	8001b64 <HAL_NVIC_EnableIRQ>
 8000f26:	b009      	add	sp, #36	@ 0x24
 8000f28:	e8bd 83f0 	ldmia.w	sp!, {r4, r5, r6, r7, r8, r9, pc}
 8000f2c:	40005c00 	.word	0x40005c00
 8000f30:	40023800 	.word	0x40023800
 8000f34:	40020800 	.word	0x40020800
 8000f38:	40020000 	.word	0x40020000
 8000f3c:	40026028 	.word	0x40026028
 8000f40:	200007ec 	.word	0x200007ec
 8000f44:	40026088 	.word	0x40026088
 8000f48:	2000078c 	.word	0x2000078c

08000f4c <SystemClock_Config>:
 8000f4c:	b510      	push	{r4, lr}
 8000f4e:	b094      	sub	sp, #80	@ 0x50
 8000f50:	2210      	movs	r2, #16
 8000f52:	2100      	movs	r1, #0
 8000f54:	a80a      	add	r0, sp, #40	@ 0x28
 8000f56:	f008 ff65 	bl	8009e24 <memset>
 8000f5a:	2214      	movs	r2, #20
 8000f5c:	2100      	movs	r1, #0
 8000f5e:	a803      	add	r0, sp, #12
 8000f60:	f008 ff60 	bl	8009e24 <memset>
 8000f64:	4b21      	ldr	r3, [pc, #132]	@ (8000fec <SystemClock_Config+0xa0>)
 8000f66:	2100      	movs	r1, #0
 8000f68:	9101      	str	r1, [sp, #4]
 8000f6a:	6c1a      	ldr	r2, [r3, #64]	@ 0x40
 8000f6c:	f042 5280 	orr.w	r2, r2, #268435456	@ 0x10000000
 8000f70:	641a      	str	r2, [r3, #64]	@ 0x40
 8000f72:	6c1b      	ldr	r3, [r3, #64]	@ 0x40
 8000f74:	4a1e      	ldr	r2, [pc, #120]	@ (8000ff0 <SystemClock_Config+0xa4>)
 8000f76:	f003 5380 	and.w	r3, r3, #268435456	@ 0x10000000
 8000f7a:	9301      	str	r3, [sp, #4]
 8000f7c:	9b01      	ldr	r3, [sp, #4]
 8000f7e:	9102      	str	r1, [sp, #8]
 8000f80:	6813      	ldr	r3, [r2, #0]
 8000f82:	f423 4340 	bic.w	r3, r3, #49152	@ 0xc000
 8000f86:	f443 4300 	orr.w	r3, r3, #32768	@ 0x8000
 8000f8a:	6013      	str	r3, [r2, #0]
 8000f8c:	6813      	ldr	r3, [r2, #0]
 8000f8e:	f403 4340 	and.w	r3, r3, #49152	@ 0xc000
 8000f92:	9302      	str	r3, [sp, #8]
 8000f94:	9b02      	ldr	r3, [sp, #8]
 8000f96:	2201      	movs	r2, #1
 8000f98:	f44f 3380 	mov.w	r3, #65536	@ 0x10000
 8000f9c:	e9cd 2308 	strd	r2, r3, [sp, #32]
 8000fa0:	2402      	movs	r4, #2
 8000fa2:	f44f 0380 	mov.w	r3, #4194304	@ 0x400000
 8000fa6:	e9cd 430e 	strd	r4, r3, [sp, #56]	@ 0x38
 8000faa:	2119      	movs	r1, #25
 8000fac:	f44f 73a8 	mov.w	r3, #336	@ 0x150
 8000fb0:	2004      	movs	r0, #4
 8000fb2:	e9cd 1310 	strd	r1, r3, [sp, #64]	@ 0x40
 8000fb6:	2307      	movs	r3, #7
 8000fb8:	e9cd 0312 	strd	r0, r3, [sp, #72]	@ 0x48
 8000fbc:	a808      	add	r0, sp, #32
 8000fbe:	f002 ff43 	bl	8003e48 <HAL_RCC_OscConfig>
 8000fc2:	b108      	cbz	r0, 8000fc8 <SystemClock_Config+0x7c>
 8000fc4:	b672      	cpsid	i
 8000fc6:	e7fe      	b.n	8000fc6 <SystemClock_Config+0x7a>
 8000fc8:	230f      	movs	r3, #15
 8000fca:	e9cd 3403 	strd	r3, r4, [sp, #12]
 8000fce:	f44f 5380 	mov.w	r3, #4096	@ 0x1000
 8000fd2:	e9cd 3006 	strd	r3, r0, [sp, #24]
 8000fd6:	9005      	str	r0, [sp, #20]
 8000fd8:	4621      	mov	r1, r4
 8000fda:	a803      	add	r0, sp, #12
 8000fdc:	f003 f984 	bl	80042e8 <HAL_RCC_ClockConfig>
 8000fe0:	b108      	cbz	r0, 8000fe6 <SystemClock_Config+0x9a>
 8000fe2:	b672      	cpsid	i
 8000fe4:	e7fe      	b.n	8000fe4 <SystemClock_Config+0x98>
 8000fe6:	b014      	add	sp, #80	@ 0x50
 8000fe8:	bd10      	pop	{r4, pc}
 8000fea:	bf00      	nop
 8000fec:	40023800 	.word	0x40023800
 8000ff0:	40007000 	.word	0x40007000

08000ff4 <main>:
 8000ff4:	b500      	push	{lr}
 8000ff6:	4c17      	ldr	r4, [pc, #92]	@ (8001054 <main+0x60>)
 8000ff8:	b093      	sub	sp, #76	@ 0x4c
 8000ffa:	f000 fb31 	bl	8001660 <HAL_Init>
 8000ffe:	f7ff ffa5 	bl	8000f4c <SystemClock_Config>
 8001002:	f7ff fe05 	bl	8000c10 <MX_GPIO_Init>
 8001006:	f7ff fb4d 	bl	80006a4 <MX_DMA_Init>
 800100a:	f7ff fad7 	bl	80005bc <MX_ADC1_Init>
 800100e:	f7ff fb21 	bl	8000654 <MX_CRC_Init>
 8001012:	f7ff fee5 	bl	8000de0 <MX_I2C3_Init>
 8001016:	f000 f82d 	bl	8001074 <MX_SPI2_Init>
 800101a:	f000 f965 	bl	80012e8 <MX_USART6_UART_Init>
 800101e:	f000 fa8d 	bl	800153c <MX_USB_OTG_FS_PCD_Init>
 8001022:	2248      	movs	r2, #72	@ 0x48
 8001024:	f104 0110 	add.w	r1, r4, #16
 8001028:	4668      	mov	r0, sp
 800102a:	f008 ff2f 	bl	8009e8c <memcpy>
 800102e:	e894 000f 	ldmia.w	r4, {r0, r1, r2, r3}
 8001032:	f005 fb1f 	bl	8006674 <LCD_Init>
 8001036:	2100      	movs	r1, #0
 8001038:	9100      	str	r1, [sp, #0]
 800103a:	f44f 73a0 	mov.w	r3, #320	@ 0x140
 800103e:	22f0      	movs	r2, #240	@ 0xf0
 8001040:	4608      	mov	r0, r1
 8001042:	f005 f8d5 	bl	80061f0 <LCD_Fill>
 8001046:	f007 f943 	bl	80082d0 <osKernelInitialize>
 800104a:	f7ff fc1b 	bl	8000884 <MX_FREERTOS_Init>
 800104e:	f007 f951 	bl	80082f4 <osKernelStart>
 8001052:	e7fe      	b.n	8001052 <main+0x5e>
 8001054:	20000900 	.word	0x20000900

08001058 <HAL_TIM_PeriodElapsedCallback>:
 8001058:	6802      	ldr	r2, [r0, #0]
 800105a:	4b03      	ldr	r3, [pc, #12]	@ (8001068 <HAL_TIM_PeriodElapsedCallback+0x10>)
 800105c:	429a      	cmp	r2, r3
 800105e:	d101      	bne.n	8001064 <HAL_TIM_PeriodElapsedCallback+0xc>
 8001060:	f000 bb18 	b.w	8001694 <HAL_IncTick>
 8001064:	4770      	bx	lr
 8001066:	bf00      	nop
 8001068:	40010000 	.word	0x40010000

0800106c <Error_Handler>:
 800106c:	b672      	cpsid	i
 800106e:	e7fe      	b.n	800106e <Error_Handler+0x2>

08001070 <assert_failed>:
 8001070:	4770      	bx	lr
	...

08001074 <MX_SPI2_Init>:
 8001074:	480f      	ldr	r0, [pc, #60]	@ (80010b4 <MX_SPI2_Init+0x40>)
 8001076:	4a10      	ldr	r2, [pc, #64]	@ (80010b8 <MX_SPI2_Init+0x44>)
 8001078:	b508      	push	{r3, lr}
 800107a:	f44f 7382 	mov.w	r3, #260	@ 0x104
 800107e:	e9c0 2300 	strd	r2, r3, [r0]
 8001082:	2102      	movs	r1, #2
 8001084:	2300      	movs	r3, #0
 8001086:	2201      	movs	r2, #1
 8001088:	e9c0 3302 	strd	r3, r3, [r0, #8]
 800108c:	e9c0 1204 	strd	r1, r2, [r0, #16]
 8001090:	e9c0 3308 	strd	r3, r3, [r0, #32]
 8001094:	f44f 7c00 	mov.w	ip, #512	@ 0x200
 8001098:	2218      	movs	r2, #24
 800109a:	6283      	str	r3, [r0, #40]	@ 0x28
 800109c:	230a      	movs	r3, #10
 800109e:	e9c0 c206 	strd	ip, r2, [r0, #24]
 80010a2:	62c3      	str	r3, [r0, #44]	@ 0x2c
 80010a4:	f003 fadc 	bl	8004660 <HAL_SPI_Init>
 80010a8:	b118      	cbz	r0, 80010b2 <MX_SPI2_Init+0x3e>
 80010aa:	e8bd 4008 	ldmia.w	sp!, {r3, lr}
 80010ae:	f7ff bfdd 	b.w	800106c <Error_Handler>
 80010b2:	bd08      	pop	{r3, pc}
 80010b4:	20000900 	.word	0x20000900
 80010b8:	40003800 	.word	0x40003800

080010bc <HAL_SPI_MspInit>:
 80010bc:	b570      	push	{r4, r5, r6, lr}
 80010be:	4606      	mov	r6, r0
 80010c0:	b088      	sub	sp, #32
 80010c2:	2214      	movs	r2, #20
 80010c4:	2100      	movs	r1, #0
 80010c6:	a803      	add	r0, sp, #12
 80010c8:	f008 feac 	bl	8009e24 <memset>
 80010cc:	6832      	ldr	r2, [r6, #0]
 80010ce:	4b20      	ldr	r3, [pc, #128]	@ (8001150 <HAL_SPI_MspInit+0x94>)
 80010d0:	429a      	cmp	r2, r3
 80010d2:	d13a      	bne.n	800114a <HAL_SPI_MspInit+0x8e>
 80010d4:	2500      	movs	r5, #0
 80010d6:	f503 3300 	add.w	r3, r3, #131072	@ 0x20000
 80010da:	9501      	str	r5, [sp, #4]
 80010dc:	6c1a      	ldr	r2, [r3, #64]	@ 0x40
 80010de:	481d      	ldr	r0, [pc, #116]	@ (8001154 <HAL_SPI_MspInit+0x98>)
 80010e0:	4c1d      	ldr	r4, [pc, #116]	@ (8001158 <HAL_SPI_MspInit+0x9c>)
 80010e2:	f442 4280 	orr.w	r2, r2, #16384	@ 0x4000
 80010e6:	641a      	str	r2, [r3, #64]	@ 0x40
 80010e8:	6c1a      	ldr	r2, [r3, #64]	@ 0x40
 80010ea:	f402 4280 	and.w	r2, r2, #16384	@ 0x4000
 80010ee:	9201      	str	r2, [sp, #4]
 80010f0:	9a01      	ldr	r2, [sp, #4]
 80010f2:	9502      	str	r5, [sp, #8]
 80010f4:	6b1a      	ldr	r2, [r3, #48]	@ 0x30
 80010f6:	f042 0202 	orr.w	r2, r2, #2
 80010fa:	631a      	str	r2, [r3, #48]	@ 0x30
 80010fc:	6b1b      	ldr	r3, [r3, #48]	@ 0x30
 80010fe:	f003 0302 	and.w	r3, r3, #2
 8001102:	9302      	str	r3, [sp, #8]
 8001104:	9b02      	ldr	r3, [sp, #8]
 8001106:	f44f 4220 	mov.w	r2, #40960	@ 0xa000
 800110a:	2302      	movs	r3, #2
 800110c:	e9cd 2303 	strd	r2, r3, [sp, #12]
 8001110:	2103      	movs	r1, #3
 8001112:	2305      	movs	r3, #5
 8001114:	e9cd 1306 	strd	r1, r3, [sp, #24]
 8001118:	a903      	add	r1, sp, #12
 800111a:	f001 f875 	bl	8002208 <HAL_GPIO_Init>
 800111e:	4b0f      	ldr	r3, [pc, #60]	@ (800115c <HAL_SPI_MspInit+0xa0>)
 8001120:	e9c4 3500 	strd	r3, r5, [r4]
 8001124:	2340      	movs	r3, #64	@ 0x40
 8001126:	e9c4 3502 	strd	r3, r5, [r4, #8]
 800112a:	4620      	mov	r0, r4
 800112c:	f44f 6380 	mov.w	r3, #1024	@ 0x400
 8001130:	e9c4 3504 	strd	r3, r5, [r4, #16]
 8001134:	e9c4 5506 	strd	r5, r5, [r4, #24]
 8001138:	e9c4 5508 	strd	r5, r5, [r4, #32]
 800113c:	f000 fd72 	bl	8001c24 <HAL_DMA_Init>
 8001140:	b108      	cbz	r0, 8001146 <HAL_SPI_MspInit+0x8a>
 8001142:	f7ff ff93 	bl	800106c <Error_Handler>
 8001146:	64b4      	str	r4, [r6, #72]	@ 0x48
 8001148:	63a6      	str	r6, [r4, #56]	@ 0x38
 800114a:	b008      	add	sp, #32
 800114c:	bd70      	pop	{r4, r5, r6, pc}
 800114e:	bf00      	nop
 8001150:	40003800 	.word	0x40003800
 8001154:	40020400 	.word	0x40020400
 8001158:	200008a0 	.word	0x200008a0
 800115c:	40026070 	.word	0x40026070

08001160 <HAL_MspInit>:
 8001160:	b082      	sub	sp, #8
 8001162:	4b0e      	ldr	r3, [pc, #56]	@ (800119c <HAL_MspInit+0x3c>)
 8001164:	2200      	movs	r2, #0
 8001166:	9200      	str	r2, [sp, #0]
 8001168:	6c59      	ldr	r1, [r3, #68]	@ 0x44
 800116a:	f441 4180 	orr.w	r1, r1, #16384	@ 0x4000
 800116e:	6459      	str	r1, [r3, #68]	@ 0x44
 8001170:	6c59      	ldr	r1, [r3, #68]	@ 0x44
 8001172:	f401 4180 	and.w	r1, r1, #16384	@ 0x4000
 8001176:	9100      	str	r1, [sp, #0]
 8001178:	9900      	ldr	r1, [sp, #0]
 800117a:	9201      	str	r2, [sp, #4]
 800117c:	6c19      	ldr	r1, [r3, #64]	@ 0x40
 800117e:	f041 5180 	orr.w	r1, r1, #268435456	@ 0x10000000
 8001182:	6419      	str	r1, [r3, #64]	@ 0x40
 8001184:	6c1b      	ldr	r3, [r3, #64]	@ 0x40
 8001186:	f003 5380 	and.w	r3, r3, #268435456	@ 0x10000000
 800118a:	9301      	str	r3, [sp, #4]
 800118c:	9b01      	ldr	r3, [sp, #4]
 800118e:	210f      	movs	r1, #15
 8001190:	f06f 0001 	mvn.w	r0, #1
 8001194:	b002      	add	sp, #8
 8001196:	f000 bca3 	b.w	8001ae0 <HAL_NVIC_SetPriority>
 800119a:	bf00      	nop
 800119c:	40023800 	.word	0x40023800

080011a0 <HAL_InitTick>:
 80011a0:	b570      	push	{r4, r5, r6, lr}
 80011a2:	b088      	sub	sp, #32
 80011a4:	2400      	movs	r4, #0
 80011a6:	4b1d      	ldr	r3, [pc, #116]	@ (800121c <HAL_InitTick+0x7c>)
 80011a8:	9402      	str	r4, [sp, #8]
 80011aa:	6c5a      	ldr	r2, [r3, #68]	@ 0x44
 80011ac:	4d1c      	ldr	r5, [pc, #112]	@ (8001220 <HAL_InitTick+0x80>)
 80011ae:	f042 0201 	orr.w	r2, r2, #1
 80011b2:	645a      	str	r2, [r3, #68]	@ 0x44
 80011b4:	6c5b      	ldr	r3, [r3, #68]	@ 0x44
 80011b6:	f003 0301 	and.w	r3, r3, #1
 80011ba:	a901      	add	r1, sp, #4
 80011bc:	9302      	str	r3, [sp, #8]
 80011be:	4606      	mov	r6, r0
 80011c0:	a803      	add	r0, sp, #12
 80011c2:	9b02      	ldr	r3, [sp, #8]
 80011c4:	f003 f9aa 	bl	800451c <HAL_RCC_GetClockConfig>
 80011c8:	f003 f998 	bl	80044fc <HAL_RCC_GetPCLK2Freq>
 80011cc:	4b15      	ldr	r3, [pc, #84]	@ (8001224 <HAL_InitTick+0x84>)
 80011ce:	602b      	str	r3, [r5, #0]
 80011d0:	f240 33e7 	movw	r3, #999	@ 0x3e7
 80011d4:	60eb      	str	r3, [r5, #12]
 80011d6:	4b14      	ldr	r3, [pc, #80]	@ (8001228 <HAL_InitTick+0x88>)
 80011d8:	fbb0 f0f3 	udiv	r0, r0, r3
 80011dc:	3801      	subs	r0, #1
 80011de:	6068      	str	r0, [r5, #4]
 80011e0:	4628      	mov	r0, r5
 80011e2:	612c      	str	r4, [r5, #16]
 80011e4:	60ac      	str	r4, [r5, #8]
 80011e6:	61ac      	str	r4, [r5, #24]
 80011e8:	f003 fd42 	bl	8004c70 <HAL_TIM_Base_Init>
 80011ec:	4604      	mov	r4, r0
 80011ee:	b980      	cbnz	r0, 8001212 <HAL_InitTick+0x72>
 80011f0:	4628      	mov	r0, r5
 80011f2:	f003 fc01 	bl	80049f8 <HAL_TIM_Base_Start_IT>
 80011f6:	4604      	mov	r4, r0
 80011f8:	b958      	cbnz	r0, 8001212 <HAL_InitTick+0x72>
 80011fa:	2019      	movs	r0, #25
 80011fc:	f000 fcb2 	bl	8001b64 <HAL_NVIC_EnableIRQ>
 8001200:	2e0f      	cmp	r6, #15
 8001202:	d809      	bhi.n	8001218 <HAL_InitTick+0x78>
 8001204:	4622      	mov	r2, r4
 8001206:	4631      	mov	r1, r6
 8001208:	2019      	movs	r0, #25
 800120a:	f000 fc69 	bl	8001ae0 <HAL_NVIC_SetPriority>
 800120e:	4b07      	ldr	r3, [pc, #28]	@ (800122c <HAL_InitTick+0x8c>)
 8001210:	601e      	str	r6, [r3, #0]
 8001212:	4620      	mov	r0, r4
 8001214:	b008      	add	sp, #32
 8001216:	bd70      	pop	{r4, r5, r6, pc}
 8001218:	2401      	movs	r4, #1
 800121a:	e7fa      	b.n	8001212 <HAL_InitTick+0x72>
 800121c:	40023800 	.word	0x40023800
 8001220:	20000958 	.word	0x20000958
 8001224:	40010000 	.word	0x40010000
 8001228:	000f4240 	.word	0x000f4240
 800122c:	2000000c 	.word	0x2000000c

08001230 <NMI_Handler>:
 8001230:	e7fe      	b.n	8001230 <NMI_Handler>

08001232 <HardFault_Handler>:
 8001232:	e7fe      	b.n	8001232 <HardFault_Handler>

08001234 <MemManage_Handler>:
 8001234:	e7fe      	b.n	8001234 <MemManage_Handler>

08001236 <BusFault_Handler>:
 8001236:	e7fe      	b.n	8001236 <BusFault_Handler>

08001238 <UsageFault_Handler>:
 8001238:	e7fe      	b.n	8001238 <UsageFault_Handler>

0800123a <DebugMon_Handler>:
 800123a:	4770      	bx	lr

0800123c <DMA1_Stream1_IRQHandler>:
 800123c:	4801      	ldr	r0, [pc, #4]	@ (8001244 <DMA1_Stream1_IRQHandler+0x8>)
 800123e:	f000 bf21 	b.w	8002084 <HAL_DMA_IRQHandler>
 8001242:	bf00      	nop
 8001244:	200007ec 	.word	0x200007ec

08001248 <DMA1_Stream4_IRQHandler>:
 8001248:	4801      	ldr	r0, [pc, #4]	@ (8001250 <DMA1_Stream4_IRQHandler+0x8>)
 800124a:	f000 bf1b 	b.w	8002084 <HAL_DMA_IRQHandler>
 800124e:	bf00      	nop
 8001250:	200008a0 	.word	0x200008a0

08001254 <DMA1_Stream5_IRQHandler>:
 8001254:	4801      	ldr	r0, [pc, #4]	@ (800125c <DMA1_Stream5_IRQHandler+0x8>)
 8001256:	f000 bf15 	b.w	8002084 <HAL_DMA_IRQHandler>
 800125a:	bf00      	nop
 800125c:	2000078c 	.word	0x2000078c

08001260 <TIM1_UP_TIM10_IRQHandler>:
 8001260:	4801      	ldr	r0, [pc, #4]	@ (8001268 <TIM1_UP_TIM10_IRQHandler+0x8>)
 8001262:	f003 bc27 	b.w	8004ab4 <HAL_TIM_IRQHandler>
 8001266:	bf00      	nop
 8001268:	20000958 	.word	0x20000958

0800126c <DMA2_Stream1_IRQHandler>:
 800126c:	4801      	ldr	r0, [pc, #4]	@ (8001274 <DMA2_Stream1_IRQHandler+0x8>)
 800126e:	f000 bf09 	b.w	8002084 <HAL_DMA_IRQHandler>
 8001272:	bf00      	nop
 8001274:	20000a04 	.word	0x20000a04

08001278 <OTG_FS_IRQHandler>:
 8001278:	4801      	ldr	r0, [pc, #4]	@ (8001280 <OTG_FS_IRQHandler+0x8>)
 800127a:	f002 ba7d 	b.w	8003778 <HAL_PCD_IRQHandler>
 800127e:	bf00      	nop
 8001280:	20004aa8 	.word	0x20004aa8

08001284 <DMA2_Stream6_IRQHandler>:
 8001284:	4801      	ldr	r0, [pc, #4]	@ (800128c <DMA2_Stream6_IRQHandler+0x8>)
 8001286:	f000 befd 	b.w	8002084 <HAL_DMA_IRQHandler>
 800128a:	bf00      	nop
 800128c:	200009a4 	.word	0x200009a4

08001290 <USART6_IRQHandler>:
 8001290:	4801      	ldr	r0, [pc, #4]	@ (8001298 <USART6_IRQHandler+0x8>)
 8001292:	f004 b863 	b.w	800535c <HAL_UART_IRQHandler>
 8001296:	bf00      	nop
 8001298:	20000a64 	.word	0x20000a64

0800129c <I2C3_EV_IRQHandler>:
 800129c:	4801      	ldr	r0, [pc, #4]	@ (80012a4 <I2C3_EV_IRQHandler+0x8>)
 800129e:	f001 bc37 	b.w	8002b10 <HAL_I2C_EV_IRQHandler>
 80012a2:	bf00      	nop
 80012a4:	2000084c 	.word	0x2000084c

080012a8 <_sbrk>:
 80012a8:	4a0b      	ldr	r2, [pc, #44]	@ (80012d8 <_sbrk+0x30>)
 80012aa:	6811      	ldr	r1, [r2, #0]
 80012ac:	b510      	push	{r4, lr}
 80012ae:	4603      	mov	r3, r0
 80012b0:	b909      	cbnz	r1, 80012b6 <_sbrk+0xe>
 80012b2:	490a      	ldr	r1, [pc, #40]	@ (80012dc <_sbrk+0x34>)
 80012b4:	6011      	str	r1, [r2, #0]
 80012b6:	6810      	ldr	r0, [r2, #0]
 80012b8:	4909      	ldr	r1, [pc, #36]	@ (80012e0 <_sbrk+0x38>)
 80012ba:	4c0a      	ldr	r4, [pc, #40]	@ (80012e4 <_sbrk+0x3c>)
 80012bc:	4403      	add	r3, r0
 80012be:	1b09      	subs	r1, r1, r4
 80012c0:	428b      	cmp	r3, r1
 80012c2:	d906      	bls.n	80012d2 <_sbrk+0x2a>
 80012c4:	f008 fdb6 	bl	8009e34 <__errno>
 80012c8:	230c      	movs	r3, #12
 80012ca:	6003      	str	r3, [r0, #0]
 80012cc:	f04f 30ff 	mov.w	r0, #4294967295
 80012d0:	bd10      	pop	{r4, pc}
 80012d2:	6013      	str	r3, [r2, #0]
 80012d4:	e7fc      	b.n	80012d0 <_sbrk+0x28>
 80012d6:	bf00      	nop
 80012d8:	200009a0 	.word	0x200009a0
 80012dc:	2000e648 	.word	0x2000e648
 80012e0:	20010000 	.word	0x20010000
 80012e4:	00000800 	.word	0x00000800

080012e8 <MX_USART6_UART_Init>:
 80012e8:	480b      	ldr	r0, [pc, #44]	@ (8001318 <MX_USART6_UART_Init+0x30>)
 80012ea:	4a0c      	ldr	r2, [pc, #48]	@ (800131c <MX_USART6_UART_Init+0x34>)
 80012ec:	b508      	push	{r3, lr}
 80012ee:	f44f 33e1 	mov.w	r3, #115200	@ 0x1c200
 80012f2:	e9c0 2300 	strd	r2, r3, [r0]
 80012f6:	2300      	movs	r3, #0
 80012f8:	220c      	movs	r2, #12
 80012fa:	e9c0 3302 	strd	r3, r3, [r0, #8]
 80012fe:	e9c0 2305 	strd	r2, r3, [r0, #20]
 8001302:	6103      	str	r3, [r0, #16]
 8001304:	61c3      	str	r3, [r0, #28]
 8001306:	f003 fde9 	bl	8004edc <HAL_UART_Init>
 800130a:	b118      	cbz	r0, 8001314 <MX_USART6_UART_Init+0x2c>
 800130c:	e8bd 4008 	ldmia.w	sp!, {r3, lr}
 8001310:	f7ff beac 	b.w	800106c <Error_Handler>
 8001314:	bd08      	pop	{r3, pc}
 8001316:	bf00      	nop
 8001318:	20000a64 	.word	0x20000a64
 800131c:	40011400 	.word	0x40011400

08001320 <HAL_UART_MspInit>:
 8001320:	b570      	push	{r4, r5, r6, lr}
 8001322:	4606      	mov	r6, r0
 8001324:	b088      	sub	sp, #32
 8001326:	2214      	movs	r2, #20
 8001328:	2100      	movs	r1, #0
 800132a:	a803      	add	r0, sp, #12
 800132c:	f008 fd7a 	bl	8009e24 <memset>
 8001330:	6832      	ldr	r2, [r6, #0]
 8001332:	4b33      	ldr	r3, [pc, #204]	@ (8001400 <HAL_UART_MspInit+0xe0>)
 8001334:	429a      	cmp	r2, r3
 8001336:	d161      	bne.n	80013fc <HAL_UART_MspInit+0xdc>
 8001338:	2500      	movs	r5, #0
 800133a:	f503 3392 	add.w	r3, r3, #74752	@ 0x12400
 800133e:	9501      	str	r5, [sp, #4]
 8001340:	6c5a      	ldr	r2, [r3, #68]	@ 0x44
 8001342:	f042 0220 	orr.w	r2, r2, #32
 8001346:	645a      	str	r2, [r3, #68]	@ 0x44
 8001348:	6c5a      	ldr	r2, [r3, #68]	@ 0x44
 800134a:	f002 0220 	and.w	r2, r2, #32
 800134e:	9201      	str	r2, [sp, #4]
 8001350:	9a01      	ldr	r2, [sp, #4]
 8001352:	9502      	str	r5, [sp, #8]
 8001354:	6b1a      	ldr	r2, [r3, #48]	@ 0x30
 8001356:	f042 0204 	orr.w	r2, r2, #4
 800135a:	631a      	str	r2, [r3, #48]	@ 0x30
 800135c:	6b1b      	ldr	r3, [r3, #48]	@ 0x30
 800135e:	f003 0304 	and.w	r3, r3, #4
 8001362:	9302      	str	r3, [sp, #8]
 8001364:	9b02      	ldr	r3, [sp, #8]
 8001366:	20c0      	movs	r0, #192	@ 0xc0
 8001368:	2302      	movs	r3, #2
 800136a:	e9cd 0303 	strd	r0, r3, [sp, #12]
 800136e:	2403      	movs	r4, #3
 8001370:	2308      	movs	r3, #8
 8001372:	4824      	ldr	r0, [pc, #144]	@ (8001404 <HAL_UART_MspInit+0xe4>)
 8001374:	a903      	add	r1, sp, #12
 8001376:	e9cd 4306 	strd	r4, r3, [sp, #24]
 800137a:	f000 ff45 	bl	8002208 <HAL_GPIO_Init>
 800137e:	4c22      	ldr	r4, [pc, #136]	@ (8001408 <HAL_UART_MspInit+0xe8>)
 8001380:	f8df c090 	ldr.w	ip, [pc, #144]	@ 8001414 <HAL_UART_MspInit+0xf4>
 8001384:	f04f 6320 	mov.w	r3, #167772160	@ 0xa000000
 8001388:	e9c4 c300 	strd	ip, r3, [r4]
 800138c:	f44f 6380 	mov.w	r3, #1024	@ 0x400
 8001390:	e9c4 3504 	strd	r3, r5, [r4, #16]
 8001394:	4620      	mov	r0, r4
 8001396:	f44f 3300 	mov.w	r3, #131072	@ 0x20000
 800139a:	e9c4 5502 	strd	r5, r5, [r4, #8]
 800139e:	e9c4 5506 	strd	r5, r5, [r4, #24]
 80013a2:	e9c4 3508 	strd	r3, r5, [r4, #32]
 80013a6:	f000 fc3d 	bl	8001c24 <HAL_DMA_Init>
 80013aa:	b108      	cbz	r0, 80013b0 <HAL_UART_MspInit+0x90>
 80013ac:	f7ff fe5e 	bl	800106c <Error_Handler>
 80013b0:	4a16      	ldr	r2, [pc, #88]	@ (800140c <HAL_UART_MspInit+0xec>)
 80013b2:	63b4      	str	r4, [r6, #56]	@ 0x38
 80013b4:	63a6      	str	r6, [r4, #56]	@ 0x38
 80013b6:	4c16      	ldr	r4, [pc, #88]	@ (8001410 <HAL_UART_MspInit+0xf0>)
 80013b8:	f04f 6320 	mov.w	r3, #167772160	@ 0xa000000
 80013bc:	e9c4 2300 	strd	r2, r3, [r4]
 80013c0:	2300      	movs	r3, #0
 80013c2:	f44f 6280 	mov.w	r2, #1024	@ 0x400
 80013c6:	e9c4 2304 	strd	r2, r3, [r4, #16]
 80013ca:	2140      	movs	r1, #64	@ 0x40
 80013cc:	f44f 3200 	mov.w	r2, #131072	@ 0x20000
 80013d0:	4620      	mov	r0, r4
 80013d2:	e9c4 1302 	strd	r1, r3, [r4, #8]
 80013d6:	e9c4 3306 	strd	r3, r3, [r4, #24]
 80013da:	e9c4 2308 	strd	r2, r3, [r4, #32]
 80013de:	f000 fc21 	bl	8001c24 <HAL_DMA_Init>
 80013e2:	b108      	cbz	r0, 80013e8 <HAL_UART_MspInit+0xc8>
 80013e4:	f7ff fe42 	bl	800106c <Error_Handler>
 80013e8:	6374      	str	r4, [r6, #52]	@ 0x34
 80013ea:	2047      	movs	r0, #71	@ 0x47
 80013ec:	2200      	movs	r2, #0
 80013ee:	2105      	movs	r1, #5
 80013f0:	63a6      	str	r6, [r4, #56]	@ 0x38
 80013f2:	f000 fb75 	bl	8001ae0 <HAL_NVIC_SetPriority>
 80013f6:	2047      	movs	r0, #71	@ 0x47
 80013f8:	f000 fbb4 	bl	8001b64 <HAL_NVIC_EnableIRQ>
 80013fc:	b008      	add	sp, #32
 80013fe:	bd70      	pop	{r4, r5, r6, pc}
 8001400:	40011400 	.word	0x40011400
 8001404:	40020800 	.word	0x40020800
 8001408:	20000a04 	.word	0x20000a04
 800140c:	400264a0 	.word	0x400264a0
 8001410:	200009a4 	.word	0x200009a4
 8001414:	40026428 	.word	0x40026428

08001418 <HAL_UART_MspDeInit>:
 8001418:	6802      	ldr	r2, [r0, #0]
 800141a:	4b0d      	ldr	r3, [pc, #52]	@ (8001450 <HAL_UART_MspDeInit+0x38>)
 800141c:	429a      	cmp	r2, r3
 800141e:	b510      	push	{r4, lr}
 8001420:	4604      	mov	r4, r0
 8001422:	d113      	bne.n	800144c <HAL_UART_MspDeInit+0x34>
 8001424:	4a0b      	ldr	r2, [pc, #44]	@ (8001454 <HAL_UART_MspDeInit+0x3c>)
 8001426:	480c      	ldr	r0, [pc, #48]	@ (8001458 <HAL_UART_MspDeInit+0x40>)
 8001428:	6c53      	ldr	r3, [r2, #68]	@ 0x44
 800142a:	f023 0320 	bic.w	r3, r3, #32
 800142e:	6453      	str	r3, [r2, #68]	@ 0x44
 8001430:	21c0      	movs	r1, #192	@ 0xc0
 8001432:	f001 f821 	bl	8002478 <HAL_GPIO_DeInit>
 8001436:	6ba0      	ldr	r0, [r4, #56]	@ 0x38
 8001438:	f000 fd1e 	bl	8001e78 <HAL_DMA_DeInit>
 800143c:	6b60      	ldr	r0, [r4, #52]	@ 0x34
 800143e:	f000 fd1b 	bl	8001e78 <HAL_DMA_DeInit>
 8001442:	e8bd 4010 	ldmia.w	sp!, {r4, lr}
 8001446:	2047      	movs	r0, #71	@ 0x47
 8001448:	f000 bba0 	b.w	8001b8c <HAL_NVIC_DisableIRQ>
 800144c:	bd10      	pop	{r4, pc}
 800144e:	bf00      	nop
 8001450:	40011400 	.word	0x40011400
 8001454:	40023800 	.word	0x40023800
 8001458:	40020800 	.word	0x40020800

0800145c <UpDateUart>:
 800145c:	6843      	ldr	r3, [r0, #4]
 800145e:	428b      	cmp	r3, r1
 8001460:	b510      	push	{r4, lr}
 8001462:	4604      	mov	r4, r0
 8001464:	d005      	beq.n	8001472 <UpDateUart+0x16>
 8001466:	6041      	str	r1, [r0, #4]
 8001468:	f003 fdaa 	bl	8004fc0 <HAL_UART_DeInit>
 800146c:	4620      	mov	r0, r4
 800146e:	f003 fd35 	bl	8004edc <HAL_UART_Init>
 8001472:	e8bd 4010 	ldmia.w	sp!, {r4, lr}
 8001476:	4903      	ldr	r1, [pc, #12]	@ (8001484 <UpDateUart+0x28>)
 8001478:	4803      	ldr	r0, [pc, #12]	@ (8001488 <UpDateUart+0x2c>)
 800147a:	f44f 4280 	mov.w	r2, #16384	@ 0x4000
 800147e:	f004 b901 	b.w	8005684 <HAL_UARTEx_ReceiveToIdle_DMA>
 8001482:	bf00      	nop
 8001484:	20000aa8 	.word	0x20000aa8
 8001488:	20000a64 	.word	0x20000a64

0800148c <HAL_UARTEx_RxEventCallback>:
 800148c:	6802      	ldr	r2, [r0, #0]
 800148e:	4b1d      	ldr	r3, [pc, #116]	@ (8001504 <HAL_UARTEx_RxEventCallback+0x78>)
 8001490:	429a      	cmp	r2, r3
 8001492:	b570      	push	{r4, r5, r6, lr}
 8001494:	460d      	mov	r5, r1
 8001496:	d133      	bne.n	8001500 <HAL_UARTEx_RxEventCallback+0x74>
 8001498:	4e1b      	ldr	r6, [pc, #108]	@ (8001508 <HAL_UARTEx_RxEventCallback+0x7c>)
 800149a:	f003 fe03 	bl	80050a4 <HAL_UART_DMAStop>
 800149e:	462a      	mov	r2, r5
 80014a0:	491a      	ldr	r1, [pc, #104]	@ (800150c <HAL_UARTEx_RxEventCallback+0x80>)
 80014a2:	2000      	movs	r0, #0
 80014a4:	f005 fdfc 	bl	80070a0 <CDC_Transmit>
 80014a8:	7834      	ldrb	r4, [r6, #0]
 80014aa:	4a19      	ldr	r2, [pc, #100]	@ (8001510 <HAL_UARTEx_RxEventCallback+0x84>)
 80014ac:	eb04 0384 	add.w	r3, r4, r4, lsl #2
 80014b0:	eb03 0383 	add.w	r3, r3, r3, lsl #2
 80014b4:	4413      	add	r3, r2
 80014b6:	4618      	mov	r0, r3
 80014b8:	2218      	movs	r2, #24
 80014ba:	2120      	movs	r1, #32
 80014bc:	f008 fcb2 	bl	8009e24 <memset>
 80014c0:	2d18      	cmp	r5, #24
 80014c2:	462a      	mov	r2, r5
 80014c4:	4911      	ldr	r1, [pc, #68]	@ (800150c <HAL_UARTEx_RxEventCallback+0x80>)
 80014c6:	bf28      	it	cs
 80014c8:	2218      	movcs	r2, #24
 80014ca:	f008 fcdf 	bl	8009e8c <memcpy>
 80014ce:	4b11      	ldr	r3, [pc, #68]	@ (8001514 <HAL_UARTEx_RxEventCallback+0x88>)
 80014d0:	490e      	ldr	r1, [pc, #56]	@ (800150c <HAL_UARTEx_RxEventCallback+0x80>)
 80014d2:	4811      	ldr	r0, [pc, #68]	@ (8001518 <HAL_UARTEx_RxEventCallback+0x8c>)
 80014d4:	2202      	movs	r2, #2
 80014d6:	551a      	strb	r2, [r3, r4]
 80014d8:	4b10      	ldr	r3, [pc, #64]	@ (800151c <HAL_UARTEx_RxEventCallback+0x90>)
 80014da:	551d      	strb	r5, [r3, r4]
 80014dc:	4b10      	ldr	r3, [pc, #64]	@ (8001520 <HAL_UARTEx_RxEventCallback+0x94>)
 80014de:	881a      	ldrh	r2, [r3, #0]
 80014e0:	4415      	add	r5, r2
 80014e2:	801d      	strh	r5, [r3, #0]
 80014e4:	3401      	adds	r4, #1
 80014e6:	2307      	movs	r3, #7
 80014e8:	fbb4 f3f3 	udiv	r3, r4, r3
 80014ec:	ebc3 03c3 	rsb	r3, r3, r3, lsl #3
 80014f0:	1ae4      	subs	r4, r4, r3
 80014f2:	7034      	strb	r4, [r6, #0]
 80014f4:	e8bd 4070 	ldmia.w	sp!, {r4, r5, r6, lr}
 80014f8:	f44f 4280 	mov.w	r2, #16384	@ 0x4000
 80014fc:	f004 b8c2 	b.w	8005684 <HAL_UARTEx_ReceiveToIdle_DMA>
 8001500:	bd70      	pop	{r4, r5, r6, pc}
 8001502:	bf00      	nop
 8001504:	40011400 	.word	0x40011400
 8001508:	200006bc 	.word	0x200006bc
 800150c:	20000aa8 	.word	0x20000aa8
 8001510:	200006cb 	.word	0x200006cb
 8001514:	200006bd 	.word	0x200006bd
 8001518:	20000a64 	.word	0x20000a64
 800151c:	200006c4 	.word	0x200006c4
 8001520:	200006b8 	.word	0x200006b8

08001524 <HAL_UART_TxCpltCallback>:
 8001524:	4b03      	ldr	r3, [pc, #12]	@ (8001534 <HAL_UART_TxCpltCallback+0x10>)
 8001526:	4283      	cmp	r3, r0
 8001528:	bf02      	ittt	eq
 800152a:	4b03      	ldreq	r3, [pc, #12]	@ (8001538 <HAL_UART_TxCpltCallback+0x14>)
 800152c:	2200      	moveq	r2, #0
 800152e:	701a      	strbeq	r2, [r3, #0]
 8001530:	4770      	bx	lr
 8001532:	bf00      	nop
 8001534:	20000a64 	.word	0x20000a64
 8001538:	20005358 	.word	0x20005358

0800153c <MX_USB_OTG_FS_PCD_Init>:
 800153c:	480c      	ldr	r0, [pc, #48]	@ (8001570 <MX_USB_OTG_FS_PCD_Init+0x34>)
 800153e:	b508      	push	{r3, lr}
 8001540:	f04f 42a0 	mov.w	r2, #1342177280	@ 0x50000000
 8001544:	2304      	movs	r3, #4
 8001546:	e9c0 2300 	strd	r2, r3, [r0]
 800154a:	2300      	movs	r3, #0
 800154c:	2202      	movs	r2, #2
 800154e:	e9c0 2303 	strd	r2, r3, [r0, #12]
 8001552:	e9c0 2306 	strd	r2, r3, [r0, #24]
 8001556:	e9c0 3308 	strd	r3, r3, [r0, #32]
 800155a:	e9c0 330b 	strd	r3, r3, [r0, #44]	@ 0x2c
 800155e:	f001 ff19 	bl	8003394 <HAL_PCD_Init>
 8001562:	b118      	cbz	r0, 800156c <MX_USB_OTG_FS_PCD_Init+0x30>
 8001564:	e8bd 4008 	ldmia.w	sp!, {r3, lr}
 8001568:	f7ff bd80 	b.w	800106c <Error_Handler>
 800156c:	bd08      	pop	{r3, pc}
 800156e:	bf00      	nop
 8001570:	20004aa8 	.word	0x20004aa8

08001574 <HAL_PCD_MspInit>:
 8001574:	b530      	push	{r4, r5, lr}
 8001576:	4604      	mov	r4, r0
 8001578:	b089      	sub	sp, #36	@ 0x24
 800157a:	2214      	movs	r2, #20
 800157c:	2100      	movs	r1, #0
 800157e:	a803      	add	r0, sp, #12
 8001580:	f008 fc50 	bl	8009e24 <memset>
 8001584:	6823      	ldr	r3, [r4, #0]
 8001586:	f1b3 4fa0 	cmp.w	r3, #1342177280	@ 0x50000000
 800158a:	d12e      	bne.n	80015ea <HAL_PCD_MspInit+0x76>
 800158c:	4c18      	ldr	r4, [pc, #96]	@ (80015f0 <HAL_PCD_MspInit+0x7c>)
 800158e:	4819      	ldr	r0, [pc, #100]	@ (80015f4 <HAL_PCD_MspInit+0x80>)
 8001590:	2500      	movs	r5, #0
 8001592:	9501      	str	r5, [sp, #4]
 8001594:	6b23      	ldr	r3, [r4, #48]	@ 0x30
 8001596:	f043 0301 	orr.w	r3, r3, #1
 800159a:	6323      	str	r3, [r4, #48]	@ 0x30
 800159c:	6b23      	ldr	r3, [r4, #48]	@ 0x30
 800159e:	f003 0301 	and.w	r3, r3, #1
 80015a2:	9301      	str	r3, [sp, #4]
 80015a4:	f44f 52c0 	mov.w	r2, #6144	@ 0x1800
 80015a8:	9b01      	ldr	r3, [sp, #4]
 80015aa:	2302      	movs	r3, #2
 80015ac:	e9cd 2303 	strd	r2, r3, [sp, #12]
 80015b0:	2103      	movs	r1, #3
 80015b2:	230a      	movs	r3, #10
 80015b4:	e9cd 1306 	strd	r1, r3, [sp, #24]
 80015b8:	a903      	add	r1, sp, #12
 80015ba:	f000 fe25 	bl	8002208 <HAL_GPIO_Init>
 80015be:	6b63      	ldr	r3, [r4, #52]	@ 0x34
 80015c0:	f043 0380 	orr.w	r3, r3, #128	@ 0x80
 80015c4:	6363      	str	r3, [r4, #52]	@ 0x34
 80015c6:	9502      	str	r5, [sp, #8]
 80015c8:	6c63      	ldr	r3, [r4, #68]	@ 0x44
 80015ca:	f443 4380 	orr.w	r3, r3, #16384	@ 0x4000
 80015ce:	6463      	str	r3, [r4, #68]	@ 0x44
 80015d0:	6c63      	ldr	r3, [r4, #68]	@ 0x44
 80015d2:	f403 4380 	and.w	r3, r3, #16384	@ 0x4000
 80015d6:	9302      	str	r3, [sp, #8]
 80015d8:	2043      	movs	r0, #67	@ 0x43
 80015da:	462a      	mov	r2, r5
 80015dc:	2105      	movs	r1, #5
 80015de:	9b02      	ldr	r3, [sp, #8]
 80015e0:	f000 fa7e 	bl	8001ae0 <HAL_NVIC_SetPriority>
 80015e4:	2043      	movs	r0, #67	@ 0x43
 80015e6:	f000 fabd 	bl	8001b64 <HAL_NVIC_EnableIRQ>
 80015ea:	b009      	add	sp, #36	@ 0x24
 80015ec:	bd30      	pop	{r4, r5, pc}
 80015ee:	bf00      	nop
 80015f0:	40023800 	.word	0x40023800
 80015f4:	40020000 	.word	0x40020000

080015f8 <Reset_Handler>:
 80015f8:	f8df d034 	ldr.w	sp, [pc, #52]	@ 8001630 <LoopFillZerobss+0x12>
 80015fc:	480d      	ldr	r0, [pc, #52]	@ (8001634 <LoopFillZerobss+0x16>)
 80015fe:	490e      	ldr	r1, [pc, #56]	@ (8001638 <LoopFillZerobss+0x1a>)
 8001600:	4a0e      	ldr	r2, [pc, #56]	@ (800163c <LoopFillZerobss+0x1e>)
 8001602:	2300      	movs	r3, #0
 8001604:	e002      	b.n	800160c <LoopCopyDataInit>

08001606 <CopyDataInit>:
 8001606:	58d4      	ldr	r4, [r2, r3]
 8001608:	50c4      	str	r4, [r0, r3]
 800160a:	3304      	adds	r3, #4

0800160c <LoopCopyDataInit>:
 800160c:	18c4      	adds	r4, r0, r3
 800160e:	428c      	cmp	r4, r1
 8001610:	d3f9      	bcc.n	8001606 <CopyDataInit>
 8001612:	4a0b      	ldr	r2, [pc, #44]	@ (8001640 <LoopFillZerobss+0x22>)
 8001614:	4c0b      	ldr	r4, [pc, #44]	@ (8001644 <LoopFillZerobss+0x26>)
 8001616:	2300      	movs	r3, #0
 8001618:	e001      	b.n	800161e <LoopFillZerobss>

0800161a <FillZerobss>:
 800161a:	6013      	str	r3, [r2, #0]
 800161c:	3204      	adds	r2, #4

0800161e <LoopFillZerobss>:
 800161e:	42a2      	cmp	r2, r4
 8001620:	d3fb      	bcc.n	800161a <FillZerobss>
 8001622:	f000 f813 	bl	800164c <SystemInit>
 8001626:	f008 fc0b 	bl	8009e40 <__libc_init_array>
 800162a:	f7ff fce3 	bl	8000ff4 <main>
 800162e:	4770      	bx	lr
 8001630:	20010000 	.word	0x20010000
 8001634:	20000000 	.word	0x20000000
 8001638:	2000056c 	.word	0x2000056c
 800163c:	08018be0 	.word	0x08018be0
 8001640:	2000056c 	.word	0x2000056c
 8001644:	2000e648 	.word	0x2000e648

08001648 <ADC_IRQHandler>:
 8001648:	e7fe      	b.n	8001648 <ADC_IRQHandler>
	...

0800164c <SystemInit>:
 800164c:	4a03      	ldr	r2, [pc, #12]	@ (800165c <SystemInit+0x10>)
 800164e:	f8d2 3088 	ldr.w	r3, [r2, #136]	@ 0x88
 8001652:	f443 0370 	orr.w	r3, r3, #15728640	@ 0xf00000
 8001656:	f8c2 3088 	str.w	r3, [r2, #136]	@ 0x88
 800165a:	4770      	bx	lr
 800165c:	e000ed00 	.word	0xe000ed00

08001660 <HAL_Init>:
 8001660:	b508      	push	{r3, lr}
 8001662:	4b0b      	ldr	r3, [pc, #44]	@ (8001690 <HAL_Init+0x30>)
 8001664:	681a      	ldr	r2, [r3, #0]
 8001666:	f442 7200 	orr.w	r2, r2, #512	@ 0x200
 800166a:	601a      	str	r2, [r3, #0]
 800166c:	681a      	ldr	r2, [r3, #0]
 800166e:	f442 6280 	orr.w	r2, r2, #1024	@ 0x400
 8001672:	601a      	str	r2, [r3, #0]
 8001674:	681a      	ldr	r2, [r3, #0]
 8001676:	f442 7280 	orr.w	r2, r2, #256	@ 0x100
 800167a:	601a      	str	r2, [r3, #0]
 800167c:	2003      	movs	r0, #3
 800167e:	f000 fa11 	bl	8001aa4 <HAL_NVIC_SetPriorityGrouping>
 8001682:	200f      	movs	r0, #15
 8001684:	f7ff fd8c 	bl	80011a0 <HAL_InitTick>
 8001688:	f7ff fd6a 	bl	8001160 <HAL_MspInit>
 800168c:	2000      	movs	r0, #0
 800168e:	bd08      	pop	{r3, pc}
 8001690:	40023c00 	.word	0x40023c00

08001694 <HAL_IncTick>:
 8001694:	4a03      	ldr	r2, [pc, #12]	@ (80016a4 <HAL_IncTick+0x10>)
 8001696:	4b04      	ldr	r3, [pc, #16]	@ (80016a8 <HAL_IncTick+0x14>)
 8001698:	6811      	ldr	r1, [r2, #0]
 800169a:	781b      	ldrb	r3, [r3, #0]
 800169c:	440b      	add	r3, r1
 800169e:	6013      	str	r3, [r2, #0]
 80016a0:	4770      	bx	lr
 80016a2:	bf00      	nop
 80016a4:	20004fb4 	.word	0x20004fb4
 80016a8:	20000008 	.word	0x20000008

080016ac <HAL_GetTick>:
 80016ac:	4b01      	ldr	r3, [pc, #4]	@ (80016b4 <HAL_GetTick+0x8>)
 80016ae:	6818      	ldr	r0, [r3, #0]
 80016b0:	4770      	bx	lr
 80016b2:	bf00      	nop
 80016b4:	20004fb4 	.word	0x20004fb4

080016b8 <HAL_Delay>:
 80016b8:	b538      	push	{r3, r4, r5, lr}
 80016ba:	4604      	mov	r4, r0
 80016bc:	f7ff fff6 	bl	80016ac <HAL_GetTick>
 80016c0:	1c63      	adds	r3, r4, #1
 80016c2:	bf1c      	itt	ne
 80016c4:	4b05      	ldrne	r3, [pc, #20]	@ (80016dc <HAL_Delay+0x24>)
 80016c6:	781b      	ldrbne	r3, [r3, #0]
 80016c8:	4605      	mov	r5, r0
 80016ca:	bf18      	it	ne
 80016cc:	18e4      	addne	r4, r4, r3
 80016ce:	f7ff ffed 	bl	80016ac <HAL_GetTick>
 80016d2:	1b43      	subs	r3, r0, r5
 80016d4:	42a3      	cmp	r3, r4
 80016d6:	d3fa      	bcc.n	80016ce <HAL_Delay+0x16>
 80016d8:	bd38      	pop	{r3, r4, r5, pc}
 80016da:	bf00      	nop
 80016dc:	20000008 	.word	0x20000008

080016e0 <HAL_ADC_Init>:
 80016e0:	b538      	push	{r3, r4, r5, lr}
 80016e2:	4604      	mov	r4, r0
 80016e4:	2800      	cmp	r0, #0
 80016e6:	f000 8126 	beq.w	8001936 <HAL_ADC_Init+0x256>
 80016ea:	6802      	ldr	r2, [r0, #0]
 80016ec:	4b93      	ldr	r3, [pc, #588]	@ (800193c <HAL_ADC_Init+0x25c>)
 80016ee:	429a      	cmp	r2, r3
 80016f0:	d004      	beq.n	80016fc <HAL_ADC_Init+0x1c>
 80016f2:	4893      	ldr	r0, [pc, #588]	@ (8001940 <HAL_ADC_Init+0x260>)
 80016f4:	f44f 71a1 	mov.w	r1, #322	@ 0x142
 80016f8:	f7ff fcba 	bl	8001070 <assert_failed>
 80016fc:	6863      	ldr	r3, [r4, #4]
 80016fe:	f433 3340 	bics.w	r3, r3, #196608	@ 0x30000
 8001702:	d004      	beq.n	800170e <HAL_ADC_Init+0x2e>
 8001704:	488e      	ldr	r0, [pc, #568]	@ (8001940 <HAL_ADC_Init+0x260>)
 8001706:	f240 1143 	movw	r1, #323	@ 0x143
 800170a:	f7ff fcb1 	bl	8001070 <assert_failed>
 800170e:	68a3      	ldr	r3, [r4, #8]
 8001710:	f033 7340 	bics.w	r3, r3, #50331648	@ 0x3000000
 8001714:	d004      	beq.n	8001720 <HAL_ADC_Init+0x40>
 8001716:	488a      	ldr	r0, [pc, #552]	@ (8001940 <HAL_ADC_Init+0x260>)
 8001718:	f44f 71a2 	mov.w	r1, #324	@ 0x144
 800171c:	f7ff fca8 	bl	8001070 <assert_failed>
 8001720:	6923      	ldr	r3, [r4, #16]
 8001722:	2b01      	cmp	r3, #1
 8001724:	d904      	bls.n	8001730 <HAL_ADC_Init+0x50>
 8001726:	4886      	ldr	r0, [pc, #536]	@ (8001940 <HAL_ADC_Init+0x260>)
 8001728:	f240 1145 	movw	r1, #325	@ 0x145
 800172c:	f7ff fca0 	bl	8001070 <assert_failed>
 8001730:	7e23      	ldrb	r3, [r4, #24]
 8001732:	2b01      	cmp	r3, #1
 8001734:	d904      	bls.n	8001740 <HAL_ADC_Init+0x60>
 8001736:	4882      	ldr	r0, [pc, #520]	@ (8001940 <HAL_ADC_Init+0x260>)
 8001738:	f44f 71a3 	mov.w	r1, #326	@ 0x146
 800173c:	f7ff fc98 	bl	8001070 <assert_failed>
 8001740:	6aa3      	ldr	r3, [r4, #40]	@ 0x28
 8001742:	f033 7240 	bics.w	r2, r3, #50331648	@ 0x3000000
 8001746:	d016      	beq.n	8001776 <HAL_ADC_Init+0x96>
 8001748:	f1b2 6f80 	cmp.w	r2, #67108864	@ 0x4000000
 800174c:	d013      	beq.n	8001776 <HAL_ADC_Init+0x96>
 800174e:	f1b2 6f00 	cmp.w	r2, #134217728	@ 0x8000000
 8001752:	d010      	beq.n	8001776 <HAL_ADC_Init+0x96>
 8001754:	f023 7280 	bic.w	r2, r3, #16777216	@ 0x1000000
 8001758:	f1b2 6f40 	cmp.w	r2, #201326592	@ 0xc000000
 800175c:	d00b      	beq.n	8001776 <HAL_ADC_Init+0x96>
 800175e:	f1b3 6f60 	cmp.w	r3, #234881024	@ 0xe000000
 8001762:	d008      	beq.n	8001776 <HAL_ADC_Init+0x96>
 8001764:	f103 4371 	add.w	r3, r3, #4043309056	@ 0xf1000000
 8001768:	2b01      	cmp	r3, #1
 800176a:	d904      	bls.n	8001776 <HAL_ADC_Init+0x96>
 800176c:	4874      	ldr	r0, [pc, #464]	@ (8001940 <HAL_ADC_Init+0x260>)
 800176e:	f240 1147 	movw	r1, #327	@ 0x147
 8001772:	f7ff fc7d 	bl	8001070 <assert_failed>
 8001776:	68e3      	ldr	r3, [r4, #12]
 8001778:	f433 6300 	bics.w	r3, r3, #2048	@ 0x800
 800177c:	d004      	beq.n	8001788 <HAL_ADC_Init+0xa8>
 800177e:	4870      	ldr	r0, [pc, #448]	@ (8001940 <HAL_ADC_Init+0x260>)
 8001780:	f44f 71a4 	mov.w	r1, #328	@ 0x148
 8001784:	f7ff fc74 	bl	8001070 <assert_failed>
 8001788:	69e3      	ldr	r3, [r4, #28]
 800178a:	3b01      	subs	r3, #1
 800178c:	2b0f      	cmp	r3, #15
 800178e:	d904      	bls.n	800179a <HAL_ADC_Init+0xba>
 8001790:	486b      	ldr	r0, [pc, #428]	@ (8001940 <HAL_ADC_Init+0x260>)
 8001792:	f240 1149 	movw	r1, #329	@ 0x149
 8001796:	f7ff fc6b 	bl	8001070 <assert_failed>
 800179a:	f894 3030 	ldrb.w	r3, [r4, #48]	@ 0x30
 800179e:	2b01      	cmp	r3, #1
 80017a0:	d904      	bls.n	80017ac <HAL_ADC_Init+0xcc>
 80017a2:	4867      	ldr	r0, [pc, #412]	@ (8001940 <HAL_ADC_Init+0x260>)
 80017a4:	f44f 71a5 	mov.w	r1, #330	@ 0x14a
 80017a8:	f7ff fc62 	bl	8001070 <assert_failed>
 80017ac:	6963      	ldr	r3, [r4, #20]
 80017ae:	2b02      	cmp	r3, #2
 80017b0:	d904      	bls.n	80017bc <HAL_ADC_Init+0xdc>
 80017b2:	4863      	ldr	r0, [pc, #396]	@ (8001940 <HAL_ADC_Init+0x260>)
 80017b4:	f240 114b 	movw	r1, #331	@ 0x14b
 80017b8:	f7ff fc5a 	bl	8001070 <assert_failed>
 80017bc:	f894 3020 	ldrb.w	r3, [r4, #32]
 80017c0:	2b01      	cmp	r3, #1
 80017c2:	d904      	bls.n	80017ce <HAL_ADC_Init+0xee>
 80017c4:	485e      	ldr	r0, [pc, #376]	@ (8001940 <HAL_ADC_Init+0x260>)
 80017c6:	f44f 71a6 	mov.w	r1, #332	@ 0x14c
 80017ca:	f7ff fc51 	bl	8001070 <assert_failed>
 80017ce:	6aa2      	ldr	r2, [r4, #40]	@ 0x28
 80017d0:	4b5c      	ldr	r3, [pc, #368]	@ (8001944 <HAL_ADC_Init+0x264>)
 80017d2:	429a      	cmp	r2, r3
 80017d4:	d008      	beq.n	80017e8 <HAL_ADC_Init+0x108>
 80017d6:	6ae3      	ldr	r3, [r4, #44]	@ 0x2c
 80017d8:	f033 5340 	bics.w	r3, r3, #805306368	@ 0x30000000
 80017dc:	d004      	beq.n	80017e8 <HAL_ADC_Init+0x108>
 80017de:	4858      	ldr	r0, [pc, #352]	@ (8001940 <HAL_ADC_Init+0x260>)
 80017e0:	f44f 71a8 	mov.w	r1, #336	@ 0x150
 80017e4:	f7ff fc44 	bl	8001070 <assert_failed>
 80017e8:	6c25      	ldr	r5, [r4, #64]	@ 0x40
 80017ea:	b92d      	cbnz	r5, 80017f8 <HAL_ADC_Init+0x118>
 80017ec:	4620      	mov	r0, r4
 80017ee:	f7fe ff19 	bl	8000624 <HAL_ADC_MspInit>
 80017f2:	6465      	str	r5, [r4, #68]	@ 0x44
 80017f4:	f884 503c 	strb.w	r5, [r4, #60]	@ 0x3c
 80017f8:	6c23      	ldr	r3, [r4, #64]	@ 0x40
 80017fa:	06db      	lsls	r3, r3, #27
 80017fc:	f100 8099 	bmi.w	8001932 <HAL_ADC_Init+0x252>
 8001800:	6c23      	ldr	r3, [r4, #64]	@ 0x40
 8001802:	f423 5388 	bic.w	r3, r3, #4352	@ 0x1100
 8001806:	f023 0302 	bic.w	r3, r3, #2
 800180a:	f043 0302 	orr.w	r3, r3, #2
 800180e:	6423      	str	r3, [r4, #64]	@ 0x40
 8001810:	4b4d      	ldr	r3, [pc, #308]	@ (8001948 <HAL_ADC_Init+0x268>)
 8001812:	685a      	ldr	r2, [r3, #4]
 8001814:	f422 3240 	bic.w	r2, r2, #196608	@ 0x30000
 8001818:	605a      	str	r2, [r3, #4]
 800181a:	685a      	ldr	r2, [r3, #4]
 800181c:	6861      	ldr	r1, [r4, #4]
 800181e:	430a      	orrs	r2, r1
 8001820:	605a      	str	r2, [r3, #4]
 8001822:	6823      	ldr	r3, [r4, #0]
 8001824:	6921      	ldr	r1, [r4, #16]
 8001826:	685a      	ldr	r2, [r3, #4]
 8001828:	f422 7280 	bic.w	r2, r2, #256	@ 0x100
 800182c:	605a      	str	r2, [r3, #4]
 800182e:	685a      	ldr	r2, [r3, #4]
 8001830:	ea42 2201 	orr.w	r2, r2, r1, lsl #8
 8001834:	605a      	str	r2, [r3, #4]
 8001836:	685a      	ldr	r2, [r3, #4]
 8001838:	68a1      	ldr	r1, [r4, #8]
 800183a:	f022 7240 	bic.w	r2, r2, #50331648	@ 0x3000000
 800183e:	605a      	str	r2, [r3, #4]
 8001840:	685a      	ldr	r2, [r3, #4]
 8001842:	430a      	orrs	r2, r1
 8001844:	605a      	str	r2, [r3, #4]
 8001846:	689a      	ldr	r2, [r3, #8]
 8001848:	68e1      	ldr	r1, [r4, #12]
 800184a:	f422 6200 	bic.w	r2, r2, #2048	@ 0x800
 800184e:	609a      	str	r2, [r3, #8]
 8001850:	689a      	ldr	r2, [r3, #8]
 8001852:	430a      	orrs	r2, r1
 8001854:	609a      	str	r2, [r3, #8]
 8001856:	493b      	ldr	r1, [pc, #236]	@ (8001944 <HAL_ADC_Init+0x264>)
 8001858:	6aa2      	ldr	r2, [r4, #40]	@ 0x28
 800185a:	428a      	cmp	r2, r1
 800185c:	d05d      	beq.n	800191a <HAL_ADC_Init+0x23a>
 800185e:	6899      	ldr	r1, [r3, #8]
 8001860:	f021 6170 	bic.w	r1, r1, #251658240	@ 0xf000000
 8001864:	6099      	str	r1, [r3, #8]
 8001866:	6899      	ldr	r1, [r3, #8]
 8001868:	430a      	orrs	r2, r1
 800186a:	609a      	str	r2, [r3, #8]
 800186c:	689a      	ldr	r2, [r3, #8]
 800186e:	6ae1      	ldr	r1, [r4, #44]	@ 0x2c
 8001870:	f022 5240 	bic.w	r2, r2, #805306368	@ 0x30000000
 8001874:	609a      	str	r2, [r3, #8]
 8001876:	689a      	ldr	r2, [r3, #8]
 8001878:	430a      	orrs	r2, r1
 800187a:	609a      	str	r2, [r3, #8]
 800187c:	689a      	ldr	r2, [r3, #8]
 800187e:	f022 0202 	bic.w	r2, r2, #2
 8001882:	609a      	str	r2, [r3, #8]
 8001884:	689a      	ldr	r2, [r3, #8]
 8001886:	7e21      	ldrb	r1, [r4, #24]
 8001888:	ea42 0241 	orr.w	r2, r2, r1, lsl #1
 800188c:	609a      	str	r2, [r3, #8]
 800188e:	f894 2020 	ldrb.w	r2, [r4, #32]
 8001892:	2a00      	cmp	r2, #0
 8001894:	d049      	beq.n	800192a <HAL_ADC_Init+0x24a>
 8001896:	6a63      	ldr	r3, [r4, #36]	@ 0x24
 8001898:	3b01      	subs	r3, #1
 800189a:	2b07      	cmp	r3, #7
 800189c:	d904      	bls.n	80018a8 <HAL_ADC_Init+0x1c8>
 800189e:	4828      	ldr	r0, [pc, #160]	@ (8001940 <HAL_ADC_Init+0x260>)
 80018a0:	f44f 61f5 	mov.w	r1, #1960	@ 0x7a8
 80018a4:	f7ff fbe4 	bl	8001070 <assert_failed>
 80018a8:	6823      	ldr	r3, [r4, #0]
 80018aa:	6a61      	ldr	r1, [r4, #36]	@ 0x24
 80018ac:	685a      	ldr	r2, [r3, #4]
 80018ae:	f442 6200 	orr.w	r2, r2, #2048	@ 0x800
 80018b2:	605a      	str	r2, [r3, #4]
 80018b4:	685a      	ldr	r2, [r3, #4]
 80018b6:	f422 4260 	bic.w	r2, r2, #57344	@ 0xe000
 80018ba:	605a      	str	r2, [r3, #4]
 80018bc:	685a      	ldr	r2, [r3, #4]
 80018be:	3901      	subs	r1, #1
 80018c0:	ea42 3241 	orr.w	r2, r2, r1, lsl #13
 80018c4:	605a      	str	r2, [r3, #4]
 80018c6:	6823      	ldr	r3, [r4, #0]
 80018c8:	69e1      	ldr	r1, [r4, #28]
 80018ca:	6ada      	ldr	r2, [r3, #44]	@ 0x2c
 80018cc:	f422 0270 	bic.w	r2, r2, #15728640	@ 0xf00000
 80018d0:	62da      	str	r2, [r3, #44]	@ 0x2c
 80018d2:	6ada      	ldr	r2, [r3, #44]	@ 0x2c
 80018d4:	3901      	subs	r1, #1
 80018d6:	ea42 5201 	orr.w	r2, r2, r1, lsl #20
 80018da:	62da      	str	r2, [r3, #44]	@ 0x2c
 80018dc:	689a      	ldr	r2, [r3, #8]
 80018de:	f422 7200 	bic.w	r2, r2, #512	@ 0x200
 80018e2:	609a      	str	r2, [r3, #8]
 80018e4:	689a      	ldr	r2, [r3, #8]
 80018e6:	f894 1030 	ldrb.w	r1, [r4, #48]	@ 0x30
 80018ea:	ea42 2241 	orr.w	r2, r2, r1, lsl #9
 80018ee:	609a      	str	r2, [r3, #8]
 80018f0:	689a      	ldr	r2, [r3, #8]
 80018f2:	6961      	ldr	r1, [r4, #20]
 80018f4:	f422 6280 	bic.w	r2, r2, #1024	@ 0x400
 80018f8:	609a      	str	r2, [r3, #8]
 80018fa:	689a      	ldr	r2, [r3, #8]
 80018fc:	2000      	movs	r0, #0
 80018fe:	ea42 2281 	orr.w	r2, r2, r1, lsl #10
 8001902:	609a      	str	r2, [r3, #8]
 8001904:	6460      	str	r0, [r4, #68]	@ 0x44
 8001906:	6c23      	ldr	r3, [r4, #64]	@ 0x40
 8001908:	f023 0303 	bic.w	r3, r3, #3
 800190c:	f043 0301 	orr.w	r3, r3, #1
 8001910:	6423      	str	r3, [r4, #64]	@ 0x40
 8001912:	2300      	movs	r3, #0
 8001914:	f884 303c 	strb.w	r3, [r4, #60]	@ 0x3c
 8001918:	bd38      	pop	{r3, r4, r5, pc}
 800191a:	689a      	ldr	r2, [r3, #8]
 800191c:	f022 6270 	bic.w	r2, r2, #251658240	@ 0xf000000
 8001920:	609a      	str	r2, [r3, #8]
 8001922:	689a      	ldr	r2, [r3, #8]
 8001924:	f022 5240 	bic.w	r2, r2, #805306368	@ 0x30000000
 8001928:	e7a7      	b.n	800187a <HAL_ADC_Init+0x19a>
 800192a:	685a      	ldr	r2, [r3, #4]
 800192c:	f422 6200 	bic.w	r2, r2, #2048	@ 0x800
 8001930:	e7c8      	b.n	80018c4 <HAL_ADC_Init+0x1e4>
 8001932:	2001      	movs	r0, #1
 8001934:	e7ed      	b.n	8001912 <HAL_ADC_Init+0x232>
 8001936:	2001      	movs	r0, #1
 8001938:	e7ee      	b.n	8001918 <HAL_ADC_Init+0x238>
 800193a:	bf00      	nop
 800193c:	40012000 	.word	0x40012000
 8001940:	0800a774 	.word	0x0800a774
 8001944:	0f000001 	.word	0x0f000001
 8001948:	40012300 	.word	0x40012300

0800194c <HAL_ADC_ConfigChannel>:
 800194c:	b5f7      	push	{r0, r1, r2, r4, r5, r6, r7, lr}
 800194e:	2300      	movs	r3, #0
 8001950:	9301      	str	r3, [sp, #4]
 8001952:	680b      	ldr	r3, [r1, #0]
 8001954:	2b12      	cmp	r3, #18
 8001956:	4604      	mov	r4, r0
 8001958:	460e      	mov	r6, r1
 800195a:	d904      	bls.n	8001966 <HAL_ADC_ConfigChannel+0x1a>
 800195c:	484c      	ldr	r0, [pc, #304]	@ (8001a90 <HAL_ADC_ConfigChannel+0x144>)
 800195e:	f240 618b 	movw	r1, #1675	@ 0x68b
 8001962:	f7ff fb85 	bl	8001070 <assert_failed>
 8001966:	6873      	ldr	r3, [r6, #4]
 8001968:	3b01      	subs	r3, #1
 800196a:	2b0f      	cmp	r3, #15
 800196c:	d904      	bls.n	8001978 <HAL_ADC_ConfigChannel+0x2c>
 800196e:	4848      	ldr	r0, [pc, #288]	@ (8001a90 <HAL_ADC_ConfigChannel+0x144>)
 8001970:	f240 618c 	movw	r1, #1676	@ 0x68c
 8001974:	f7ff fb7c 	bl	8001070 <assert_failed>
 8001978:	68b3      	ldr	r3, [r6, #8]
 800197a:	2b07      	cmp	r3, #7
 800197c:	d904      	bls.n	8001988 <HAL_ADC_ConfigChannel+0x3c>
 800197e:	4844      	ldr	r0, [pc, #272]	@ (8001a90 <HAL_ADC_ConfigChannel+0x144>)
 8001980:	f240 618d 	movw	r1, #1677	@ 0x68d
 8001984:	f7ff fb74 	bl	8001070 <assert_failed>
 8001988:	f894 303c 	ldrb.w	r3, [r4, #60]	@ 0x3c
 800198c:	2b01      	cmp	r3, #1
 800198e:	d07c      	beq.n	8001a8a <HAL_ADC_ConfigChannel+0x13e>
 8001990:	2301      	movs	r3, #1
 8001992:	f884 303c 	strb.w	r3, [r4, #60]	@ 0x3c
 8001996:	6835      	ldr	r5, [r6, #0]
 8001998:	6823      	ldr	r3, [r4, #0]
 800199a:	68b1      	ldr	r1, [r6, #8]
 800199c:	2d09      	cmp	r5, #9
 800199e:	b2a8      	uxth	r0, r5
 80019a0:	d930      	bls.n	8001a04 <HAL_ADC_ConfigChannel+0xb8>
 80019a2:	eb00 0240 	add.w	r2, r0, r0, lsl #1
 80019a6:	68df      	ldr	r7, [r3, #12]
 80019a8:	3a1e      	subs	r2, #30
 80019aa:	f04f 0c07 	mov.w	ip, #7
 80019ae:	fa0c fc02 	lsl.w	ip, ip, r2
 80019b2:	ea27 070c 	bic.w	r7, r7, ip
 80019b6:	60df      	str	r7, [r3, #12]
 80019b8:	68df      	ldr	r7, [r3, #12]
 80019ba:	fa01 f202 	lsl.w	r2, r1, r2
 80019be:	433a      	orrs	r2, r7
 80019c0:	60da      	str	r2, [r3, #12]
 80019c2:	6871      	ldr	r1, [r6, #4]
 80019c4:	2906      	cmp	r1, #6
 80019c6:	eb01 0281 	add.w	r2, r1, r1, lsl #2
 80019ca:	d82a      	bhi.n	8001a22 <HAL_ADC_ConfigChannel+0xd6>
 80019cc:	6b59      	ldr	r1, [r3, #52]	@ 0x34
 80019ce:	3a05      	subs	r2, #5
 80019d0:	261f      	movs	r6, #31
 80019d2:	4096      	lsls	r6, r2
 80019d4:	ea21 0106 	bic.w	r1, r1, r6
 80019d8:	6359      	str	r1, [r3, #52]	@ 0x34
 80019da:	6b59      	ldr	r1, [r3, #52]	@ 0x34
 80019dc:	fa00 f202 	lsl.w	r2, r0, r2
 80019e0:	430a      	orrs	r2, r1
 80019e2:	635a      	str	r2, [r3, #52]	@ 0x34
 80019e4:	4a2b      	ldr	r2, [pc, #172]	@ (8001a94 <HAL_ADC_ConfigChannel+0x148>)
 80019e6:	4293      	cmp	r3, r2
 80019e8:	d107      	bne.n	80019fa <HAL_ADC_ConfigChannel+0xae>
 80019ea:	2d12      	cmp	r5, #18
 80019ec:	d134      	bne.n	8001a58 <HAL_ADC_ConfigChannel+0x10c>
 80019ee:	f8d2 3304 	ldr.w	r3, [r2, #772]	@ 0x304
 80019f2:	f443 0380 	orr.w	r3, r3, #4194304	@ 0x400000
 80019f6:	f8c2 3304 	str.w	r3, [r2, #772]	@ 0x304
 80019fa:	2000      	movs	r0, #0
 80019fc:	f884 003c 	strb.w	r0, [r4, #60]	@ 0x3c
 8001a00:	b003      	add	sp, #12
 8001a02:	bdf0      	pop	{r4, r5, r6, r7, pc}
 8001a04:	691a      	ldr	r2, [r3, #16]
 8001a06:	eb05 0c45 	add.w	ip, r5, r5, lsl #1
 8001a0a:	2707      	movs	r7, #7
 8001a0c:	fa07 f70c 	lsl.w	r7, r7, ip
 8001a10:	ea22 0207 	bic.w	r2, r2, r7
 8001a14:	611a      	str	r2, [r3, #16]
 8001a16:	691a      	ldr	r2, [r3, #16]
 8001a18:	fa01 f10c 	lsl.w	r1, r1, ip
 8001a1c:	4311      	orrs	r1, r2
 8001a1e:	6119      	str	r1, [r3, #16]
 8001a20:	e7cf      	b.n	80019c2 <HAL_ADC_ConfigChannel+0x76>
 8001a22:	290c      	cmp	r1, #12
 8001a24:	f04f 011f 	mov.w	r1, #31
 8001a28:	d80b      	bhi.n	8001a42 <HAL_ADC_ConfigChannel+0xf6>
 8001a2a:	6b1e      	ldr	r6, [r3, #48]	@ 0x30
 8001a2c:	3a23      	subs	r2, #35	@ 0x23
 8001a2e:	4091      	lsls	r1, r2
 8001a30:	ea26 0101 	bic.w	r1, r6, r1
 8001a34:	6319      	str	r1, [r3, #48]	@ 0x30
 8001a36:	6b19      	ldr	r1, [r3, #48]	@ 0x30
 8001a38:	fa00 f202 	lsl.w	r2, r0, r2
 8001a3c:	430a      	orrs	r2, r1
 8001a3e:	631a      	str	r2, [r3, #48]	@ 0x30
 8001a40:	e7d0      	b.n	80019e4 <HAL_ADC_ConfigChannel+0x98>
 8001a42:	6ade      	ldr	r6, [r3, #44]	@ 0x2c
 8001a44:	3a41      	subs	r2, #65	@ 0x41
 8001a46:	4091      	lsls	r1, r2
 8001a48:	ea26 0101 	bic.w	r1, r6, r1
 8001a4c:	62d9      	str	r1, [r3, #44]	@ 0x2c
 8001a4e:	6ad9      	ldr	r1, [r3, #44]	@ 0x2c
 8001a50:	4090      	lsls	r0, r2
 8001a52:	4308      	orrs	r0, r1
 8001a54:	62d8      	str	r0, [r3, #44]	@ 0x2c
 8001a56:	e7c5      	b.n	80019e4 <HAL_ADC_ConfigChannel+0x98>
 8001a58:	f1a5 0310 	sub.w	r3, r5, #16
 8001a5c:	2b01      	cmp	r3, #1
 8001a5e:	d8cc      	bhi.n	80019fa <HAL_ADC_ConfigChannel+0xae>
 8001a60:	4a0d      	ldr	r2, [pc, #52]	@ (8001a98 <HAL_ADC_ConfigChannel+0x14c>)
 8001a62:	6853      	ldr	r3, [r2, #4]
 8001a64:	2d10      	cmp	r5, #16
 8001a66:	f443 0300 	orr.w	r3, r3, #8388608	@ 0x800000
 8001a6a:	6053      	str	r3, [r2, #4]
 8001a6c:	d1c5      	bne.n	80019fa <HAL_ADC_ConfigChannel+0xae>
 8001a6e:	4b0b      	ldr	r3, [pc, #44]	@ (8001a9c <HAL_ADC_ConfigChannel+0x150>)
 8001a70:	4a0b      	ldr	r2, [pc, #44]	@ (8001aa0 <HAL_ADC_ConfigChannel+0x154>)
 8001a72:	681b      	ldr	r3, [r3, #0]
 8001a74:	fbb3 f3f2 	udiv	r3, r3, r2
 8001a78:	220a      	movs	r2, #10
 8001a7a:	4353      	muls	r3, r2
 8001a7c:	9301      	str	r3, [sp, #4]
 8001a7e:	9b01      	ldr	r3, [sp, #4]
 8001a80:	2b00      	cmp	r3, #0
 8001a82:	d0ba      	beq.n	80019fa <HAL_ADC_ConfigChannel+0xae>
 8001a84:	9b01      	ldr	r3, [sp, #4]
 8001a86:	3b01      	subs	r3, #1
 8001a88:	e7f8      	b.n	8001a7c <HAL_ADC_ConfigChannel+0x130>
 8001a8a:	2002      	movs	r0, #2
 8001a8c:	e7b8      	b.n	8001a00 <HAL_ADC_ConfigChannel+0xb4>
 8001a8e:	bf00      	nop
 8001a90:	0800a774 	.word	0x0800a774
 8001a94:	40012000 	.word	0x40012000
 8001a98:	40012300 	.word	0x40012300
 8001a9c:	20000004 	.word	0x20000004
 8001aa0:	000f4240 	.word	0x000f4240

08001aa4 <HAL_NVIC_SetPriorityGrouping>:
 8001aa4:	1ec3      	subs	r3, r0, #3
 8001aa6:	2b04      	cmp	r3, #4
 8001aa8:	b510      	push	{r4, lr}
 8001aaa:	4604      	mov	r4, r0
 8001aac:	d903      	bls.n	8001ab6 <HAL_NVIC_SetPriorityGrouping+0x12>
 8001aae:	480a      	ldr	r0, [pc, #40]	@ (8001ad8 <HAL_NVIC_SetPriorityGrouping+0x34>)
 8001ab0:	2190      	movs	r1, #144	@ 0x90
 8001ab2:	f7ff fadd 	bl	8001070 <assert_failed>
 8001ab6:	4909      	ldr	r1, [pc, #36]	@ (8001adc <HAL_NVIC_SetPriorityGrouping+0x38>)
 8001ab8:	68ca      	ldr	r2, [r1, #12]
 8001aba:	f422 62e0 	bic.w	r2, r2, #1792	@ 0x700
 8001abe:	0223      	lsls	r3, r4, #8
 8001ac0:	0412      	lsls	r2, r2, #16
 8001ac2:	f403 63e0 	and.w	r3, r3, #1792	@ 0x700
 8001ac6:	0c12      	lsrs	r2, r2, #16
 8001ac8:	4313      	orrs	r3, r2
 8001aca:	f043 63bf 	orr.w	r3, r3, #100139008	@ 0x5f80000
 8001ace:	f443 3300 	orr.w	r3, r3, #131072	@ 0x20000
 8001ad2:	60cb      	str	r3, [r1, #12]
 8001ad4:	bd10      	pop	{r4, pc}
 8001ad6:	bf00      	nop
 8001ad8:	0800a7dd 	.word	0x0800a7dd
 8001adc:	e000ed00 	.word	0xe000ed00

08001ae0 <HAL_NVIC_SetPriority>:
 8001ae0:	2a0f      	cmp	r2, #15
 8001ae2:	b570      	push	{r4, r5, r6, lr}
 8001ae4:	4605      	mov	r5, r0
 8001ae6:	460c      	mov	r4, r1
 8001ae8:	4616      	mov	r6, r2
 8001aea:	d903      	bls.n	8001af4 <HAL_NVIC_SetPriority+0x14>
 8001aec:	481a      	ldr	r0, [pc, #104]	@ (8001b58 <HAL_NVIC_SetPriority+0x78>)
 8001aee:	21a8      	movs	r1, #168	@ 0xa8
 8001af0:	f7ff fabe 	bl	8001070 <assert_failed>
 8001af4:	2c0f      	cmp	r4, #15
 8001af6:	d903      	bls.n	8001b00 <HAL_NVIC_SetPriority+0x20>
 8001af8:	4817      	ldr	r0, [pc, #92]	@ (8001b58 <HAL_NVIC_SetPriority+0x78>)
 8001afa:	21a9      	movs	r1, #169	@ 0xa9
 8001afc:	f7ff fab8 	bl	8001070 <assert_failed>
 8001b00:	4b16      	ldr	r3, [pc, #88]	@ (8001b5c <HAL_NVIC_SetPriority+0x7c>)
 8001b02:	68d9      	ldr	r1, [r3, #12]
 8001b04:	f3c1 2102 	ubfx	r1, r1, #8, #3
 8001b08:	f1c1 0307 	rsb	r3, r1, #7
 8001b0c:	1d0a      	adds	r2, r1, #4
 8001b0e:	2b04      	cmp	r3, #4
 8001b10:	bf28      	it	cs
 8001b12:	2304      	movcs	r3, #4
 8001b14:	2a06      	cmp	r2, #6
 8001b16:	f04f 32ff 	mov.w	r2, #4294967295
 8001b1a:	bf8c      	ite	hi
 8001b1c:	3903      	subhi	r1, #3
 8001b1e:	2100      	movls	r1, #0
 8001b20:	fa02 f303 	lsl.w	r3, r2, r3
 8001b24:	ea24 0303 	bic.w	r3, r4, r3
 8001b28:	408a      	lsls	r2, r1
 8001b2a:	ea26 0602 	bic.w	r6, r6, r2
 8001b2e:	408b      	lsls	r3, r1
 8001b30:	2d00      	cmp	r5, #0
 8001b32:	ea43 0306 	orr.w	r3, r3, r6
 8001b36:	bfac      	ite	ge
 8001b38:	f105 4560 	addge.w	r5, r5, #3758096384	@ 0xe0000000
 8001b3c:	4a08      	ldrlt	r2, [pc, #32]	@ (8001b60 <HAL_NVIC_SetPriority+0x80>)
 8001b3e:	ea4f 1303 	mov.w	r3, r3, lsl #4
 8001b42:	bfb8      	it	lt
 8001b44:	f005 050f 	andlt.w	r5, r5, #15
 8001b48:	b2db      	uxtb	r3, r3
 8001b4a:	bfaa      	itet	ge
 8001b4c:	f505 4561 	addge.w	r5, r5, #57600	@ 0xe100
 8001b50:	5553      	strblt	r3, [r2, r5]
 8001b52:	f885 3300 	strbge.w	r3, [r5, #768]	@ 0x300
 8001b56:	bd70      	pop	{r4, r5, r6, pc}
 8001b58:	0800a7dd 	.word	0x0800a7dd
 8001b5c:	e000ed00 	.word	0xe000ed00
 8001b60:	e000ed14 	.word	0xe000ed14

08001b64 <HAL_NVIC_EnableIRQ>:
 8001b64:	2800      	cmp	r0, #0
 8001b66:	db08      	blt.n	8001b7a <HAL_NVIC_EnableIRQ+0x16>
 8001b68:	0941      	lsrs	r1, r0, #5
 8001b6a:	4a06      	ldr	r2, [pc, #24]	@ (8001b84 <HAL_NVIC_EnableIRQ+0x20>)
 8001b6c:	f000 001f 	and.w	r0, r0, #31
 8001b70:	2301      	movs	r3, #1
 8001b72:	4083      	lsls	r3, r0
 8001b74:	f842 3021 	str.w	r3, [r2, r1, lsl #2]
 8001b78:	4770      	bx	lr
 8001b7a:	4803      	ldr	r0, [pc, #12]	@ (8001b88 <HAL_NVIC_EnableIRQ+0x24>)
 8001b7c:	21bc      	movs	r1, #188	@ 0xbc
 8001b7e:	f7ff ba77 	b.w	8001070 <assert_failed>
 8001b82:	bf00      	nop
 8001b84:	e000e100 	.word	0xe000e100
 8001b88:	0800a7dd 	.word	0x0800a7dd

08001b8c <HAL_NVIC_DisableIRQ>:
 8001b8c:	2800      	cmp	r0, #0
 8001b8e:	db0d      	blt.n	8001bac <HAL_NVIC_DisableIRQ+0x20>
 8001b90:	0943      	lsrs	r3, r0, #5
 8001b92:	4908      	ldr	r1, [pc, #32]	@ (8001bb4 <HAL_NVIC_DisableIRQ+0x28>)
 8001b94:	f000 001f 	and.w	r0, r0, #31
 8001b98:	3320      	adds	r3, #32
 8001b9a:	2201      	movs	r2, #1
 8001b9c:	4082      	lsls	r2, r0
 8001b9e:	f841 2023 	str.w	r2, [r1, r3, lsl #2]
 8001ba2:	f3bf 8f4f 	dsb	sy
 8001ba6:	f3bf 8f6f 	isb	sy
 8001baa:	4770      	bx	lr
 8001bac:	4802      	ldr	r0, [pc, #8]	@ (8001bb8 <HAL_NVIC_DisableIRQ+0x2c>)
 8001bae:	21cc      	movs	r1, #204	@ 0xcc
 8001bb0:	f7ff ba5e 	b.w	8001070 <assert_failed>
 8001bb4:	e000e100 	.word	0xe000e100
 8001bb8:	0800a7dd 	.word	0x0800a7dd

08001bbc <HAL_CRC_Init>:
 8001bbc:	b510      	push	{r4, lr}
 8001bbe:	4604      	mov	r4, r0
 8001bc0:	b198      	cbz	r0, 8001bea <HAL_CRC_Init+0x2e>
 8001bc2:	6802      	ldr	r2, [r0, #0]
 8001bc4:	4b0a      	ldr	r3, [pc, #40]	@ (8001bf0 <HAL_CRC_Init+0x34>)
 8001bc6:	429a      	cmp	r2, r3
 8001bc8:	d003      	beq.n	8001bd2 <HAL_CRC_Init+0x16>
 8001bca:	480a      	ldr	r0, [pc, #40]	@ (8001bf4 <HAL_CRC_Init+0x38>)
 8001bcc:	2168      	movs	r1, #104	@ 0x68
 8001bce:	f7ff fa4f 	bl	8001070 <assert_failed>
 8001bd2:	7963      	ldrb	r3, [r4, #5]
 8001bd4:	f003 02ff 	and.w	r2, r3, #255	@ 0xff
 8001bd8:	b91b      	cbnz	r3, 8001be2 <HAL_CRC_Init+0x26>
 8001bda:	7122      	strb	r2, [r4, #4]
 8001bdc:	4620      	mov	r0, r4
 8001bde:	f7fe fd49 	bl	8000674 <HAL_CRC_MspInit>
 8001be2:	2301      	movs	r3, #1
 8001be4:	7163      	strb	r3, [r4, #5]
 8001be6:	2000      	movs	r0, #0
 8001be8:	bd10      	pop	{r4, pc}
 8001bea:	2001      	movs	r0, #1
 8001bec:	e7fc      	b.n	8001be8 <HAL_CRC_Init+0x2c>
 8001bee:	bf00      	nop
 8001bf0:	40023000 	.word	0x40023000
 8001bf4:	0800a849 	.word	0x0800a849

08001bf8 <DMA_CalcBaseAndBitshift>:
 8001bf8:	6803      	ldr	r3, [r0, #0]
 8001bfa:	b510      	push	{r4, lr}
 8001bfc:	4c08      	ldr	r4, [pc, #32]	@ (8001c20 <DMA_CalcBaseAndBitshift+0x28>)
 8001bfe:	4602      	mov	r2, r0
 8001c00:	b2d9      	uxtb	r1, r3
 8001c02:	3910      	subs	r1, #16
 8001c04:	2018      	movs	r0, #24
 8001c06:	fbb1 f0f0 	udiv	r0, r1, r0
 8001c0a:	5c20      	ldrb	r0, [r4, r0]
 8001c0c:	65d0      	str	r0, [r2, #92]	@ 0x5c
 8001c0e:	f423 707f 	bic.w	r0, r3, #1020	@ 0x3fc
 8001c12:	f020 0003 	bic.w	r0, r0, #3
 8001c16:	295f      	cmp	r1, #95	@ 0x5f
 8001c18:	bf88      	it	hi
 8001c1a:	3004      	addhi	r0, #4
 8001c1c:	6590      	str	r0, [r2, #88]	@ 0x58
 8001c1e:	bd10      	pop	{r4, pc}
 8001c20:	080157d4 	.word	0x080157d4

08001c24 <HAL_DMA_Init>:
 8001c24:	b570      	push	{r4, r5, r6, lr}
 8001c26:	4604      	mov	r4, r0
 8001c28:	f7ff fd40 	bl	80016ac <HAL_GetTick>
 8001c2c:	4605      	mov	r5, r0
 8001c2e:	2c00      	cmp	r4, #0
 8001c30:	f000 8108 	beq.w	8001e44 <HAL_DMA_Init+0x220>
 8001c34:	6823      	ldr	r3, [r4, #0]
 8001c36:	4a8d      	ldr	r2, [pc, #564]	@ (8001e6c <HAL_DMA_Init+0x248>)
 8001c38:	4293      	cmp	r3, r2
 8001c3a:	d031      	beq.n	8001ca0 <HAL_DMA_Init+0x7c>
 8001c3c:	3218      	adds	r2, #24
 8001c3e:	4293      	cmp	r3, r2
 8001c40:	d02e      	beq.n	8001ca0 <HAL_DMA_Init+0x7c>
 8001c42:	3218      	adds	r2, #24
 8001c44:	4293      	cmp	r3, r2
 8001c46:	d02b      	beq.n	8001ca0 <HAL_DMA_Init+0x7c>
 8001c48:	3218      	adds	r2, #24
 8001c4a:	4293      	cmp	r3, r2
 8001c4c:	d028      	beq.n	8001ca0 <HAL_DMA_Init+0x7c>
 8001c4e:	3218      	adds	r2, #24
 8001c50:	4293      	cmp	r3, r2
 8001c52:	d025      	beq.n	8001ca0 <HAL_DMA_Init+0x7c>
 8001c54:	3218      	adds	r2, #24
 8001c56:	4293      	cmp	r3, r2
 8001c58:	d022      	beq.n	8001ca0 <HAL_DMA_Init+0x7c>
 8001c5a:	3218      	adds	r2, #24
 8001c5c:	4293      	cmp	r3, r2
 8001c5e:	d01f      	beq.n	8001ca0 <HAL_DMA_Init+0x7c>
 8001c60:	3218      	adds	r2, #24
 8001c62:	4293      	cmp	r3, r2
 8001c64:	d01c      	beq.n	8001ca0 <HAL_DMA_Init+0x7c>
 8001c66:	f502 7256 	add.w	r2, r2, #856	@ 0x358
 8001c6a:	4293      	cmp	r3, r2
 8001c6c:	d018      	beq.n	8001ca0 <HAL_DMA_Init+0x7c>
 8001c6e:	3218      	adds	r2, #24
 8001c70:	4293      	cmp	r3, r2
 8001c72:	d015      	beq.n	8001ca0 <HAL_DMA_Init+0x7c>
 8001c74:	3218      	adds	r2, #24
 8001c76:	4293      	cmp	r3, r2
 8001c78:	d012      	beq.n	8001ca0 <HAL_DMA_Init+0x7c>
 8001c7a:	3218      	adds	r2, #24
 8001c7c:	4293      	cmp	r3, r2
 8001c7e:	d00f      	beq.n	8001ca0 <HAL_DMA_Init+0x7c>
 8001c80:	3218      	adds	r2, #24
 8001c82:	4293      	cmp	r3, r2
 8001c84:	d00c      	beq.n	8001ca0 <HAL_DMA_Init+0x7c>
 8001c86:	3218      	adds	r2, #24
 8001c88:	4293      	cmp	r3, r2
 8001c8a:	d009      	beq.n	8001ca0 <HAL_DMA_Init+0x7c>
 8001c8c:	3218      	adds	r2, #24
 8001c8e:	4293      	cmp	r3, r2
 8001c90:	d006      	beq.n	8001ca0 <HAL_DMA_Init+0x7c>
 8001c92:	3218      	adds	r2, #24
 8001c94:	4293      	cmp	r3, r2
 8001c96:	d003      	beq.n	8001ca0 <HAL_DMA_Init+0x7c>
 8001c98:	4875      	ldr	r0, [pc, #468]	@ (8001e70 <HAL_DMA_Init+0x24c>)
 8001c9a:	21b7      	movs	r1, #183	@ 0xb7
 8001c9c:	f7ff f9e8 	bl	8001070 <assert_failed>
 8001ca0:	6863      	ldr	r3, [r4, #4]
 8001ca2:	f033 63c0 	bics.w	r3, r3, #100663296	@ 0x6000000
 8001ca6:	d006      	beq.n	8001cb6 <HAL_DMA_Init+0x92>
 8001ca8:	f1b3 6f00 	cmp.w	r3, #134217728	@ 0x8000000
 8001cac:	d003      	beq.n	8001cb6 <HAL_DMA_Init+0x92>
 8001cae:	4870      	ldr	r0, [pc, #448]	@ (8001e70 <HAL_DMA_Init+0x24c>)
 8001cb0:	21b8      	movs	r1, #184	@ 0xb8
 8001cb2:	f7ff f9dd 	bl	8001070 <assert_failed>
 8001cb6:	68a3      	ldr	r3, [r4, #8]
 8001cb8:	f033 0240 	bics.w	r2, r3, #64	@ 0x40
 8001cbc:	d005      	beq.n	8001cca <HAL_DMA_Init+0xa6>
 8001cbe:	2b80      	cmp	r3, #128	@ 0x80
 8001cc0:	d003      	beq.n	8001cca <HAL_DMA_Init+0xa6>
 8001cc2:	486b      	ldr	r0, [pc, #428]	@ (8001e70 <HAL_DMA_Init+0x24c>)
 8001cc4:	21b9      	movs	r1, #185	@ 0xb9
 8001cc6:	f7ff f9d3 	bl	8001070 <assert_failed>
 8001cca:	68e3      	ldr	r3, [r4, #12]
 8001ccc:	f433 7300 	bics.w	r3, r3, #512	@ 0x200
 8001cd0:	d003      	beq.n	8001cda <HAL_DMA_Init+0xb6>
 8001cd2:	4867      	ldr	r0, [pc, #412]	@ (8001e70 <HAL_DMA_Init+0x24c>)
 8001cd4:	21ba      	movs	r1, #186	@ 0xba
 8001cd6:	f7ff f9cb 	bl	8001070 <assert_failed>
 8001cda:	6923      	ldr	r3, [r4, #16]
 8001cdc:	f433 6380 	bics.w	r3, r3, #1024	@ 0x400
 8001ce0:	d003      	beq.n	8001cea <HAL_DMA_Init+0xc6>
 8001ce2:	4863      	ldr	r0, [pc, #396]	@ (8001e70 <HAL_DMA_Init+0x24c>)
 8001ce4:	21bb      	movs	r1, #187	@ 0xbb
 8001ce6:	f7ff f9c3 	bl	8001070 <assert_failed>
 8001cea:	6963      	ldr	r3, [r4, #20]
 8001cec:	f433 6200 	bics.w	r2, r3, #2048	@ 0x800
 8001cf0:	d006      	beq.n	8001d00 <HAL_DMA_Init+0xdc>
 8001cf2:	f5b3 5f80 	cmp.w	r3, #4096	@ 0x1000
 8001cf6:	d003      	beq.n	8001d00 <HAL_DMA_Init+0xdc>
 8001cf8:	485d      	ldr	r0, [pc, #372]	@ (8001e70 <HAL_DMA_Init+0x24c>)
 8001cfa:	21bc      	movs	r1, #188	@ 0xbc
 8001cfc:	f7ff f9b8 	bl	8001070 <assert_failed>
 8001d00:	69a3      	ldr	r3, [r4, #24]
 8001d02:	f433 5200 	bics.w	r2, r3, #8192	@ 0x2000
 8001d06:	d006      	beq.n	8001d16 <HAL_DMA_Init+0xf2>
 8001d08:	f5b3 4f80 	cmp.w	r3, #16384	@ 0x4000
 8001d0c:	d003      	beq.n	8001d16 <HAL_DMA_Init+0xf2>
 8001d0e:	4858      	ldr	r0, [pc, #352]	@ (8001e70 <HAL_DMA_Init+0x24c>)
 8001d10:	21bd      	movs	r1, #189	@ 0xbd
 8001d12:	f7ff f9ad 	bl	8001070 <assert_failed>
 8001d16:	69e3      	ldr	r3, [r4, #28]
 8001d18:	f033 0220 	bics.w	r2, r3, #32
 8001d1c:	d006      	beq.n	8001d2c <HAL_DMA_Init+0x108>
 8001d1e:	f5b3 7f80 	cmp.w	r3, #256	@ 0x100
 8001d22:	d003      	beq.n	8001d2c <HAL_DMA_Init+0x108>
 8001d24:	4852      	ldr	r0, [pc, #328]	@ (8001e70 <HAL_DMA_Init+0x24c>)
 8001d26:	21be      	movs	r1, #190	@ 0xbe
 8001d28:	f7ff f9a2 	bl	8001070 <assert_failed>
 8001d2c:	6a23      	ldr	r3, [r4, #32]
 8001d2e:	f433 3340 	bics.w	r3, r3, #196608	@ 0x30000
 8001d32:	d003      	beq.n	8001d3c <HAL_DMA_Init+0x118>
 8001d34:	484e      	ldr	r0, [pc, #312]	@ (8001e70 <HAL_DMA_Init+0x24c>)
 8001d36:	21bf      	movs	r1, #191	@ 0xbf
 8001d38:	f7ff f99a 	bl	8001070 <assert_failed>
 8001d3c:	6a63      	ldr	r3, [r4, #36]	@ 0x24
 8001d3e:	b303      	cbz	r3, 8001d82 <HAL_DMA_Init+0x15e>
 8001d40:	2b04      	cmp	r3, #4
 8001d42:	d117      	bne.n	8001d74 <HAL_DMA_Init+0x150>
 8001d44:	6aa3      	ldr	r3, [r4, #40]	@ 0x28
 8001d46:	2b03      	cmp	r3, #3
 8001d48:	d903      	bls.n	8001d52 <HAL_DMA_Init+0x12e>
 8001d4a:	4849      	ldr	r0, [pc, #292]	@ (8001e70 <HAL_DMA_Init+0x24c>)
 8001d4c:	21c5      	movs	r1, #197	@ 0xc5
 8001d4e:	f7ff f98f 	bl	8001070 <assert_failed>
 8001d52:	6ae3      	ldr	r3, [r4, #44]	@ 0x2c
 8001d54:	f033 73c0 	bics.w	r3, r3, #25165824	@ 0x1800000
 8001d58:	d003      	beq.n	8001d62 <HAL_DMA_Init+0x13e>
 8001d5a:	4845      	ldr	r0, [pc, #276]	@ (8001e70 <HAL_DMA_Init+0x24c>)
 8001d5c:	21c6      	movs	r1, #198	@ 0xc6
 8001d5e:	f7ff f987 	bl	8001070 <assert_failed>
 8001d62:	6b23      	ldr	r3, [r4, #48]	@ 0x30
 8001d64:	f433 03c0 	bics.w	r3, r3, #6291456	@ 0x600000
 8001d68:	d00b      	beq.n	8001d82 <HAL_DMA_Init+0x15e>
 8001d6a:	4841      	ldr	r0, [pc, #260]	@ (8001e70 <HAL_DMA_Init+0x24c>)
 8001d6c:	21c7      	movs	r1, #199	@ 0xc7
 8001d6e:	f7ff f97f 	bl	8001070 <assert_failed>
 8001d72:	e006      	b.n	8001d82 <HAL_DMA_Init+0x15e>
 8001d74:	483e      	ldr	r0, [pc, #248]	@ (8001e70 <HAL_DMA_Init+0x24c>)
 8001d76:	21c0      	movs	r1, #192	@ 0xc0
 8001d78:	f7ff f97a 	bl	8001070 <assert_failed>
 8001d7c:	6a63      	ldr	r3, [r4, #36]	@ 0x24
 8001d7e:	2b00      	cmp	r3, #0
 8001d80:	d1e0      	bne.n	8001d44 <HAL_DMA_Init+0x120>
 8001d82:	2302      	movs	r3, #2
 8001d84:	f884 3035 	strb.w	r3, [r4, #53]	@ 0x35
 8001d88:	6822      	ldr	r2, [r4, #0]
 8001d8a:	2300      	movs	r3, #0
 8001d8c:	f884 3034 	strb.w	r3, [r4, #52]	@ 0x34
 8001d90:	6813      	ldr	r3, [r2, #0]
 8001d92:	f023 0301 	bic.w	r3, r3, #1
 8001d96:	6013      	str	r3, [r2, #0]
 8001d98:	6822      	ldr	r2, [r4, #0]
 8001d9a:	6813      	ldr	r3, [r2, #0]
 8001d9c:	07d8      	lsls	r0, r3, #31
 8001d9e:	d42e      	bmi.n	8001dfe <HAL_DMA_Init+0x1da>
 8001da0:	6813      	ldr	r3, [r2, #0]
 8001da2:	4834      	ldr	r0, [pc, #208]	@ (8001e74 <HAL_DMA_Init+0x250>)
 8001da4:	69a1      	ldr	r1, [r4, #24]
 8001da6:	4018      	ands	r0, r3
 8001da8:	e9d4 3501 	ldrd	r3, r5, [r4, #4]
 8001dac:	432b      	orrs	r3, r5
 8001dae:	68e5      	ldr	r5, [r4, #12]
 8001db0:	432b      	orrs	r3, r5
 8001db2:	6925      	ldr	r5, [r4, #16]
 8001db4:	432b      	orrs	r3, r5
 8001db6:	6965      	ldr	r5, [r4, #20]
 8001db8:	432b      	orrs	r3, r5
 8001dba:	69e5      	ldr	r5, [r4, #28]
 8001dbc:	430b      	orrs	r3, r1
 8001dbe:	432b      	orrs	r3, r5
 8001dc0:	6a25      	ldr	r5, [r4, #32]
 8001dc2:	432b      	orrs	r3, r5
 8001dc4:	4303      	orrs	r3, r0
 8001dc6:	6a60      	ldr	r0, [r4, #36]	@ 0x24
 8001dc8:	2804      	cmp	r0, #4
 8001dca:	bf02      	ittt	eq
 8001dcc:	e9d4 560b 	ldrdeq	r5, r6, [r4, #44]	@ 0x2c
 8001dd0:	4335      	orreq	r5, r6
 8001dd2:	432b      	orreq	r3, r5
 8001dd4:	6013      	str	r3, [r2, #0]
 8001dd6:	6953      	ldr	r3, [r2, #20]
 8001dd8:	2804      	cmp	r0, #4
 8001dda:	f023 0307 	bic.w	r3, r3, #7
 8001dde:	ea43 0300 	orr.w	r3, r3, r0
 8001de2:	d135      	bne.n	8001e50 <HAL_DMA_Init+0x22c>
 8001de4:	6aa0      	ldr	r0, [r4, #40]	@ 0x28
 8001de6:	6ae5      	ldr	r5, [r4, #44]	@ 0x2c
 8001de8:	4303      	orrs	r3, r0
 8001dea:	b38d      	cbz	r5, 8001e50 <HAL_DMA_Init+0x22c>
 8001dec:	b991      	cbnz	r1, 8001e14 <HAL_DMA_Init+0x1f0>
 8001dee:	2801      	cmp	r0, #1
 8001df0:	d020      	beq.n	8001e34 <HAL_DMA_Init+0x210>
 8001df2:	f030 0102 	bics.w	r1, r0, #2
 8001df6:	d12b      	bne.n	8001e50 <HAL_DMA_Init+0x22c>
 8001df8:	01e9      	lsls	r1, r5, #7
 8001dfa:	d529      	bpl.n	8001e50 <HAL_DMA_Init+0x22c>
 8001dfc:	e01d      	b.n	8001e3a <HAL_DMA_Init+0x216>
 8001dfe:	f7ff fc55 	bl	80016ac <HAL_GetTick>
 8001e02:	1b40      	subs	r0, r0, r5
 8001e04:	2805      	cmp	r0, #5
 8001e06:	d9c7      	bls.n	8001d98 <HAL_DMA_Init+0x174>
 8001e08:	2320      	movs	r3, #32
 8001e0a:	2003      	movs	r0, #3
 8001e0c:	6563      	str	r3, [r4, #84]	@ 0x54
 8001e0e:	f884 0035 	strb.w	r0, [r4, #53]	@ 0x35
 8001e12:	bd70      	pop	{r4, r5, r6, pc}
 8001e14:	f5b1 5f00 	cmp.w	r1, #8192	@ 0x2000
 8001e18:	d116      	bne.n	8001e48 <HAL_DMA_Init+0x224>
 8001e1a:	2803      	cmp	r0, #3
 8001e1c:	d818      	bhi.n	8001e50 <HAL_DMA_Init+0x22c>
 8001e1e:	a101      	add	r1, pc, #4	@ (adr r1, 8001e24 <HAL_DMA_Init+0x200>)
 8001e20:	f851 f020 	ldr.w	pc, [r1, r0, lsl #2]
 8001e24:	08001e3b 	.word	0x08001e3b
 8001e28:	08001df9 	.word	0x08001df9
 8001e2c:	08001e3b 	.word	0x08001e3b
 8001e30:	08001e35 	.word	0x08001e35
 8001e34:	f1b5 7fc0 	cmp.w	r5, #25165824	@ 0x1800000
 8001e38:	d10a      	bne.n	8001e50 <HAL_DMA_Init+0x22c>
 8001e3a:	2340      	movs	r3, #64	@ 0x40
 8001e3c:	6563      	str	r3, [r4, #84]	@ 0x54
 8001e3e:	2301      	movs	r3, #1
 8001e40:	f884 3035 	strb.w	r3, [r4, #53]	@ 0x35
 8001e44:	2001      	movs	r0, #1
 8001e46:	e7e4      	b.n	8001e12 <HAL_DMA_Init+0x1ee>
 8001e48:	2802      	cmp	r0, #2
 8001e4a:	d9f6      	bls.n	8001e3a <HAL_DMA_Init+0x216>
 8001e4c:	2803      	cmp	r0, #3
 8001e4e:	d0d3      	beq.n	8001df8 <HAL_DMA_Init+0x1d4>
 8001e50:	6153      	str	r3, [r2, #20]
 8001e52:	4620      	mov	r0, r4
 8001e54:	f7ff fed0 	bl	8001bf8 <DMA_CalcBaseAndBitshift>
 8001e58:	6de2      	ldr	r2, [r4, #92]	@ 0x5c
 8001e5a:	233f      	movs	r3, #63	@ 0x3f
 8001e5c:	4093      	lsls	r3, r2
 8001e5e:	6083      	str	r3, [r0, #8]
 8001e60:	2000      	movs	r0, #0
 8001e62:	2301      	movs	r3, #1
 8001e64:	6560      	str	r0, [r4, #84]	@ 0x54
 8001e66:	f884 3035 	strb.w	r3, [r4, #53]	@ 0x35
 8001e6a:	e7d2      	b.n	8001e12 <HAL_DMA_Init+0x1ee>
 8001e6c:	40026010 	.word	0x40026010
 8001e70:	0800a8b2 	.word	0x0800a8b2
 8001e74:	f010803f 	.word	0xf010803f

08001e78 <HAL_DMA_DeInit>:
 8001e78:	b538      	push	{r3, r4, r5, lr}
 8001e7a:	4605      	mov	r5, r0
 8001e7c:	2800      	cmp	r0, #0
 8001e7e:	d05c      	beq.n	8001f3a <HAL_DMA_DeInit+0xc2>
 8001e80:	f890 3035 	ldrb.w	r3, [r0, #53]	@ 0x35
 8001e84:	2b02      	cmp	r3, #2
 8001e86:	b2d8      	uxtb	r0, r3
 8001e88:	d056      	beq.n	8001f38 <HAL_DMA_DeInit+0xc0>
 8001e8a:	682b      	ldr	r3, [r5, #0]
 8001e8c:	4a2c      	ldr	r2, [pc, #176]	@ (8001f40 <HAL_DMA_DeInit+0xc8>)
 8001e8e:	4293      	cmp	r3, r2
 8001e90:	d032      	beq.n	8001ef8 <HAL_DMA_DeInit+0x80>
 8001e92:	3218      	adds	r2, #24
 8001e94:	4293      	cmp	r3, r2
 8001e96:	d02f      	beq.n	8001ef8 <HAL_DMA_DeInit+0x80>
 8001e98:	3218      	adds	r2, #24
 8001e9a:	4293      	cmp	r3, r2
 8001e9c:	d02c      	beq.n	8001ef8 <HAL_DMA_DeInit+0x80>
 8001e9e:	3218      	adds	r2, #24
 8001ea0:	4293      	cmp	r3, r2
 8001ea2:	d029      	beq.n	8001ef8 <HAL_DMA_DeInit+0x80>
 8001ea4:	3218      	adds	r2, #24
 8001ea6:	4293      	cmp	r3, r2
 8001ea8:	d026      	beq.n	8001ef8 <HAL_DMA_DeInit+0x80>
 8001eaa:	3218      	adds	r2, #24
 8001eac:	4293      	cmp	r3, r2
 8001eae:	d023      	beq.n	8001ef8 <HAL_DMA_DeInit+0x80>
 8001eb0:	3218      	adds	r2, #24
 8001eb2:	4293      	cmp	r3, r2
 8001eb4:	d020      	beq.n	8001ef8 <HAL_DMA_DeInit+0x80>
 8001eb6:	3218      	adds	r2, #24
 8001eb8:	4293      	cmp	r3, r2
 8001eba:	d01d      	beq.n	8001ef8 <HAL_DMA_DeInit+0x80>
 8001ebc:	f502 7256 	add.w	r2, r2, #856	@ 0x358
 8001ec0:	4293      	cmp	r3, r2
 8001ec2:	d019      	beq.n	8001ef8 <HAL_DMA_DeInit+0x80>
 8001ec4:	3218      	adds	r2, #24
 8001ec6:	4293      	cmp	r3, r2
 8001ec8:	d016      	beq.n	8001ef8 <HAL_DMA_DeInit+0x80>
 8001eca:	3218      	adds	r2, #24
 8001ecc:	4293      	cmp	r3, r2
 8001ece:	d013      	beq.n	8001ef8 <HAL_DMA_DeInit+0x80>
 8001ed0:	3218      	adds	r2, #24
 8001ed2:	4293      	cmp	r3, r2
 8001ed4:	d010      	beq.n	8001ef8 <HAL_DMA_DeInit+0x80>
 8001ed6:	3218      	adds	r2, #24
 8001ed8:	4293      	cmp	r3, r2
 8001eda:	d00d      	beq.n	8001ef8 <HAL_DMA_DeInit+0x80>
 8001edc:	3218      	adds	r2, #24
 8001ede:	4293      	cmp	r3, r2
 8001ee0:	d00a      	beq.n	8001ef8 <HAL_DMA_DeInit+0x80>
 8001ee2:	3218      	adds	r2, #24
 8001ee4:	4293      	cmp	r3, r2
 8001ee6:	d007      	beq.n	8001ef8 <HAL_DMA_DeInit+0x80>
 8001ee8:	3218      	adds	r2, #24
 8001eea:	4293      	cmp	r3, r2
 8001eec:	d004      	beq.n	8001ef8 <HAL_DMA_DeInit+0x80>
 8001eee:	4815      	ldr	r0, [pc, #84]	@ (8001f44 <HAL_DMA_DeInit+0xcc>)
 8001ef0:	f240 1147 	movw	r1, #327	@ 0x147
 8001ef4:	f7ff f8bc 	bl	8001070 <assert_failed>
 8001ef8:	682b      	ldr	r3, [r5, #0]
 8001efa:	681a      	ldr	r2, [r3, #0]
 8001efc:	f022 0201 	bic.w	r2, r2, #1
 8001f00:	2400      	movs	r4, #0
 8001f02:	601a      	str	r2, [r3, #0]
 8001f04:	2221      	movs	r2, #33	@ 0x21
 8001f06:	601c      	str	r4, [r3, #0]
 8001f08:	4628      	mov	r0, r5
 8001f0a:	605c      	str	r4, [r3, #4]
 8001f0c:	609c      	str	r4, [r3, #8]
 8001f0e:	60dc      	str	r4, [r3, #12]
 8001f10:	611c      	str	r4, [r3, #16]
 8001f12:	615a      	str	r2, [r3, #20]
 8001f14:	f7ff fe70 	bl	8001bf8 <DMA_CalcBaseAndBitshift>
 8001f18:	6dea      	ldr	r2, [r5, #92]	@ 0x5c
 8001f1a:	233f      	movs	r3, #63	@ 0x3f
 8001f1c:	4093      	lsls	r3, r2
 8001f1e:	e9c5 440f 	strd	r4, r4, [r5, #60]	@ 0x3c
 8001f22:	e9c5 4411 	strd	r4, r4, [r5, #68]	@ 0x44
 8001f26:	e9c5 4413 	strd	r4, r4, [r5, #76]	@ 0x4c
 8001f2a:	6083      	str	r3, [r0, #8]
 8001f2c:	656c      	str	r4, [r5, #84]	@ 0x54
 8001f2e:	f885 4034 	strb.w	r4, [r5, #52]	@ 0x34
 8001f32:	f885 4035 	strb.w	r4, [r5, #53]	@ 0x35
 8001f36:	4620      	mov	r0, r4
 8001f38:	bd38      	pop	{r3, r4, r5, pc}
 8001f3a:	2001      	movs	r0, #1
 8001f3c:	e7fc      	b.n	8001f38 <HAL_DMA_DeInit+0xc0>
 8001f3e:	bf00      	nop
 8001f40:	40026010 	.word	0x40026010
 8001f44:	0800a8b2 	.word	0x0800a8b2

08001f48 <HAL_DMA_Start_IT>:
 8001f48:	e92d 41f0 	stmdb	sp!, {r4, r5, r6, r7, r8, lr}
 8001f4c:	4615      	mov	r5, r2
 8001f4e:	461f      	mov	r7, r3
 8001f50:	1e5a      	subs	r2, r3, #1
 8001f52:	f64f 73fe 	movw	r3, #65534	@ 0xfffe
 8001f56:	429a      	cmp	r2, r3
 8001f58:	f8d0 8058 	ldr.w	r8, [r0, #88]	@ 0x58
 8001f5c:	4604      	mov	r4, r0
 8001f5e:	460e      	mov	r6, r1
 8001f60:	d904      	bls.n	8001f6c <HAL_DMA_Start_IT+0x24>
 8001f62:	481f      	ldr	r0, [pc, #124]	@ (8001fe0 <HAL_DMA_Start_IT+0x98>)
 8001f64:	f240 11cb 	movw	r1, #459	@ 0x1cb
 8001f68:	f7ff f882 	bl	8001070 <assert_failed>
 8001f6c:	f894 3034 	ldrb.w	r3, [r4, #52]	@ 0x34
 8001f70:	2b01      	cmp	r3, #1
 8001f72:	d033      	beq.n	8001fdc <HAL_DMA_Start_IT+0x94>
 8001f74:	2301      	movs	r3, #1
 8001f76:	f884 3034 	strb.w	r3, [r4, #52]	@ 0x34
 8001f7a:	f894 3035 	ldrb.w	r3, [r4, #53]	@ 0x35
 8001f7e:	2b01      	cmp	r3, #1
 8001f80:	f04f 0300 	mov.w	r3, #0
 8001f84:	d128      	bne.n	8001fd8 <HAL_DMA_Start_IT+0x90>
 8001f86:	6820      	ldr	r0, [r4, #0]
 8001f88:	2202      	movs	r2, #2
 8001f8a:	f884 2035 	strb.w	r2, [r4, #53]	@ 0x35
 8001f8e:	6563      	str	r3, [r4, #84]	@ 0x54
 8001f90:	6803      	ldr	r3, [r0, #0]
 8001f92:	6de2      	ldr	r2, [r4, #92]	@ 0x5c
 8001f94:	f423 2380 	bic.w	r3, r3, #262144	@ 0x40000
 8001f98:	6003      	str	r3, [r0, #0]
 8001f9a:	68a3      	ldr	r3, [r4, #8]
 8001f9c:	6047      	str	r7, [r0, #4]
 8001f9e:	2b40      	cmp	r3, #64	@ 0x40
 8001fa0:	f04f 033f 	mov.w	r3, #63	@ 0x3f
 8001fa4:	fa03 f302 	lsl.w	r3, r3, r2
 8001fa8:	bf0b      	itete	eq
 8001faa:	6085      	streq	r5, [r0, #8]
 8001fac:	6086      	strne	r6, [r0, #8]
 8001fae:	60c6      	streq	r6, [r0, #12]
 8001fb0:	60c5      	strne	r5, [r0, #12]
 8001fb2:	f8c8 3008 	str.w	r3, [r8, #8]
 8001fb6:	6803      	ldr	r3, [r0, #0]
 8001fb8:	f043 0316 	orr.w	r3, r3, #22
 8001fbc:	6003      	str	r3, [r0, #0]
 8001fbe:	6c23      	ldr	r3, [r4, #64]	@ 0x40
 8001fc0:	b11b      	cbz	r3, 8001fca <HAL_DMA_Start_IT+0x82>
 8001fc2:	6803      	ldr	r3, [r0, #0]
 8001fc4:	f043 0308 	orr.w	r3, r3, #8
 8001fc8:	6003      	str	r3, [r0, #0]
 8001fca:	6803      	ldr	r3, [r0, #0]
 8001fcc:	f043 0301 	orr.w	r3, r3, #1
 8001fd0:	6003      	str	r3, [r0, #0]
 8001fd2:	2000      	movs	r0, #0
 8001fd4:	e8bd 81f0 	ldmia.w	sp!, {r4, r5, r6, r7, r8, pc}
 8001fd8:	f884 3034 	strb.w	r3, [r4, #52]	@ 0x34
 8001fdc:	2002      	movs	r0, #2
 8001fde:	e7f9      	b.n	8001fd4 <HAL_DMA_Start_IT+0x8c>
 8001fe0:	0800a8b2 	.word	0x0800a8b2

08001fe4 <HAL_DMA_Abort>:
 8001fe4:	b570      	push	{r4, r5, r6, lr}
 8001fe6:	4604      	mov	r4, r0
 8001fe8:	6d86      	ldr	r6, [r0, #88]	@ 0x58
 8001fea:	f7ff fb5f 	bl	80016ac <HAL_GetTick>
 8001fee:	f894 3035 	ldrb.w	r3, [r4, #53]	@ 0x35
 8001ff2:	2b02      	cmp	r3, #2
 8001ff4:	4605      	mov	r5, r0
 8001ff6:	d006      	beq.n	8002006 <HAL_DMA_Abort+0x22>
 8001ff8:	2380      	movs	r3, #128	@ 0x80
 8001ffa:	6563      	str	r3, [r4, #84]	@ 0x54
 8001ffc:	2001      	movs	r0, #1
 8001ffe:	2300      	movs	r3, #0
 8002000:	f884 3034 	strb.w	r3, [r4, #52]	@ 0x34
 8002004:	bd70      	pop	{r4, r5, r6, pc}
 8002006:	6823      	ldr	r3, [r4, #0]
 8002008:	681a      	ldr	r2, [r3, #0]
 800200a:	f022 0216 	bic.w	r2, r2, #22
 800200e:	601a      	str	r2, [r3, #0]
 8002010:	695a      	ldr	r2, [r3, #20]
 8002012:	f022 0280 	bic.w	r2, r2, #128	@ 0x80
 8002016:	615a      	str	r2, [r3, #20]
 8002018:	6c22      	ldr	r2, [r4, #64]	@ 0x40
 800201a:	b90a      	cbnz	r2, 8002020 <HAL_DMA_Abort+0x3c>
 800201c:	6ca2      	ldr	r2, [r4, #72]	@ 0x48
 800201e:	b11a      	cbz	r2, 8002028 <HAL_DMA_Abort+0x44>
 8002020:	681a      	ldr	r2, [r3, #0]
 8002022:	f022 0208 	bic.w	r2, r2, #8
 8002026:	601a      	str	r2, [r3, #0]
 8002028:	681a      	ldr	r2, [r3, #0]
 800202a:	f022 0201 	bic.w	r2, r2, #1
 800202e:	601a      	str	r2, [r3, #0]
 8002030:	6823      	ldr	r3, [r4, #0]
 8002032:	6818      	ldr	r0, [r3, #0]
 8002034:	f010 0001 	ands.w	r0, r0, #1
 8002038:	d107      	bne.n	800204a <HAL_DMA_Abort+0x66>
 800203a:	6de2      	ldr	r2, [r4, #92]	@ 0x5c
 800203c:	233f      	movs	r3, #63	@ 0x3f
 800203e:	4093      	lsls	r3, r2
 8002040:	60b3      	str	r3, [r6, #8]
 8002042:	2301      	movs	r3, #1
 8002044:	f884 3035 	strb.w	r3, [r4, #53]	@ 0x35
 8002048:	e7d9      	b.n	8001ffe <HAL_DMA_Abort+0x1a>
 800204a:	f7ff fb2f 	bl	80016ac <HAL_GetTick>
 800204e:	1b40      	subs	r0, r0, r5
 8002050:	2805      	cmp	r0, #5
 8002052:	d9ed      	bls.n	8002030 <HAL_DMA_Abort+0x4c>
 8002054:	2320      	movs	r3, #32
 8002056:	2003      	movs	r0, #3
 8002058:	6563      	str	r3, [r4, #84]	@ 0x54
 800205a:	f884 0035 	strb.w	r0, [r4, #53]	@ 0x35
 800205e:	e7ce      	b.n	8001ffe <HAL_DMA_Abort+0x1a>

08002060 <HAL_DMA_Abort_IT>:
 8002060:	f890 3035 	ldrb.w	r3, [r0, #53]	@ 0x35
 8002064:	2b02      	cmp	r3, #2
 8002066:	d003      	beq.n	8002070 <HAL_DMA_Abort_IT+0x10>
 8002068:	2380      	movs	r3, #128	@ 0x80
 800206a:	6543      	str	r3, [r0, #84]	@ 0x54
 800206c:	2001      	movs	r0, #1
 800206e:	4770      	bx	lr
 8002070:	6802      	ldr	r2, [r0, #0]
 8002072:	2305      	movs	r3, #5
 8002074:	f880 3035 	strb.w	r3, [r0, #53]	@ 0x35
 8002078:	6813      	ldr	r3, [r2, #0]
 800207a:	f023 0301 	bic.w	r3, r3, #1
 800207e:	6013      	str	r3, [r2, #0]
 8002080:	2000      	movs	r0, #0
 8002082:	4770      	bx	lr

08002084 <HAL_DMA_IRQHandler>:
 8002084:	b5f7      	push	{r0, r1, r2, r4, r5, r6, r7, lr}
 8002086:	2300      	movs	r3, #0
 8002088:	9301      	str	r3, [sp, #4]
 800208a:	4b5c      	ldr	r3, [pc, #368]	@ (80021fc <HAL_DMA_IRQHandler+0x178>)
 800208c:	6d85      	ldr	r5, [r0, #88]	@ 0x58
 800208e:	681f      	ldr	r7, [r3, #0]
 8002090:	6dc3      	ldr	r3, [r0, #92]	@ 0x5c
 8002092:	682e      	ldr	r6, [r5, #0]
 8002094:	2208      	movs	r2, #8
 8002096:	409a      	lsls	r2, r3
 8002098:	4232      	tst	r2, r6
 800209a:	4604      	mov	r4, r0
 800209c:	d00c      	beq.n	80020b8 <HAL_DMA_IRQHandler+0x34>
 800209e:	6801      	ldr	r1, [r0, #0]
 80020a0:	6808      	ldr	r0, [r1, #0]
 80020a2:	0740      	lsls	r0, r0, #29
 80020a4:	d508      	bpl.n	80020b8 <HAL_DMA_IRQHandler+0x34>
 80020a6:	6808      	ldr	r0, [r1, #0]
 80020a8:	f020 0004 	bic.w	r0, r0, #4
 80020ac:	6008      	str	r0, [r1, #0]
 80020ae:	60aa      	str	r2, [r5, #8]
 80020b0:	6d62      	ldr	r2, [r4, #84]	@ 0x54
 80020b2:	f042 0201 	orr.w	r2, r2, #1
 80020b6:	6562      	str	r2, [r4, #84]	@ 0x54
 80020b8:	2201      	movs	r2, #1
 80020ba:	409a      	lsls	r2, r3
 80020bc:	4232      	tst	r2, r6
 80020be:	d008      	beq.n	80020d2 <HAL_DMA_IRQHandler+0x4e>
 80020c0:	6821      	ldr	r1, [r4, #0]
 80020c2:	6949      	ldr	r1, [r1, #20]
 80020c4:	0609      	lsls	r1, r1, #24
 80020c6:	bf41      	itttt	mi
 80020c8:	60aa      	strmi	r2, [r5, #8]
 80020ca:	6d62      	ldrmi	r2, [r4, #84]	@ 0x54
 80020cc:	f042 0202 	orrmi.w	r2, r2, #2
 80020d0:	6562      	strmi	r2, [r4, #84]	@ 0x54
 80020d2:	2204      	movs	r2, #4
 80020d4:	409a      	lsls	r2, r3
 80020d6:	4232      	tst	r2, r6
 80020d8:	d008      	beq.n	80020ec <HAL_DMA_IRQHandler+0x68>
 80020da:	6821      	ldr	r1, [r4, #0]
 80020dc:	6809      	ldr	r1, [r1, #0]
 80020de:	0788      	lsls	r0, r1, #30
 80020e0:	bf41      	itttt	mi
 80020e2:	60aa      	strmi	r2, [r5, #8]
 80020e4:	6d62      	ldrmi	r2, [r4, #84]	@ 0x54
 80020e6:	f042 0204 	orrmi.w	r2, r2, #4
 80020ea:	6562      	strmi	r2, [r4, #84]	@ 0x54
 80020ec:	2210      	movs	r2, #16
 80020ee:	409a      	lsls	r2, r3
 80020f0:	4232      	tst	r2, r6
 80020f2:	d010      	beq.n	8002116 <HAL_DMA_IRQHandler+0x92>
 80020f4:	6823      	ldr	r3, [r4, #0]
 80020f6:	6819      	ldr	r1, [r3, #0]
 80020f8:	0709      	lsls	r1, r1, #28
 80020fa:	d50c      	bpl.n	8002116 <HAL_DMA_IRQHandler+0x92>
 80020fc:	60aa      	str	r2, [r5, #8]
 80020fe:	681a      	ldr	r2, [r3, #0]
 8002100:	0350      	lsls	r0, r2, #13
 8002102:	d537      	bpl.n	8002174 <HAL_DMA_IRQHandler+0xf0>
 8002104:	681b      	ldr	r3, [r3, #0]
 8002106:	0319      	lsls	r1, r3, #12
 8002108:	d401      	bmi.n	800210e <HAL_DMA_IRQHandler+0x8a>
 800210a:	6c23      	ldr	r3, [r4, #64]	@ 0x40
 800210c:	e000      	b.n	8002110 <HAL_DMA_IRQHandler+0x8c>
 800210e:	6ca3      	ldr	r3, [r4, #72]	@ 0x48
 8002110:	b10b      	cbz	r3, 8002116 <HAL_DMA_IRQHandler+0x92>
 8002112:	4620      	mov	r0, r4
 8002114:	4798      	blx	r3
 8002116:	6de1      	ldr	r1, [r4, #92]	@ 0x5c
 8002118:	2220      	movs	r2, #32
 800211a:	408a      	lsls	r2, r1
 800211c:	4232      	tst	r2, r6
 800211e:	d03a      	beq.n	8002196 <HAL_DMA_IRQHandler+0x112>
 8002120:	6823      	ldr	r3, [r4, #0]
 8002122:	6818      	ldr	r0, [r3, #0]
 8002124:	06c6      	lsls	r6, r0, #27
 8002126:	d536      	bpl.n	8002196 <HAL_DMA_IRQHandler+0x112>
 8002128:	60aa      	str	r2, [r5, #8]
 800212a:	f894 2035 	ldrb.w	r2, [r4, #53]	@ 0x35
 800212e:	2a05      	cmp	r2, #5
 8002130:	681a      	ldr	r2, [r3, #0]
 8002132:	d127      	bne.n	8002184 <HAL_DMA_IRQHandler+0x100>
 8002134:	f022 0216 	bic.w	r2, r2, #22
 8002138:	601a      	str	r2, [r3, #0]
 800213a:	695a      	ldr	r2, [r3, #20]
 800213c:	f022 0280 	bic.w	r2, r2, #128	@ 0x80
 8002140:	615a      	str	r2, [r3, #20]
 8002142:	6c22      	ldr	r2, [r4, #64]	@ 0x40
 8002144:	b90a      	cbnz	r2, 800214a <HAL_DMA_IRQHandler+0xc6>
 8002146:	6ca2      	ldr	r2, [r4, #72]	@ 0x48
 8002148:	b11a      	cbz	r2, 8002152 <HAL_DMA_IRQHandler+0xce>
 800214a:	681a      	ldr	r2, [r3, #0]
 800214c:	f022 0208 	bic.w	r2, r2, #8
 8002150:	601a      	str	r2, [r3, #0]
 8002152:	233f      	movs	r3, #63	@ 0x3f
 8002154:	408b      	lsls	r3, r1
 8002156:	60ab      	str	r3, [r5, #8]
 8002158:	2301      	movs	r3, #1
 800215a:	f884 3035 	strb.w	r3, [r4, #53]	@ 0x35
 800215e:	2300      	movs	r3, #0
 8002160:	f884 3034 	strb.w	r3, [r4, #52]	@ 0x34
 8002164:	6d23      	ldr	r3, [r4, #80]	@ 0x50
 8002166:	2b00      	cmp	r3, #0
 8002168:	d045      	beq.n	80021f6 <HAL_DMA_IRQHandler+0x172>
 800216a:	4620      	mov	r0, r4
 800216c:	b003      	add	sp, #12
 800216e:	e8bd 40f0 	ldmia.w	sp!, {r4, r5, r6, r7, lr}
 8002172:	4718      	bx	r3
 8002174:	681a      	ldr	r2, [r3, #0]
 8002176:	05d2      	lsls	r2, r2, #23
 8002178:	bf5e      	ittt	pl
 800217a:	681a      	ldrpl	r2, [r3, #0]
 800217c:	f022 0208 	bicpl.w	r2, r2, #8
 8002180:	601a      	strpl	r2, [r3, #0]
 8002182:	e7c2      	b.n	800210a <HAL_DMA_IRQHandler+0x86>
 8002184:	0350      	lsls	r0, r2, #13
 8002186:	d527      	bpl.n	80021d8 <HAL_DMA_IRQHandler+0x154>
 8002188:	681b      	ldr	r3, [r3, #0]
 800218a:	0319      	lsls	r1, r3, #12
 800218c:	d431      	bmi.n	80021f2 <HAL_DMA_IRQHandler+0x16e>
 800218e:	6c63      	ldr	r3, [r4, #68]	@ 0x44
 8002190:	b10b      	cbz	r3, 8002196 <HAL_DMA_IRQHandler+0x112>
 8002192:	4620      	mov	r0, r4
 8002194:	4798      	blx	r3
 8002196:	6d63      	ldr	r3, [r4, #84]	@ 0x54
 8002198:	b36b      	cbz	r3, 80021f6 <HAL_DMA_IRQHandler+0x172>
 800219a:	6d63      	ldr	r3, [r4, #84]	@ 0x54
 800219c:	07da      	lsls	r2, r3, #31
 800219e:	d519      	bpl.n	80021d4 <HAL_DMA_IRQHandler+0x150>
 80021a0:	6822      	ldr	r2, [r4, #0]
 80021a2:	f44f 5316 	mov.w	r3, #9600	@ 0x2580
 80021a6:	fbb7 f7f3 	udiv	r7, r7, r3
 80021aa:	2305      	movs	r3, #5
 80021ac:	f884 3035 	strb.w	r3, [r4, #53]	@ 0x35
 80021b0:	6813      	ldr	r3, [r2, #0]
 80021b2:	f023 0301 	bic.w	r3, r3, #1
 80021b6:	6013      	str	r3, [r2, #0]
 80021b8:	9b01      	ldr	r3, [sp, #4]
 80021ba:	3301      	adds	r3, #1
 80021bc:	42bb      	cmp	r3, r7
 80021be:	9301      	str	r3, [sp, #4]
 80021c0:	d802      	bhi.n	80021c8 <HAL_DMA_IRQHandler+0x144>
 80021c2:	6813      	ldr	r3, [r2, #0]
 80021c4:	07db      	lsls	r3, r3, #31
 80021c6:	d4f7      	bmi.n	80021b8 <HAL_DMA_IRQHandler+0x134>
 80021c8:	2301      	movs	r3, #1
 80021ca:	f884 3035 	strb.w	r3, [r4, #53]	@ 0x35
 80021ce:	2300      	movs	r3, #0
 80021d0:	f884 3034 	strb.w	r3, [r4, #52]	@ 0x34
 80021d4:	6ce3      	ldr	r3, [r4, #76]	@ 0x4c
 80021d6:	e7c6      	b.n	8002166 <HAL_DMA_IRQHandler+0xe2>
 80021d8:	681a      	ldr	r2, [r3, #0]
 80021da:	f412 7280 	ands.w	r2, r2, #256	@ 0x100
 80021de:	d108      	bne.n	80021f2 <HAL_DMA_IRQHandler+0x16e>
 80021e0:	6819      	ldr	r1, [r3, #0]
 80021e2:	f021 0110 	bic.w	r1, r1, #16
 80021e6:	6019      	str	r1, [r3, #0]
 80021e8:	2301      	movs	r3, #1
 80021ea:	f884 3035 	strb.w	r3, [r4, #53]	@ 0x35
 80021ee:	f884 2034 	strb.w	r2, [r4, #52]	@ 0x34
 80021f2:	6be3      	ldr	r3, [r4, #60]	@ 0x3c
 80021f4:	e7cc      	b.n	8002190 <HAL_DMA_IRQHandler+0x10c>
 80021f6:	b003      	add	sp, #12
 80021f8:	bdf0      	pop	{r4, r5, r6, r7, pc}
 80021fa:	bf00      	nop
 80021fc:	20000004 	.word	0x20000004

08002200 <HAL_DMA_GetState>:
 8002200:	f890 0035 	ldrb.w	r0, [r0, #53]	@ 0x35
 8002204:	4770      	bx	lr
	...

08002208 <HAL_GPIO_Init>:
 8002208:	4b95      	ldr	r3, [pc, #596]	@ (8002460 <HAL_GPIO_Init+0x258>)
 800220a:	4298      	cmp	r0, r3
 800220c:	e92d 4ff7 	stmdb	sp!, {r0, r1, r2, r4, r5, r6, r7, r8, r9, sl, fp, lr}
 8002210:	4604      	mov	r4, r0
 8002212:	460d      	mov	r5, r1
 8002214:	d017      	beq.n	8002246 <HAL_GPIO_Init+0x3e>
 8002216:	f503 6380 	add.w	r3, r3, #1024	@ 0x400
 800221a:	4298      	cmp	r0, r3
 800221c:	d013      	beq.n	8002246 <HAL_GPIO_Init+0x3e>
 800221e:	f503 6380 	add.w	r3, r3, #1024	@ 0x400
 8002222:	4298      	cmp	r0, r3
 8002224:	d00f      	beq.n	8002246 <HAL_GPIO_Init+0x3e>
 8002226:	f503 6380 	add.w	r3, r3, #1024	@ 0x400
 800222a:	4298      	cmp	r0, r3
 800222c:	d00b      	beq.n	8002246 <HAL_GPIO_Init+0x3e>
 800222e:	f503 6380 	add.w	r3, r3, #1024	@ 0x400
 8002232:	4298      	cmp	r0, r3
 8002234:	d007      	beq.n	8002246 <HAL_GPIO_Init+0x3e>
 8002236:	f503 6340 	add.w	r3, r3, #3072	@ 0xc00
 800223a:	4298      	cmp	r0, r3
 800223c:	d003      	beq.n	8002246 <HAL_GPIO_Init+0x3e>
 800223e:	4889      	ldr	r0, [pc, #548]	@ (8002464 <HAL_GPIO_Init+0x25c>)
 8002240:	21ac      	movs	r1, #172	@ 0xac
 8002242:	f7fe ff15 	bl	8001070 <assert_failed>
 8002246:	682b      	ldr	r3, [r5, #0]
 8002248:	b29a      	uxth	r2, r3
 800224a:	b112      	cbz	r2, 8002252 <HAL_GPIO_Init+0x4a>
 800224c:	f5b3 3f80 	cmp.w	r3, #65536	@ 0x10000
 8002250:	d303      	bcc.n	800225a <HAL_GPIO_Init+0x52>
 8002252:	4884      	ldr	r0, [pc, #528]	@ (8002464 <HAL_GPIO_Init+0x25c>)
 8002254:	21ad      	movs	r1, #173	@ 0xad
 8002256:	f7fe ff0b 	bl	8001070 <assert_failed>
 800225a:	686b      	ldr	r3, [r5, #4]
 800225c:	f5b3 1f04 	cmp.w	r3, #2162688	@ 0x210000
 8002260:	d012      	beq.n	8002288 <HAL_GPIO_Init+0x80>
 8002262:	f200 80ed 	bhi.w	8002440 <HAL_GPIO_Init+0x238>
 8002266:	f5b3 1f88 	cmp.w	r3, #1114112	@ 0x110000
 800226a:	d00d      	beq.n	8002288 <HAL_GPIO_Init+0x80>
 800226c:	d809      	bhi.n	8002282 <HAL_GPIO_Init+0x7a>
 800226e:	2b03      	cmp	r3, #3
 8002270:	d90a      	bls.n	8002288 <HAL_GPIO_Init+0x80>
 8002272:	3b11      	subs	r3, #17
 8002274:	2b01      	cmp	r3, #1
 8002276:	d907      	bls.n	8002288 <HAL_GPIO_Init+0x80>
 8002278:	487a      	ldr	r0, [pc, #488]	@ (8002464 <HAL_GPIO_Init+0x25c>)
 800227a:	21ae      	movs	r1, #174	@ 0xae
 800227c:	f7fe fef8 	bl	8001070 <assert_failed>
 8002280:	e002      	b.n	8002288 <HAL_GPIO_Init+0x80>
 8002282:	f5b3 1f90 	cmp.w	r3, #1179648	@ 0x120000
 8002286:	d1f7      	bne.n	8002278 <HAL_GPIO_Init+0x70>
 8002288:	2700      	movs	r7, #0
 800228a:	f8df 91e4 	ldr.w	r9, [pc, #484]	@ 8002470 <HAL_GPIO_Init+0x268>
 800228e:	f8df 81e4 	ldr.w	r8, [pc, #484]	@ 8002474 <HAL_GPIO_Init+0x26c>
 8002292:	463e      	mov	r6, r7
 8002294:	682b      	ldr	r3, [r5, #0]
 8002296:	f04f 0b01 	mov.w	fp, #1
 800229a:	fa0b fb06 	lsl.w	fp, fp, r6
 800229e:	ea0b 0a03 	and.w	sl, fp, r3
 80022a2:	ea3b 0303 	bics.w	r3, fp, r3
 80022a6:	f040 80c2 	bne.w	800242e <HAL_GPIO_Init+0x226>
 80022aa:	686b      	ldr	r3, [r5, #4]
 80022ac:	f003 0303 	and.w	r3, r3, #3
 80022b0:	3b01      	subs	r3, #1
 80022b2:	2b01      	cmp	r3, #1
 80022b4:	d818      	bhi.n	80022e8 <HAL_GPIO_Init+0xe0>
 80022b6:	68eb      	ldr	r3, [r5, #12]
 80022b8:	2b03      	cmp	r3, #3
 80022ba:	d903      	bls.n	80022c4 <HAL_GPIO_Init+0xbc>
 80022bc:	4869      	ldr	r0, [pc, #420]	@ (8002464 <HAL_GPIO_Init+0x25c>)
 80022be:	21c0      	movs	r1, #192	@ 0xc0
 80022c0:	f7fe fed6 	bl	8001070 <assert_failed>
 80022c4:	68a2      	ldr	r2, [r4, #8]
 80022c6:	2303      	movs	r3, #3
 80022c8:	40bb      	lsls	r3, r7
 80022ca:	ea22 0203 	bic.w	r2, r2, r3
 80022ce:	68eb      	ldr	r3, [r5, #12]
 80022d0:	40bb      	lsls	r3, r7
 80022d2:	4313      	orrs	r3, r2
 80022d4:	60a3      	str	r3, [r4, #8]
 80022d6:	686b      	ldr	r3, [r5, #4]
 80022d8:	6862      	ldr	r2, [r4, #4]
 80022da:	f3c3 1300 	ubfx	r3, r3, #4, #1
 80022de:	ea22 020b 	bic.w	r2, r2, fp
 80022e2:	40b3      	lsls	r3, r6
 80022e4:	4313      	orrs	r3, r2
 80022e6:	6063      	str	r3, [r4, #4]
 80022e8:	686b      	ldr	r3, [r5, #4]
 80022ea:	f003 0303 	and.w	r3, r3, #3
 80022ee:	2b03      	cmp	r3, #3
 80022f0:	d032      	beq.n	8002358 <HAL_GPIO_Init+0x150>
 80022f2:	68ab      	ldr	r3, [r5, #8]
 80022f4:	2b02      	cmp	r3, #2
 80022f6:	d903      	bls.n	8002300 <HAL_GPIO_Init+0xf8>
 80022f8:	485a      	ldr	r0, [pc, #360]	@ (8002464 <HAL_GPIO_Init+0x25c>)
 80022fa:	21d1      	movs	r1, #209	@ 0xd1
 80022fc:	f7fe feb8 	bl	8001070 <assert_failed>
 8002300:	68e2      	ldr	r2, [r4, #12]
 8002302:	2303      	movs	r3, #3
 8002304:	40bb      	lsls	r3, r7
 8002306:	ea22 0203 	bic.w	r2, r2, r3
 800230a:	68ab      	ldr	r3, [r5, #8]
 800230c:	40bb      	lsls	r3, r7
 800230e:	4313      	orrs	r3, r2
 8002310:	60e3      	str	r3, [r4, #12]
 8002312:	686b      	ldr	r3, [r5, #4]
 8002314:	f003 0303 	and.w	r3, r3, #3
 8002318:	2b02      	cmp	r3, #2
 800231a:	d11d      	bne.n	8002358 <HAL_GPIO_Init+0x150>
 800231c:	692b      	ldr	r3, [r5, #16]
 800231e:	b163      	cbz	r3, 800233a <HAL_GPIO_Init+0x132>
 8002320:	3b01      	subs	r3, #1
 8002322:	2b0e      	cmp	r3, #14
 8002324:	d805      	bhi.n	8002332 <HAL_GPIO_Init+0x12a>
 8002326:	f644 32ff 	movw	r2, #19455	@ 0x4bff
 800232a:	fa22 f303 	lsr.w	r3, r2, r3
 800232e:	07db      	lsls	r3, r3, #31
 8002330:	d403      	bmi.n	800233a <HAL_GPIO_Init+0x132>
 8002332:	484c      	ldr	r0, [pc, #304]	@ (8002464 <HAL_GPIO_Init+0x25c>)
 8002334:	21de      	movs	r1, #222	@ 0xde
 8002336:	f7fe fe9b 	bl	8001070 <assert_failed>
 800233a:	08f2      	lsrs	r2, r6, #3
 800233c:	eb04 0282 	add.w	r2, r4, r2, lsl #2
 8002340:	f006 0107 	and.w	r1, r6, #7
 8002344:	6a10      	ldr	r0, [r2, #32]
 8002346:	0089      	lsls	r1, r1, #2
 8002348:	230f      	movs	r3, #15
 800234a:	408b      	lsls	r3, r1
 800234c:	ea20 0003 	bic.w	r0, r0, r3
 8002350:	692b      	ldr	r3, [r5, #16]
 8002352:	408b      	lsls	r3, r1
 8002354:	4303      	orrs	r3, r0
 8002356:	6213      	str	r3, [r2, #32]
 8002358:	6820      	ldr	r0, [r4, #0]
 800235a:	2303      	movs	r3, #3
 800235c:	fa03 f207 	lsl.w	r2, r3, r7
 8002360:	ea20 0002 	bic.w	r0, r0, r2
 8002364:	686a      	ldr	r2, [r5, #4]
 8002366:	ea02 0103 	and.w	r1, r2, r3
 800236a:	40b9      	lsls	r1, r7
 800236c:	4301      	orrs	r1, r0
 800236e:	f412 3f40 	tst.w	r2, #196608	@ 0x30000
 8002372:	6021      	str	r1, [r4, #0]
 8002374:	d05b      	beq.n	800242e <HAL_GPIO_Init+0x226>
 8002376:	493c      	ldr	r1, [pc, #240]	@ (8002468 <HAL_GPIO_Init+0x260>)
 8002378:	f04f 0b00 	mov.w	fp, #0
 800237c:	f8cd b004 	str.w	fp, [sp, #4]
 8002380:	6c48      	ldr	r0, [r1, #68]	@ 0x44
 8002382:	f440 4080 	orr.w	r0, r0, #16384	@ 0x4000
 8002386:	6448      	str	r0, [r1, #68]	@ 0x44
 8002388:	6c49      	ldr	r1, [r1, #68]	@ 0x44
 800238a:	f401 4180 	and.w	r1, r1, #16384	@ 0x4000
 800238e:	9101      	str	r1, [sp, #4]
 8002390:	9901      	ldr	r1, [sp, #4]
 8002392:	f026 0103 	bic.w	r1, r6, #3
 8002396:	f101 4180 	add.w	r1, r1, #1073741824	@ 0x40000000
 800239a:	f501 319c 	add.w	r1, r1, #79872	@ 0x13800
 800239e:	ea06 0c03 	and.w	ip, r6, r3
 80023a2:	6888      	ldr	r0, [r1, #8]
 80023a4:	ea4f 0c8c 	mov.w	ip, ip, lsl #2
 80023a8:	f04f 0e0f 	mov.w	lr, #15
 80023ac:	fa0e fe0c 	lsl.w	lr, lr, ip
 80023b0:	ea20 000e 	bic.w	r0, r0, lr
 80023b4:	f8df e0a8 	ldr.w	lr, [pc, #168]	@ 8002460 <HAL_GPIO_Init+0x258>
 80023b8:	4574      	cmp	r4, lr
 80023ba:	d04a      	beq.n	8002452 <HAL_GPIO_Init+0x24a>
 80023bc:	4544      	cmp	r4, r8
 80023be:	d04a      	beq.n	8002456 <HAL_GPIO_Init+0x24e>
 80023c0:	f50e 6e00 	add.w	lr, lr, #2048	@ 0x800
 80023c4:	4574      	cmp	r4, lr
 80023c6:	d048      	beq.n	800245a <HAL_GPIO_Init+0x252>
 80023c8:	f50e 6e80 	add.w	lr, lr, #1024	@ 0x400
 80023cc:	4574      	cmp	r4, lr
 80023ce:	d004      	beq.n	80023da <HAL_GPIO_Init+0x1d2>
 80023d0:	4b26      	ldr	r3, [pc, #152]	@ (800246c <HAL_GPIO_Init+0x264>)
 80023d2:	429c      	cmp	r4, r3
 80023d4:	bf14      	ite	ne
 80023d6:	2307      	movne	r3, #7
 80023d8:	2304      	moveq	r3, #4
 80023da:	fa03 f30c 	lsl.w	r3, r3, ip
 80023de:	4303      	orrs	r3, r0
 80023e0:	608b      	str	r3, [r1, #8]
 80023e2:	f8d9 3008 	ldr.w	r3, [r9, #8]
 80023e6:	ea6f 010a 	mvn.w	r1, sl
 80023ea:	02d0      	lsls	r0, r2, #11
 80023ec:	bf54      	ite	pl
 80023ee:	400b      	andpl	r3, r1
 80023f0:	ea4a 0303 	orrmi.w	r3, sl, r3
 80023f4:	f8c9 3008 	str.w	r3, [r9, #8]
 80023f8:	f8d9 300c 	ldr.w	r3, [r9, #12]
 80023fc:	0290      	lsls	r0, r2, #10
 80023fe:	bf54      	ite	pl
 8002400:	400b      	andpl	r3, r1
 8002402:	ea4a 0303 	orrmi.w	r3, sl, r3
 8002406:	f8c9 300c 	str.w	r3, [r9, #12]
 800240a:	f8d9 3004 	ldr.w	r3, [r9, #4]
 800240e:	0390      	lsls	r0, r2, #14
 8002410:	bf54      	ite	pl
 8002412:	400b      	andpl	r3, r1
 8002414:	ea4a 0303 	orrmi.w	r3, sl, r3
 8002418:	f8c9 3004 	str.w	r3, [r9, #4]
 800241c:	f8d9 3000 	ldr.w	r3, [r9]
 8002420:	03d2      	lsls	r2, r2, #15
 8002422:	bf54      	ite	pl
 8002424:	400b      	andpl	r3, r1
 8002426:	ea4a 0303 	orrmi.w	r3, sl, r3
 800242a:	f8c9 3000 	str.w	r3, [r9]
 800242e:	3601      	adds	r6, #1
 8002430:	2e10      	cmp	r6, #16
 8002432:	f107 0702 	add.w	r7, r7, #2
 8002436:	f47f af2d 	bne.w	8002294 <HAL_GPIO_Init+0x8c>
 800243a:	b003      	add	sp, #12
 800243c:	e8bd 8ff0 	ldmia.w	sp!, {r4, r5, r6, r7, r8, r9, sl, fp, pc}
 8002440:	f5b3 1f44 	cmp.w	r3, #3211264	@ 0x310000
 8002444:	f43f af20 	beq.w	8002288 <HAL_GPIO_Init+0x80>
 8002448:	f423 1380 	bic.w	r3, r3, #1048576	@ 0x100000
 800244c:	f5b3 1f08 	cmp.w	r3, #2228224	@ 0x220000
 8002450:	e719      	b.n	8002286 <HAL_GPIO_Init+0x7e>
 8002452:	465b      	mov	r3, fp
 8002454:	e7c1      	b.n	80023da <HAL_GPIO_Init+0x1d2>
 8002456:	2301      	movs	r3, #1
 8002458:	e7bf      	b.n	80023da <HAL_GPIO_Init+0x1d2>
 800245a:	2302      	movs	r3, #2
 800245c:	e7bd      	b.n	80023da <HAL_GPIO_Init+0x1d2>
 800245e:	bf00      	nop
 8002460:	40020000 	.word	0x40020000
 8002464:	0800a91b 	.word	0x0800a91b
 8002468:	40023800 	.word	0x40023800
 800246c:	40021000 	.word	0x40021000
 8002470:	40013c00 	.word	0x40013c00
 8002474:	40020400 	.word	0x40020400

08002478 <HAL_GPIO_DeInit>:
 8002478:	e92d 4ff8 	stmdb	sp!, {r3, r4, r5, r6, r7, r8, r9, sl, fp, lr}
 800247c:	4b49      	ldr	r3, [pc, #292]	@ (80025a4 <HAL_GPIO_DeInit+0x12c>)
 800247e:	4298      	cmp	r0, r3
 8002480:	4604      	mov	r4, r0
 8002482:	460e      	mov	r6, r1
 8002484:	d018      	beq.n	80024b8 <HAL_GPIO_DeInit+0x40>
 8002486:	f503 6380 	add.w	r3, r3, #1024	@ 0x400
 800248a:	4298      	cmp	r0, r3
 800248c:	d014      	beq.n	80024b8 <HAL_GPIO_DeInit+0x40>
 800248e:	f503 6380 	add.w	r3, r3, #1024	@ 0x400
 8002492:	4298      	cmp	r0, r3
 8002494:	d010      	beq.n	80024b8 <HAL_GPIO_DeInit+0x40>
 8002496:	f503 6380 	add.w	r3, r3, #1024	@ 0x400
 800249a:	4298      	cmp	r0, r3
 800249c:	d00c      	beq.n	80024b8 <HAL_GPIO_DeInit+0x40>
 800249e:	f503 6380 	add.w	r3, r3, #1024	@ 0x400
 80024a2:	4298      	cmp	r0, r3
 80024a4:	d008      	beq.n	80024b8 <HAL_GPIO_DeInit+0x40>
 80024a6:	f503 6340 	add.w	r3, r3, #3072	@ 0xc00
 80024aa:	4298      	cmp	r0, r3
 80024ac:	d004      	beq.n	80024b8 <HAL_GPIO_DeInit+0x40>
 80024ae:	483e      	ldr	r0, [pc, #248]	@ (80025a8 <HAL_GPIO_DeInit+0x130>)
 80024b0:	f44f 7197 	mov.w	r1, #302	@ 0x12e
 80024b4:	f7fe fddc 	bl	8001070 <assert_failed>
 80024b8:	4a3c      	ldr	r2, [pc, #240]	@ (80025ac <HAL_GPIO_DeInit+0x134>)
 80024ba:	2300      	movs	r3, #0
 80024bc:	f04f 0a01 	mov.w	sl, #1
 80024c0:	f04f 080f 	mov.w	r8, #15
 80024c4:	f04f 0b03 	mov.w	fp, #3
 80024c8:	fa0a fc03 	lsl.w	ip, sl, r3
 80024cc:	ea3c 0006 	bics.w	r0, ip, r6
 80024d0:	ea0c 0106 	and.w	r1, ip, r6
 80024d4:	d158      	bne.n	8002588 <HAL_GPIO_DeInit+0x110>
 80024d6:	f023 0003 	bic.w	r0, r3, #3
 80024da:	f100 4080 	add.w	r0, r0, #1073741824	@ 0x40000000
 80024de:	f500 309c 	add.w	r0, r0, #79872	@ 0x13800
 80024e2:	f003 0703 	and.w	r7, r3, #3
 80024e6:	6885      	ldr	r5, [r0, #8]
 80024e8:	00bf      	lsls	r7, r7, #2
 80024ea:	fa08 f907 	lsl.w	r9, r8, r7
 80024ee:	ea09 0e05 	and.w	lr, r9, r5
 80024f2:	4d2c      	ldr	r5, [pc, #176]	@ (80025a4 <HAL_GPIO_DeInit+0x12c>)
 80024f4:	42ac      	cmp	r4, r5
 80024f6:	d04c      	beq.n	8002592 <HAL_GPIO_DeInit+0x11a>
 80024f8:	f505 6580 	add.w	r5, r5, #1024	@ 0x400
 80024fc:	42ac      	cmp	r4, r5
 80024fe:	d04a      	beq.n	8002596 <HAL_GPIO_DeInit+0x11e>
 8002500:	f505 6580 	add.w	r5, r5, #1024	@ 0x400
 8002504:	42ac      	cmp	r4, r5
 8002506:	d048      	beq.n	800259a <HAL_GPIO_DeInit+0x122>
 8002508:	f505 6580 	add.w	r5, r5, #1024	@ 0x400
 800250c:	42ac      	cmp	r4, r5
 800250e:	d046      	beq.n	800259e <HAL_GPIO_DeInit+0x126>
 8002510:	f505 6580 	add.w	r5, r5, #1024	@ 0x400
 8002514:	42ac      	cmp	r4, r5
 8002516:	bf14      	ite	ne
 8002518:	2507      	movne	r5, #7
 800251a:	2504      	moveq	r5, #4
 800251c:	40bd      	lsls	r5, r7
 800251e:	4575      	cmp	r5, lr
 8002520:	d113      	bne.n	800254a <HAL_GPIO_DeInit+0xd2>
 8002522:	6815      	ldr	r5, [r2, #0]
 8002524:	ea25 0501 	bic.w	r5, r5, r1
 8002528:	6015      	str	r5, [r2, #0]
 800252a:	6855      	ldr	r5, [r2, #4]
 800252c:	ea25 0501 	bic.w	r5, r5, r1
 8002530:	6055      	str	r5, [r2, #4]
 8002532:	68d5      	ldr	r5, [r2, #12]
 8002534:	ea25 0501 	bic.w	r5, r5, r1
 8002538:	60d5      	str	r5, [r2, #12]
 800253a:	6895      	ldr	r5, [r2, #8]
 800253c:	ea25 0501 	bic.w	r5, r5, r1
 8002540:	6095      	str	r5, [r2, #8]
 8002542:	6881      	ldr	r1, [r0, #8]
 8002544:	ea21 0109 	bic.w	r1, r1, r9
 8002548:	6081      	str	r1, [r0, #8]
 800254a:	6820      	ldr	r0, [r4, #0]
 800254c:	0059      	lsls	r1, r3, #1
 800254e:	fa0b f101 	lsl.w	r1, fp, r1
 8002552:	08dd      	lsrs	r5, r3, #3
 8002554:	ea20 0001 	bic.w	r0, r0, r1
 8002558:	eb04 0585 	add.w	r5, r4, r5, lsl #2
 800255c:	6020      	str	r0, [r4, #0]
 800255e:	f003 0007 	and.w	r0, r3, #7
 8002562:	6a2f      	ldr	r7, [r5, #32]
 8002564:	0080      	lsls	r0, r0, #2
 8002566:	fa08 f000 	lsl.w	r0, r8, r0
 800256a:	ea27 0700 	bic.w	r7, r7, r0
 800256e:	622f      	str	r7, [r5, #32]
 8002570:	68e0      	ldr	r0, [r4, #12]
 8002572:	ea20 0001 	bic.w	r0, r0, r1
 8002576:	60e0      	str	r0, [r4, #12]
 8002578:	6860      	ldr	r0, [r4, #4]
 800257a:	ea20 000c 	bic.w	r0, r0, ip
 800257e:	6060      	str	r0, [r4, #4]
 8002580:	68a0      	ldr	r0, [r4, #8]
 8002582:	ea20 0101 	bic.w	r1, r0, r1
 8002586:	60a1      	str	r1, [r4, #8]
 8002588:	3301      	adds	r3, #1
 800258a:	2b10      	cmp	r3, #16
 800258c:	d19c      	bne.n	80024c8 <HAL_GPIO_DeInit+0x50>
 800258e:	e8bd 8ff8 	ldmia.w	sp!, {r3, r4, r5, r6, r7, r8, r9, sl, fp, pc}
 8002592:	2500      	movs	r5, #0
 8002594:	e7c2      	b.n	800251c <HAL_GPIO_DeInit+0xa4>
 8002596:	2501      	movs	r5, #1
 8002598:	e7c0      	b.n	800251c <HAL_GPIO_DeInit+0xa4>
 800259a:	2502      	movs	r5, #2
 800259c:	e7be      	b.n	800251c <HAL_GPIO_DeInit+0xa4>
 800259e:	2503      	movs	r5, #3
 80025a0:	e7bc      	b.n	800251c <HAL_GPIO_DeInit+0xa4>
 80025a2:	bf00      	nop
 80025a4:	40020000 	.word	0x40020000
 80025a8:	0800a91b 	.word	0x0800a91b
 80025ac:	40013c00 	.word	0x40013c00

080025b0 <HAL_GPIO_ReadPin>:
 80025b0:	b538      	push	{r3, r4, r5, lr}
 80025b2:	4605      	mov	r5, r0
 80025b4:	460c      	mov	r4, r1
 80025b6:	b921      	cbnz	r1, 80025c2 <HAL_GPIO_ReadPin+0x12>
 80025b8:	4805      	ldr	r0, [pc, #20]	@ (80025d0 <HAL_GPIO_ReadPin+0x20>)
 80025ba:	f44f 71be 	mov.w	r1, #380	@ 0x17c
 80025be:	f7fe fd57 	bl	8001070 <assert_failed>
 80025c2:	692b      	ldr	r3, [r5, #16]
 80025c4:	421c      	tst	r4, r3
 80025c6:	bf14      	ite	ne
 80025c8:	2001      	movne	r0, #1
 80025ca:	2000      	moveq	r0, #0
 80025cc:	bd38      	pop	{r3, r4, r5, pc}
 80025ce:	bf00      	nop
 80025d0:	0800a91b 	.word	0x0800a91b

080025d4 <HAL_GPIO_WritePin>:
 80025d4:	b570      	push	{r4, r5, r6, lr}
 80025d6:	4605      	mov	r5, r0
 80025d8:	4616      	mov	r6, r2
 80025da:	460c      	mov	r4, r1
 80025dc:	b921      	cbnz	r1, 80025e8 <HAL_GPIO_WritePin+0x14>
 80025de:	4809      	ldr	r0, [pc, #36]	@ (8002604 <HAL_GPIO_WritePin+0x30>)
 80025e0:	f240 119d 	movw	r1, #413	@ 0x19d
 80025e4:	f7fe fd44 	bl	8001070 <assert_failed>
 80025e8:	2e01      	cmp	r6, #1
 80025ea:	d906      	bls.n	80025fa <HAL_GPIO_WritePin+0x26>
 80025ec:	4805      	ldr	r0, [pc, #20]	@ (8002604 <HAL_GPIO_WritePin+0x30>)
 80025ee:	f44f 71cf 	mov.w	r1, #414	@ 0x19e
 80025f2:	f7fe fd3d 	bl	8001070 <assert_failed>
 80025f6:	61ac      	str	r4, [r5, #24]
 80025f8:	bd70      	pop	{r4, r5, r6, pc}
 80025fa:	2e00      	cmp	r6, #0
 80025fc:	d1fb      	bne.n	80025f6 <HAL_GPIO_WritePin+0x22>
 80025fe:	0424      	lsls	r4, r4, #16
 8002600:	e7f9      	b.n	80025f6 <HAL_GPIO_WritePin+0x22>
 8002602:	bf00      	nop
 8002604:	0800a91b 	.word	0x0800a91b

08002608 <HAL_GPIO_TogglePin>:
 8002608:	b538      	push	{r3, r4, r5, lr}
 800260a:	4605      	mov	r5, r0
 800260c:	460c      	mov	r4, r1
 800260e:	b921      	cbnz	r1, 800261a <HAL_GPIO_TogglePin+0x12>
 8002610:	4806      	ldr	r0, [pc, #24]	@ (800262c <HAL_GPIO_TogglePin+0x24>)
 8002612:	f44f 71db 	mov.w	r1, #438	@ 0x1b6
 8002616:	f7fe fd2b 	bl	8001070 <assert_failed>
 800261a:	696b      	ldr	r3, [r5, #20]
 800261c:	ea04 0203 	and.w	r2, r4, r3
 8002620:	ea24 0403 	bic.w	r4, r4, r3
 8002624:	ea44 4402 	orr.w	r4, r4, r2, lsl #16
 8002628:	61ac      	str	r4, [r5, #24]
 800262a:	bd38      	pop	{r3, r4, r5, pc}
 800262c:	0800a91b 	.word	0x0800a91b

08002630 <HAL_I2C_Init>:
 8002630:	b570      	push	{r4, r5, r6, lr}
 8002632:	4604      	mov	r4, r0
 8002634:	b908      	cbnz	r0, 800263a <HAL_I2C_Init+0xa>
 8002636:	2001      	movs	r0, #1
 8002638:	bd70      	pop	{r4, r5, r6, pc}
 800263a:	6803      	ldr	r3, [r0, #0]
 800263c:	4a7b      	ldr	r2, [pc, #492]	@ (800282c <HAL_I2C_Init+0x1fc>)
 800263e:	4293      	cmp	r3, r2
 8002640:	d00c      	beq.n	800265c <HAL_I2C_Init+0x2c>
 8002642:	f502 6280 	add.w	r2, r2, #1024	@ 0x400
 8002646:	4293      	cmp	r3, r2
 8002648:	d008      	beq.n	800265c <HAL_I2C_Init+0x2c>
 800264a:	f502 6280 	add.w	r2, r2, #1024	@ 0x400
 800264e:	4293      	cmp	r3, r2
 8002650:	d004      	beq.n	800265c <HAL_I2C_Init+0x2c>
 8002652:	4877      	ldr	r0, [pc, #476]	@ (8002830 <HAL_I2C_Init+0x200>)
 8002654:	f44f 71df 	mov.w	r1, #446	@ 0x1be
 8002658:	f7fe fd0a 	bl	8001070 <assert_failed>
 800265c:	6863      	ldr	r3, [r4, #4]
 800265e:	4a75      	ldr	r2, [pc, #468]	@ (8002834 <HAL_I2C_Init+0x204>)
 8002660:	3b01      	subs	r3, #1
 8002662:	4293      	cmp	r3, r2
 8002664:	d904      	bls.n	8002670 <HAL_I2C_Init+0x40>
 8002666:	4872      	ldr	r0, [pc, #456]	@ (8002830 <HAL_I2C_Init+0x200>)
 8002668:	f240 11bf 	movw	r1, #447	@ 0x1bf
 800266c:	f7fe fd00 	bl	8001070 <assert_failed>
 8002670:	68a3      	ldr	r3, [r4, #8]
 8002672:	f433 4380 	bics.w	r3, r3, #16384	@ 0x4000
 8002676:	d004      	beq.n	8002682 <HAL_I2C_Init+0x52>
 8002678:	486d      	ldr	r0, [pc, #436]	@ (8002830 <HAL_I2C_Init+0x200>)
 800267a:	f44f 71e0 	mov.w	r1, #448	@ 0x1c0
 800267e:	f7fe fcf7 	bl	8001070 <assert_failed>
 8002682:	68e3      	ldr	r3, [r4, #12]
 8002684:	f5b3 6f80 	cmp.w	r3, #1024	@ 0x400
 8002688:	d304      	bcc.n	8002694 <HAL_I2C_Init+0x64>
 800268a:	4869      	ldr	r0, [pc, #420]	@ (8002830 <HAL_I2C_Init+0x200>)
 800268c:	f240 11c1 	movw	r1, #449	@ 0x1c1
 8002690:	f7fe fcee 	bl	8001070 <assert_failed>
 8002694:	6923      	ldr	r3, [r4, #16]
 8002696:	f423 4300 	bic.w	r3, r3, #32768	@ 0x8000
 800269a:	f5b3 4f80 	cmp.w	r3, #16384	@ 0x4000
 800269e:	d004      	beq.n	80026aa <HAL_I2C_Init+0x7a>
 80026a0:	4863      	ldr	r0, [pc, #396]	@ (8002830 <HAL_I2C_Init+0x200>)
 80026a2:	f44f 71e1 	mov.w	r1, #450	@ 0x1c2
 80026a6:	f7fe fce3 	bl	8001070 <assert_failed>
 80026aa:	6963      	ldr	r3, [r4, #20]
 80026ac:	2b01      	cmp	r3, #1
 80026ae:	d904      	bls.n	80026ba <HAL_I2C_Init+0x8a>
 80026b0:	485f      	ldr	r0, [pc, #380]	@ (8002830 <HAL_I2C_Init+0x200>)
 80026b2:	f240 11c3 	movw	r1, #451	@ 0x1c3
 80026b6:	f7fe fcdb 	bl	8001070 <assert_failed>
 80026ba:	69a3      	ldr	r3, [r4, #24]
 80026bc:	f033 03fe 	bics.w	r3, r3, #254	@ 0xfe
 80026c0:	d004      	beq.n	80026cc <HAL_I2C_Init+0x9c>
 80026c2:	485b      	ldr	r0, [pc, #364]	@ (8002830 <HAL_I2C_Init+0x200>)
 80026c4:	f44f 71e2 	mov.w	r1, #452	@ 0x1c4
 80026c8:	f7fe fcd2 	bl	8001070 <assert_failed>
 80026cc:	69e3      	ldr	r3, [r4, #28]
 80026ce:	f033 0340 	bics.w	r3, r3, #64	@ 0x40
 80026d2:	d004      	beq.n	80026de <HAL_I2C_Init+0xae>
 80026d4:	4856      	ldr	r0, [pc, #344]	@ (8002830 <HAL_I2C_Init+0x200>)
 80026d6:	f240 11c5 	movw	r1, #453	@ 0x1c5
 80026da:	f7fe fcc9 	bl	8001070 <assert_failed>
 80026de:	6a23      	ldr	r3, [r4, #32]
 80026e0:	f033 0380 	bics.w	r3, r3, #128	@ 0x80
 80026e4:	d004      	beq.n	80026f0 <HAL_I2C_Init+0xc0>
 80026e6:	4852      	ldr	r0, [pc, #328]	@ (8002830 <HAL_I2C_Init+0x200>)
 80026e8:	f44f 71e3 	mov.w	r1, #454	@ 0x1c6
 80026ec:	f7fe fcc0 	bl	8001070 <assert_failed>
 80026f0:	f894 303d 	ldrb.w	r3, [r4, #61]	@ 0x3d
 80026f4:	f003 02ff 	and.w	r2, r3, #255	@ 0xff
 80026f8:	b923      	cbnz	r3, 8002704 <HAL_I2C_Init+0xd4>
 80026fa:	f884 203c 	strb.w	r2, [r4, #60]	@ 0x3c
 80026fe:	4620      	mov	r0, r4
 8002700:	f7fe fb8c 	bl	8000e1c <HAL_I2C_MspInit>
 8002704:	2324      	movs	r3, #36	@ 0x24
 8002706:	f884 303d 	strb.w	r3, [r4, #61]	@ 0x3d
 800270a:	6823      	ldr	r3, [r4, #0]
 800270c:	681a      	ldr	r2, [r3, #0]
 800270e:	f022 0201 	bic.w	r2, r2, #1
 8002712:	601a      	str	r2, [r3, #0]
 8002714:	681a      	ldr	r2, [r3, #0]
 8002716:	f442 4200 	orr.w	r2, r2, #32768	@ 0x8000
 800271a:	601a      	str	r2, [r3, #0]
 800271c:	681a      	ldr	r2, [r3, #0]
 800271e:	f422 4200 	bic.w	r2, r2, #32768	@ 0x8000
 8002722:	601a      	str	r2, [r3, #0]
 8002724:	f001 feda 	bl	80044dc <HAL_RCC_GetPCLK1Freq>
 8002728:	4a43      	ldr	r2, [pc, #268]	@ (8002838 <HAL_I2C_Init+0x208>)
 800272a:	4603      	mov	r3, r0
 800272c:	6860      	ldr	r0, [r4, #4]
 800272e:	4290      	cmp	r0, r2
 8002730:	bf94      	ite	ls
 8002732:	4a42      	ldrls	r2, [pc, #264]	@ (800283c <HAL_I2C_Init+0x20c>)
 8002734:	4a42      	ldrhi	r2, [pc, #264]	@ (8002840 <HAL_I2C_Init+0x210>)
 8002736:	4293      	cmp	r3, r2
 8002738:	bf8c      	ite	hi
 800273a:	2200      	movhi	r2, #0
 800273c:	2201      	movls	r2, #1
 800273e:	2a00      	cmp	r2, #0
 8002740:	f47f af79 	bne.w	8002636 <HAL_I2C_Init+0x6>
 8002744:	6822      	ldr	r2, [r4, #0]
 8002746:	4e3c      	ldr	r6, [pc, #240]	@ (8002838 <HAL_I2C_Init+0x208>)
 8002748:	6855      	ldr	r5, [r2, #4]
 800274a:	493e      	ldr	r1, [pc, #248]	@ (8002844 <HAL_I2C_Init+0x214>)
 800274c:	fbb3 f1f1 	udiv	r1, r3, r1
 8002750:	f025 053f 	bic.w	r5, r5, #63	@ 0x3f
 8002754:	430d      	orrs	r5, r1
 8002756:	42b0      	cmp	r0, r6
 8002758:	6055      	str	r5, [r2, #4]
 800275a:	bf88      	it	hi
 800275c:	f44f 7696 	movhi.w	r6, #300	@ 0x12c
 8002760:	6a15      	ldr	r5, [r2, #32]
 8002762:	bf88      	it	hi
 8002764:	4371      	mulhi	r1, r6
 8002766:	f025 053f 	bic.w	r5, r5, #63	@ 0x3f
 800276a:	bf84      	itt	hi
 800276c:	f44f 767a 	movhi.w	r6, #1000	@ 0x3e8
 8002770:	fbb1 f1f6 	udivhi	r1, r1, r6
 8002774:	3101      	adds	r1, #1
 8002776:	4329      	orrs	r1, r5
 8002778:	6211      	str	r1, [r2, #32]
 800277a:	69d1      	ldr	r1, [r2, #28]
 800277c:	4d2e      	ldr	r5, [pc, #184]	@ (8002838 <HAL_I2C_Init+0x208>)
 800277e:	f421 414f 	bic.w	r1, r1, #52992	@ 0xcf00
 8002782:	42a8      	cmp	r0, r5
 8002784:	f021 01ff 	bic.w	r1, r1, #255	@ 0xff
 8002788:	f103 33ff 	add.w	r3, r3, #4294967295
 800278c:	d832      	bhi.n	80027f4 <HAL_I2C_Init+0x1c4>
 800278e:	0040      	lsls	r0, r0, #1
 8002790:	fbb3 f3f0 	udiv	r3, r3, r0
 8002794:	f640 70fc 	movw	r0, #4092	@ 0xffc
 8002798:	3301      	adds	r3, #1
 800279a:	4203      	tst	r3, r0
 800279c:	d042      	beq.n	8002824 <HAL_I2C_Init+0x1f4>
 800279e:	f3c3 030b 	ubfx	r3, r3, #0, #12
 80027a2:	4319      	orrs	r1, r3
 80027a4:	61d1      	str	r1, [r2, #28]
 80027a6:	e9d4 3007 	ldrd	r3, r0, [r4, #28]
 80027aa:	6811      	ldr	r1, [r2, #0]
 80027ac:	4303      	orrs	r3, r0
 80027ae:	f021 01c0 	bic.w	r1, r1, #192	@ 0xc0
 80027b2:	430b      	orrs	r3, r1
 80027b4:	6013      	str	r3, [r2, #0]
 80027b6:	6891      	ldr	r1, [r2, #8]
 80027b8:	e9d4 0303 	ldrd	r0, r3, [r4, #12]
 80027bc:	f421 4103 	bic.w	r1, r1, #33536	@ 0x8300
 80027c0:	4303      	orrs	r3, r0
 80027c2:	f021 01ff 	bic.w	r1, r1, #255	@ 0xff
 80027c6:	430b      	orrs	r3, r1
 80027c8:	6093      	str	r3, [r2, #8]
 80027ca:	e9d4 3005 	ldrd	r3, r0, [r4, #20]
 80027ce:	68d1      	ldr	r1, [r2, #12]
 80027d0:	4303      	orrs	r3, r0
 80027d2:	f021 01ff 	bic.w	r1, r1, #255	@ 0xff
 80027d6:	430b      	orrs	r3, r1
 80027d8:	60d3      	str	r3, [r2, #12]
 80027da:	6813      	ldr	r3, [r2, #0]
 80027dc:	f043 0301 	orr.w	r3, r3, #1
 80027e0:	6013      	str	r3, [r2, #0]
 80027e2:	2000      	movs	r0, #0
 80027e4:	2320      	movs	r3, #32
 80027e6:	6420      	str	r0, [r4, #64]	@ 0x40
 80027e8:	f884 303d 	strb.w	r3, [r4, #61]	@ 0x3d
 80027ec:	6320      	str	r0, [r4, #48]	@ 0x30
 80027ee:	f884 003e 	strb.w	r0, [r4, #62]	@ 0x3e
 80027f2:	e721      	b.n	8002638 <HAL_I2C_Init+0x8>
 80027f4:	68a5      	ldr	r5, [r4, #8]
 80027f6:	b955      	cbnz	r5, 800280e <HAL_I2C_Init+0x1de>
 80027f8:	eb00 0040 	add.w	r0, r0, r0, lsl #1
 80027fc:	fbb3 f3f0 	udiv	r3, r3, r0
 8002800:	3301      	adds	r3, #1
 8002802:	f3c3 030b 	ubfx	r3, r3, #0, #12
 8002806:	b17b      	cbz	r3, 8002828 <HAL_I2C_Init+0x1f8>
 8002808:	f443 4300 	orr.w	r3, r3, #32768	@ 0x8000
 800280c:	e7c9      	b.n	80027a2 <HAL_I2C_Init+0x172>
 800280e:	2519      	movs	r5, #25
 8002810:	4368      	muls	r0, r5
 8002812:	fbb3 f3f0 	udiv	r3, r3, r0
 8002816:	3301      	adds	r3, #1
 8002818:	f3c3 030b 	ubfx	r3, r3, #0, #12
 800281c:	b123      	cbz	r3, 8002828 <HAL_I2C_Init+0x1f8>
 800281e:	f443 4340 	orr.w	r3, r3, #49152	@ 0xc000
 8002822:	e7be      	b.n	80027a2 <HAL_I2C_Init+0x172>
 8002824:	2304      	movs	r3, #4
 8002826:	e7bc      	b.n	80027a2 <HAL_I2C_Init+0x172>
 8002828:	2301      	movs	r3, #1
 800282a:	e7ba      	b.n	80027a2 <HAL_I2C_Init+0x172>
 800282c:	40005400 	.word	0x40005400
 8002830:	0800a985 	.word	0x0800a985
 8002834:	00061a7f 	.word	0x00061a7f
 8002838:	000186a0 	.word	0x000186a0
 800283c:	001e847f 	.word	0x001e847f
 8002840:	003d08ff 	.word	0x003d08ff
 8002844:	000f4240 	.word	0x000f4240

08002848 <HAL_I2C_MasterTxCpltCallback>:
 8002848:	4770      	bx	lr

0800284a <HAL_I2C_MasterRxCpltCallback>:
 800284a:	4770      	bx	lr

0800284c <HAL_I2C_SlaveTxCpltCallback>:
 800284c:	4770      	bx	lr

0800284e <HAL_I2C_SlaveRxCpltCallback>:
 800284e:	4770      	bx	lr

08002850 <HAL_I2C_AddrCallback>:
 8002850:	4770      	bx	lr

08002852 <HAL_I2C_ListenCpltCallback>:
 8002852:	4770      	bx	lr

08002854 <HAL_I2C_MemTxCpltCallback>:
 8002854:	4770      	bx	lr

08002856 <I2C_MemoryTransmit_TXE_BTF>:
 8002856:	f890 203d 	ldrb.w	r2, [r0, #61]	@ 0x3d
 800285a:	b508      	push	{r3, lr}
 800285c:	6d03      	ldr	r3, [r0, #80]	@ 0x50
 800285e:	b2d2      	uxtb	r2, r2
 8002860:	b983      	cbnz	r3, 8002884 <I2C_MemoryTransmit_TXE_BTF+0x2e>
 8002862:	6cc3      	ldr	r3, [r0, #76]	@ 0x4c
 8002864:	6802      	ldr	r2, [r0, #0]
 8002866:	2b01      	cmp	r3, #1
 8002868:	6c83      	ldr	r3, [r0, #72]	@ 0x48
 800286a:	d105      	bne.n	8002878 <I2C_MemoryTransmit_TXE_BTF+0x22>
 800286c:	b2db      	uxtb	r3, r3
 800286e:	6113      	str	r3, [r2, #16]
 8002870:	6d03      	ldr	r3, [r0, #80]	@ 0x50
 8002872:	3302      	adds	r3, #2
 8002874:	6503      	str	r3, [r0, #80]	@ 0x50
 8002876:	bd08      	pop	{r3, pc}
 8002878:	f3c3 2307 	ubfx	r3, r3, #8, #8
 800287c:	6113      	str	r3, [r2, #16]
 800287e:	6d03      	ldr	r3, [r0, #80]	@ 0x50
 8002880:	3301      	adds	r3, #1
 8002882:	e7f7      	b.n	8002874 <I2C_MemoryTransmit_TXE_BTF+0x1e>
 8002884:	6d03      	ldr	r3, [r0, #80]	@ 0x50
 8002886:	2b01      	cmp	r3, #1
 8002888:	d103      	bne.n	8002892 <I2C_MemoryTransmit_TXE_BTF+0x3c>
 800288a:	6c83      	ldr	r3, [r0, #72]	@ 0x48
 800288c:	6802      	ldr	r2, [r0, #0]
 800288e:	b2db      	uxtb	r3, r3
 8002890:	e7f4      	b.n	800287c <I2C_MemoryTransmit_TXE_BTF+0x26>
 8002892:	6d03      	ldr	r3, [r0, #80]	@ 0x50
 8002894:	2b02      	cmp	r3, #2
 8002896:	d1ee      	bne.n	8002876 <I2C_MemoryTransmit_TXE_BTF+0x20>
 8002898:	2a22      	cmp	r2, #34	@ 0x22
 800289a:	d105      	bne.n	80028a8 <I2C_MemoryTransmit_TXE_BTF+0x52>
 800289c:	6802      	ldr	r2, [r0, #0]
 800289e:	6813      	ldr	r3, [r2, #0]
 80028a0:	f443 7380 	orr.w	r3, r3, #256	@ 0x100
 80028a4:	6013      	str	r3, [r2, #0]
 80028a6:	e7ea      	b.n	800287e <I2C_MemoryTransmit_TXE_BTF+0x28>
 80028a8:	8d43      	ldrh	r3, [r0, #42]	@ 0x2a
 80028aa:	b29b      	uxth	r3, r3
 80028ac:	b163      	cbz	r3, 80028c8 <I2C_MemoryTransmit_TXE_BTF+0x72>
 80028ae:	2a21      	cmp	r2, #33	@ 0x21
 80028b0:	d10a      	bne.n	80028c8 <I2C_MemoryTransmit_TXE_BTF+0x72>
 80028b2:	6a43      	ldr	r3, [r0, #36]	@ 0x24
 80028b4:	6802      	ldr	r2, [r0, #0]
 80028b6:	f813 1b01 	ldrb.w	r1, [r3], #1
 80028ba:	6111      	str	r1, [r2, #16]
 80028bc:	6243      	str	r3, [r0, #36]	@ 0x24
 80028be:	8d43      	ldrh	r3, [r0, #42]	@ 0x2a
 80028c0:	3b01      	subs	r3, #1
 80028c2:	b29b      	uxth	r3, r3
 80028c4:	8543      	strh	r3, [r0, #42]	@ 0x2a
 80028c6:	e7d6      	b.n	8002876 <I2C_MemoryTransmit_TXE_BTF+0x20>
 80028c8:	8d43      	ldrh	r3, [r0, #42]	@ 0x2a
 80028ca:	b29b      	uxth	r3, r3
 80028cc:	2b00      	cmp	r3, #0
 80028ce:	d1d2      	bne.n	8002876 <I2C_MemoryTransmit_TXE_BTF+0x20>
 80028d0:	2a21      	cmp	r2, #33	@ 0x21
 80028d2:	d1d0      	bne.n	8002876 <I2C_MemoryTransmit_TXE_BTF+0x20>
 80028d4:	6802      	ldr	r2, [r0, #0]
 80028d6:	6851      	ldr	r1, [r2, #4]
 80028d8:	f421 61e0 	bic.w	r1, r1, #1792	@ 0x700
 80028dc:	6051      	str	r1, [r2, #4]
 80028de:	6811      	ldr	r1, [r2, #0]
 80028e0:	f441 7100 	orr.w	r1, r1, #512	@ 0x200
 80028e4:	6011      	str	r1, [r2, #0]
 80028e6:	2220      	movs	r2, #32
 80028e8:	6303      	str	r3, [r0, #48]	@ 0x30
 80028ea:	f880 203d 	strb.w	r2, [r0, #61]	@ 0x3d
 80028ee:	f880 303e 	strb.w	r3, [r0, #62]	@ 0x3e
 80028f2:	f7ff ffaf 	bl	8002854 <HAL_I2C_MemTxCpltCallback>
 80028f6:	e7be      	b.n	8002876 <I2C_MemoryTransmit_TXE_BTF+0x20>

080028f8 <HAL_I2C_MemRxCpltCallback>:
 80028f8:	4770      	bx	lr

080028fa <HAL_I2C_ErrorCallback>:
 80028fa:	4770      	bx	lr

080028fc <HAL_I2C_AbortCpltCallback>:
 80028fc:	4770      	bx	lr
	...

08002900 <I2C_DMAAbort>:
 8002900:	b537      	push	{r0, r1, r2, r4, r5, lr}
 8002902:	2300      	movs	r3, #0
 8002904:	9301      	str	r3, [sp, #4]
 8002906:	4b2d      	ldr	r3, [pc, #180]	@ (80029bc <I2C_DMAAbort+0xbc>)
 8002908:	6b80      	ldr	r0, [r0, #56]	@ 0x38
 800290a:	681b      	ldr	r3, [r3, #0]
 800290c:	f890 203d 	ldrb.w	r2, [r0, #61]	@ 0x3d
 8002910:	f246 11a8 	movw	r1, #25000	@ 0x61a8
 8002914:	fbb3 f3f1 	udiv	r3, r3, r1
 8002918:	2123      	movs	r1, #35	@ 0x23
 800291a:	434b      	muls	r3, r1
 800291c:	9301      	str	r3, [sp, #4]
 800291e:	6803      	ldr	r3, [r0, #0]
 8002920:	b2d2      	uxtb	r2, r2
 8002922:	9901      	ldr	r1, [sp, #4]
 8002924:	bb41      	cbnz	r1, 8002978 <I2C_DMAAbort+0x78>
 8002926:	6c01      	ldr	r1, [r0, #64]	@ 0x40
 8002928:	f041 0120 	orr.w	r1, r1, #32
 800292c:	6401      	str	r1, [r0, #64]	@ 0x40
 800292e:	6b44      	ldr	r4, [r0, #52]	@ 0x34
 8002930:	b10c      	cbz	r4, 8002936 <I2C_DMAAbort+0x36>
 8002932:	2100      	movs	r1, #0
 8002934:	63e1      	str	r1, [r4, #60]	@ 0x3c
 8002936:	6b81      	ldr	r1, [r0, #56]	@ 0x38
 8002938:	b109      	cbz	r1, 800293e <I2C_DMAAbort+0x3e>
 800293a:	2500      	movs	r5, #0
 800293c:	63cd      	str	r5, [r1, #60]	@ 0x3c
 800293e:	681d      	ldr	r5, [r3, #0]
 8002940:	f425 6580 	bic.w	r5, r5, #1024	@ 0x400
 8002944:	601d      	str	r5, [r3, #0]
 8002946:	2500      	movs	r5, #0
 8002948:	8545      	strh	r5, [r0, #42]	@ 0x2a
 800294a:	b104      	cbz	r4, 800294e <I2C_DMAAbort+0x4e>
 800294c:	6525      	str	r5, [r4, #80]	@ 0x50
 800294e:	b101      	cbz	r1, 8002952 <I2C_DMAAbort+0x52>
 8002950:	650d      	str	r5, [r1, #80]	@ 0x50
 8002952:	6819      	ldr	r1, [r3, #0]
 8002954:	f021 0101 	bic.w	r1, r1, #1
 8002958:	6019      	str	r1, [r3, #0]
 800295a:	f890 103d 	ldrb.w	r1, [r0, #61]	@ 0x3d
 800295e:	2960      	cmp	r1, #96	@ 0x60
 8002960:	d111      	bne.n	8002986 <I2C_DMAAbort+0x86>
 8002962:	2320      	movs	r3, #32
 8002964:	f880 303d 	strb.w	r3, [r0, #61]	@ 0x3d
 8002968:	2300      	movs	r3, #0
 800296a:	f880 303e 	strb.w	r3, [r0, #62]	@ 0x3e
 800296e:	6403      	str	r3, [r0, #64]	@ 0x40
 8002970:	f7ff ffc4 	bl	80028fc <HAL_I2C_AbortCpltCallback>
 8002974:	b003      	add	sp, #12
 8002976:	bd30      	pop	{r4, r5, pc}
 8002978:	9901      	ldr	r1, [sp, #4]
 800297a:	3901      	subs	r1, #1
 800297c:	9101      	str	r1, [sp, #4]
 800297e:	6819      	ldr	r1, [r3, #0]
 8002980:	0589      	lsls	r1, r1, #22
 8002982:	d4ce      	bmi.n	8002922 <I2C_DMAAbort+0x22>
 8002984:	e7d3      	b.n	800292e <I2C_DMAAbort+0x2e>
 8002986:	f002 0228 	and.w	r2, r2, #40	@ 0x28
 800298a:	2a28      	cmp	r2, #40	@ 0x28
 800298c:	d10e      	bne.n	80029ac <I2C_DMAAbort+0xac>
 800298e:	6819      	ldr	r1, [r3, #0]
 8002990:	f041 0101 	orr.w	r1, r1, #1
 8002994:	6019      	str	r1, [r3, #0]
 8002996:	6819      	ldr	r1, [r3, #0]
 8002998:	f441 6180 	orr.w	r1, r1, #1024	@ 0x400
 800299c:	6019      	str	r1, [r3, #0]
 800299e:	2300      	movs	r3, #0
 80029a0:	6303      	str	r3, [r0, #48]	@ 0x30
 80029a2:	f880 203d 	strb.w	r2, [r0, #61]	@ 0x3d
 80029a6:	f7ff ffa8 	bl	80028fa <HAL_I2C_ErrorCallback>
 80029aa:	e7e3      	b.n	8002974 <I2C_DMAAbort+0x74>
 80029ac:	2320      	movs	r3, #32
 80029ae:	f880 303d 	strb.w	r3, [r0, #61]	@ 0x3d
 80029b2:	2300      	movs	r3, #0
 80029b4:	f880 303e 	strb.w	r3, [r0, #62]	@ 0x3e
 80029b8:	e7f5      	b.n	80029a6 <I2C_DMAAbort+0xa6>
 80029ba:	bf00      	nop
 80029bc:	20000004 	.word	0x20000004

080029c0 <I2C_ITError>:
 80029c0:	b510      	push	{r4, lr}
 80029c2:	f890 203d 	ldrb.w	r2, [r0, #61]	@ 0x3d
 80029c6:	f890 303e 	ldrb.w	r3, [r0, #62]	@ 0x3e
 80029ca:	2b10      	cmp	r3, #16
 80029cc:	b2d9      	uxtb	r1, r3
 80029ce:	4604      	mov	r4, r0
 80029d0:	6803      	ldr	r3, [r0, #0]
 80029d2:	b2d2      	uxtb	r2, r2
 80029d4:	d001      	beq.n	80029da <I2C_ITError+0x1a>
 80029d6:	2940      	cmp	r1, #64	@ 0x40
 80029d8:	d113      	bne.n	8002a02 <I2C_ITError+0x42>
 80029da:	2a22      	cmp	r2, #34	@ 0x22
 80029dc:	d111      	bne.n	8002a02 <I2C_ITError+0x42>
 80029de:	6819      	ldr	r1, [r3, #0]
 80029e0:	f421 6100 	bic.w	r1, r1, #2048	@ 0x800
 80029e4:	6019      	str	r1, [r3, #0]
 80029e6:	6859      	ldr	r1, [r3, #4]
 80029e8:	f411 6100 	ands.w	r1, r1, #2048	@ 0x800
 80029ec:	d106      	bne.n	80029fc <I2C_ITError+0x3c>
 80029ee:	2a60      	cmp	r2, #96	@ 0x60
 80029f0:	bf1e      	ittt	ne
 80029f2:	2220      	movne	r2, #32
 80029f4:	f884 203d 	strbne.w	r2, [r4, #61]	@ 0x3d
 80029f8:	f884 103e 	strbne.w	r1, [r4, #62]	@ 0x3e
 80029fc:	2200      	movs	r2, #0
 80029fe:	6322      	str	r2, [r4, #48]	@ 0x30
 8002a00:	e007      	b.n	8002a12 <I2C_ITError+0x52>
 8002a02:	f002 0128 	and.w	r1, r2, #40	@ 0x28
 8002a06:	2928      	cmp	r1, #40	@ 0x28
 8002a08:	d1ed      	bne.n	80029e6 <I2C_ITError+0x26>
 8002a0a:	2200      	movs	r2, #0
 8002a0c:	6322      	str	r2, [r4, #48]	@ 0x30
 8002a0e:	f884 103d 	strb.w	r1, [r4, #61]	@ 0x3d
 8002a12:	685a      	ldr	r2, [r3, #4]
 8002a14:	f412 6200 	ands.w	r2, r2, #2048	@ 0x800
 8002a18:	d04f      	beq.n	8002aba <I2C_ITError+0xfa>
 8002a1a:	685a      	ldr	r2, [r3, #4]
 8002a1c:	6b60      	ldr	r0, [r4, #52]	@ 0x34
 8002a1e:	f422 6200 	bic.w	r2, r2, #2048	@ 0x800
 8002a22:	605a      	str	r2, [r3, #4]
 8002a24:	f890 3035 	ldrb.w	r3, [r0, #53]	@ 0x35
 8002a28:	2b01      	cmp	r3, #1
 8002a2a:	4b37      	ldr	r3, [pc, #220]	@ (8002b08 <I2C_ITError+0x148>)
 8002a2c:	d02b      	beq.n	8002a86 <I2C_ITError+0xc6>
 8002a2e:	6503      	str	r3, [r0, #80]	@ 0x50
 8002a30:	f7ff fb16 	bl	8002060 <HAL_DMA_Abort_IT>
 8002a34:	b150      	cbz	r0, 8002a4c <I2C_ITError+0x8c>
 8002a36:	6822      	ldr	r2, [r4, #0]
 8002a38:	6b60      	ldr	r0, [r4, #52]	@ 0x34
 8002a3a:	6813      	ldr	r3, [r2, #0]
 8002a3c:	f023 0301 	bic.w	r3, r3, #1
 8002a40:	6013      	str	r3, [r2, #0]
 8002a42:	2320      	movs	r3, #32
 8002a44:	f884 303d 	strb.w	r3, [r4, #61]	@ 0x3d
 8002a48:	6d03      	ldr	r3, [r0, #80]	@ 0x50
 8002a4a:	4798      	blx	r3
 8002a4c:	6c23      	ldr	r3, [r4, #64]	@ 0x40
 8002a4e:	0719      	lsls	r1, r3, #28
 8002a50:	bf1f      	itttt	ne
 8002a52:	6822      	ldrne	r2, [r4, #0]
 8002a54:	6853      	ldrne	r3, [r2, #4]
 8002a56:	f423 63e0 	bicne.w	r3, r3, #1792	@ 0x700
 8002a5a:	6053      	strne	r3, [r2, #4]
 8002a5c:	f894 303d 	ldrb.w	r3, [r4, #61]	@ 0x3d
 8002a60:	6c22      	ldr	r2, [r4, #64]	@ 0x40
 8002a62:	0752      	lsls	r2, r2, #29
 8002a64:	b2db      	uxtb	r3, r3
 8002a66:	d50d      	bpl.n	8002a84 <I2C_ITError+0xc4>
 8002a68:	2b28      	cmp	r3, #40	@ 0x28
 8002a6a:	d10b      	bne.n	8002a84 <I2C_ITError+0xc4>
 8002a6c:	4b27      	ldr	r3, [pc, #156]	@ (8002b0c <I2C_ITError+0x14c>)
 8002a6e:	62e3      	str	r3, [r4, #44]	@ 0x2c
 8002a70:	2220      	movs	r2, #32
 8002a72:	2300      	movs	r3, #0
 8002a74:	6323      	str	r3, [r4, #48]	@ 0x30
 8002a76:	4620      	mov	r0, r4
 8002a78:	f884 203d 	strb.w	r2, [r4, #61]	@ 0x3d
 8002a7c:	f884 303e 	strb.w	r3, [r4, #62]	@ 0x3e
 8002a80:	f7ff fee7 	bl	8002852 <HAL_I2C_ListenCpltCallback>
 8002a84:	bd10      	pop	{r4, pc}
 8002a86:	6ba0      	ldr	r0, [r4, #56]	@ 0x38
 8002a88:	6503      	str	r3, [r0, #80]	@ 0x50
 8002a8a:	f7ff fae9 	bl	8002060 <HAL_DMA_Abort_IT>
 8002a8e:	2800      	cmp	r0, #0
 8002a90:	d0dc      	beq.n	8002a4c <I2C_ITError+0x8c>
 8002a92:	6823      	ldr	r3, [r4, #0]
 8002a94:	695a      	ldr	r2, [r3, #20]
 8002a96:	0651      	lsls	r1, r2, #25
 8002a98:	d505      	bpl.n	8002aa6 <I2C_ITError+0xe6>
 8002a9a:	691a      	ldr	r2, [r3, #16]
 8002a9c:	6a63      	ldr	r3, [r4, #36]	@ 0x24
 8002a9e:	701a      	strb	r2, [r3, #0]
 8002aa0:	6a63      	ldr	r3, [r4, #36]	@ 0x24
 8002aa2:	3301      	adds	r3, #1
 8002aa4:	6263      	str	r3, [r4, #36]	@ 0x24
 8002aa6:	6822      	ldr	r2, [r4, #0]
 8002aa8:	6ba0      	ldr	r0, [r4, #56]	@ 0x38
 8002aaa:	6813      	ldr	r3, [r2, #0]
 8002aac:	f023 0301 	bic.w	r3, r3, #1
 8002ab0:	6013      	str	r3, [r2, #0]
 8002ab2:	2320      	movs	r3, #32
 8002ab4:	f884 303d 	strb.w	r3, [r4, #61]	@ 0x3d
 8002ab8:	e7c6      	b.n	8002a48 <I2C_ITError+0x88>
 8002aba:	f894 103d 	ldrb.w	r1, [r4, #61]	@ 0x3d
 8002abe:	2960      	cmp	r1, #96	@ 0x60
 8002ac0:	d115      	bne.n	8002aee <I2C_ITError+0x12e>
 8002ac2:	2120      	movs	r1, #32
 8002ac4:	f884 103d 	strb.w	r1, [r4, #61]	@ 0x3d
 8002ac8:	6422      	str	r2, [r4, #64]	@ 0x40
 8002aca:	695a      	ldr	r2, [r3, #20]
 8002acc:	0652      	lsls	r2, r2, #25
 8002ace:	d505      	bpl.n	8002adc <I2C_ITError+0x11c>
 8002ad0:	691a      	ldr	r2, [r3, #16]
 8002ad2:	6a63      	ldr	r3, [r4, #36]	@ 0x24
 8002ad4:	701a      	strb	r2, [r3, #0]
 8002ad6:	6a63      	ldr	r3, [r4, #36]	@ 0x24
 8002ad8:	3301      	adds	r3, #1
 8002ada:	6263      	str	r3, [r4, #36]	@ 0x24
 8002adc:	6822      	ldr	r2, [r4, #0]
 8002ade:	6813      	ldr	r3, [r2, #0]
 8002ae0:	f023 0301 	bic.w	r3, r3, #1
 8002ae4:	6013      	str	r3, [r2, #0]
 8002ae6:	4620      	mov	r0, r4
 8002ae8:	f7ff ff08 	bl	80028fc <HAL_I2C_AbortCpltCallback>
 8002aec:	e7ae      	b.n	8002a4c <I2C_ITError+0x8c>
 8002aee:	695a      	ldr	r2, [r3, #20]
 8002af0:	0650      	lsls	r0, r2, #25
 8002af2:	d505      	bpl.n	8002b00 <I2C_ITError+0x140>
 8002af4:	691a      	ldr	r2, [r3, #16]
 8002af6:	6a63      	ldr	r3, [r4, #36]	@ 0x24
 8002af8:	701a      	strb	r2, [r3, #0]
 8002afa:	6a63      	ldr	r3, [r4, #36]	@ 0x24
 8002afc:	3301      	adds	r3, #1
 8002afe:	6263      	str	r3, [r4, #36]	@ 0x24
 8002b00:	4620      	mov	r0, r4
 8002b02:	f7ff fefa 	bl	80028fa <HAL_I2C_ErrorCallback>
 8002b06:	e7a1      	b.n	8002a4c <I2C_ITError+0x8c>
 8002b08:	08002901 	.word	0x08002901
 8002b0c:	ffff0000 	.word	0xffff0000

08002b10 <HAL_I2C_EV_IRQHandler>:
 8002b10:	b5f0      	push	{r4, r5, r6, r7, lr}
 8002b12:	6803      	ldr	r3, [r0, #0]
 8002b14:	4604      	mov	r4, r0
 8002b16:	685a      	ldr	r2, [r3, #4]
 8002b18:	6ac6      	ldr	r6, [r0, #44]	@ 0x2c
 8002b1a:	f890 003e 	ldrb.w	r0, [r0, #62]	@ 0x3e
 8002b1e:	f894 103d 	ldrb.w	r1, [r4, #61]	@ 0x3d
 8002b22:	2810      	cmp	r0, #16
 8002b24:	b08f      	sub	sp, #60	@ 0x3c
 8002b26:	b2c5      	uxtb	r5, r0
 8002b28:	b2c9      	uxtb	r1, r1
 8002b2a:	d002      	beq.n	8002b32 <HAL_I2C_EV_IRQHandler+0x22>
 8002b2c:	2d40      	cmp	r5, #64	@ 0x40
 8002b2e:	f040 82cf 	bne.w	80030d0 <HAL_I2C_EV_IRQHandler+0x5c0>
 8002b32:	699f      	ldr	r7, [r3, #24]
 8002b34:	6958      	ldr	r0, [r3, #20]
 8002b36:	f010 0f01 	tst.w	r0, #1
 8002b3a:	d107      	bne.n	8002b4c <HAL_I2C_EV_IRQHandler+0x3c>
 8002b3c:	f5b6 0f2a 	cmp.w	r6, #11141120	@ 0xaa0000
 8002b40:	d002      	beq.n	8002b48 <HAL_I2C_EV_IRQHandler+0x38>
 8002b42:	f1b6 4f2a 	cmp.w	r6, #2852126720	@ 0xaa000000
 8002b46:	d151      	bne.n	8002bec <HAL_I2C_EV_IRQHandler+0xdc>
 8002b48:	b00f      	add	sp, #60	@ 0x3c
 8002b4a:	bdf0      	pop	{r4, r5, r6, r7, pc}
 8002b4c:	0596      	lsls	r6, r2, #22
 8002b4e:	d54d      	bpl.n	8002bec <HAL_I2C_EV_IRQHandler+0xdc>
 8002b50:	6ae2      	ldr	r2, [r4, #44]	@ 0x2c
 8002b52:	f5b2 0f2a 	cmp.w	r2, #11141120	@ 0xaa0000
 8002b56:	d10c      	bne.n	8002b72 <HAL_I2C_EV_IRQHandler+0x62>
 8002b58:	2201      	movs	r2, #1
 8002b5a:	62e2      	str	r2, [r4, #44]	@ 0x2c
 8002b5c:	f894 203e 	ldrb.w	r2, [r4, #62]	@ 0x3e
 8002b60:	2a40      	cmp	r2, #64	@ 0x40
 8002b62:	d111      	bne.n	8002b88 <HAL_I2C_EV_IRQHandler+0x78>
 8002b64:	6d22      	ldr	r2, [r4, #80]	@ 0x50
 8002b66:	b952      	cbnz	r2, 8002b7e <HAL_I2C_EV_IRQHandler+0x6e>
 8002b68:	6c62      	ldr	r2, [r4, #68]	@ 0x44
 8002b6a:	f002 02fe 	and.w	r2, r2, #254	@ 0xfe
 8002b6e:	611a      	str	r2, [r3, #16]
 8002b70:	e7ea      	b.n	8002b48 <HAL_I2C_EV_IRQHandler+0x38>
 8002b72:	6ae2      	ldr	r2, [r4, #44]	@ 0x2c
 8002b74:	f1b2 4f2a 	cmp.w	r2, #2852126720	@ 0xaa000000
 8002b78:	d1f0      	bne.n	8002b5c <HAL_I2C_EV_IRQHandler+0x4c>
 8002b7a:	2208      	movs	r2, #8
 8002b7c:	e7ed      	b.n	8002b5a <HAL_I2C_EV_IRQHandler+0x4a>
 8002b7e:	6c62      	ldr	r2, [r4, #68]	@ 0x44
 8002b80:	f042 0201 	orr.w	r2, r2, #1
 8002b84:	b2d2      	uxtb	r2, r2
 8002b86:	e7f2      	b.n	8002b6e <HAL_I2C_EV_IRQHandler+0x5e>
 8002b88:	6922      	ldr	r2, [r4, #16]
 8002b8a:	f5b2 4f80 	cmp.w	r2, #16384	@ 0x4000
 8002b8e:	d11a      	bne.n	8002bc6 <HAL_I2C_EV_IRQHandler+0xb6>
 8002b90:	f894 203d 	ldrb.w	r2, [r4, #61]	@ 0x3d
 8002b94:	2a21      	cmp	r2, #33	@ 0x21
 8002b96:	6c62      	ldr	r2, [r4, #68]	@ 0x44
 8002b98:	d111      	bne.n	8002bbe <HAL_I2C_EV_IRQHandler+0xae>
 8002b9a:	f002 02fe 	and.w	r2, r2, #254	@ 0xfe
 8002b9e:	611a      	str	r2, [r3, #16]
 8002ba0:	6b62      	ldr	r2, [r4, #52]	@ 0x34
 8002ba2:	b10a      	cbz	r2, 8002ba8 <HAL_I2C_EV_IRQHandler+0x98>
 8002ba4:	6bd2      	ldr	r2, [r2, #60]	@ 0x3c
 8002ba6:	b92a      	cbnz	r2, 8002bb4 <HAL_I2C_EV_IRQHandler+0xa4>
 8002ba8:	6ba2      	ldr	r2, [r4, #56]	@ 0x38
 8002baa:	2a00      	cmp	r2, #0
 8002bac:	d0cc      	beq.n	8002b48 <HAL_I2C_EV_IRQHandler+0x38>
 8002bae:	6bd2      	ldr	r2, [r2, #60]	@ 0x3c
 8002bb0:	2a00      	cmp	r2, #0
 8002bb2:	d0c9      	beq.n	8002b48 <HAL_I2C_EV_IRQHandler+0x38>
 8002bb4:	685a      	ldr	r2, [r3, #4]
 8002bb6:	f442 6200 	orr.w	r2, r2, #2048	@ 0x800
 8002bba:	605a      	str	r2, [r3, #4]
 8002bbc:	e7c4      	b.n	8002b48 <HAL_I2C_EV_IRQHandler+0x38>
 8002bbe:	f042 0201 	orr.w	r2, r2, #1
 8002bc2:	b2d2      	uxtb	r2, r2
 8002bc4:	e7eb      	b.n	8002b9e <HAL_I2C_EV_IRQHandler+0x8e>
 8002bc6:	6d22      	ldr	r2, [r4, #80]	@ 0x50
 8002bc8:	b932      	cbnz	r2, 8002bd8 <HAL_I2C_EV_IRQHandler+0xc8>
 8002bca:	6c62      	ldr	r2, [r4, #68]	@ 0x44
 8002bcc:	11d2      	asrs	r2, r2, #7
 8002bce:	f002 0206 	and.w	r2, r2, #6
 8002bd2:	f042 02f0 	orr.w	r2, r2, #240	@ 0xf0
 8002bd6:	e7ca      	b.n	8002b6e <HAL_I2C_EV_IRQHandler+0x5e>
 8002bd8:	6d22      	ldr	r2, [r4, #80]	@ 0x50
 8002bda:	2a01      	cmp	r2, #1
 8002bdc:	d1b4      	bne.n	8002b48 <HAL_I2C_EV_IRQHandler+0x38>
 8002bde:	6c62      	ldr	r2, [r4, #68]	@ 0x44
 8002be0:	11d2      	asrs	r2, r2, #7
 8002be2:	f002 0206 	and.w	r2, r2, #6
 8002be6:	f042 02f1 	orr.w	r2, r2, #241	@ 0xf1
 8002bea:	e7c0      	b.n	8002b6e <HAL_I2C_EV_IRQHandler+0x5e>
 8002bec:	0706      	lsls	r6, r0, #28
 8002bee:	d503      	bpl.n	8002bf8 <HAL_I2C_EV_IRQHandler+0xe8>
 8002bf0:	0596      	lsls	r6, r2, #22
 8002bf2:	d501      	bpl.n	8002bf8 <HAL_I2C_EV_IRQHandler+0xe8>
 8002bf4:	6c62      	ldr	r2, [r4, #68]	@ 0x44
 8002bf6:	e7e4      	b.n	8002bc2 <HAL_I2C_EV_IRQHandler+0xb2>
 8002bf8:	0786      	lsls	r6, r0, #30
 8002bfa:	f140 80e8 	bpl.w	8002dce <HAL_I2C_EV_IRQHandler+0x2be>
 8002bfe:	0596      	lsls	r6, r2, #22
 8002c00:	f140 80e5 	bpl.w	8002dce <HAL_I2C_EV_IRQHandler+0x2be>
 8002c04:	f894 103e 	ldrb.w	r1, [r4, #62]	@ 0x3e
 8002c08:	6ae2      	ldr	r2, [r4, #44]	@ 0x2c
 8002c0a:	6b25      	ldr	r5, [r4, #48]	@ 0x30
 8002c0c:	f894 003d 	ldrb.w	r0, [r4, #61]	@ 0x3d
 8002c10:	2822      	cmp	r0, #34	@ 0x22
 8002c12:	b2c9      	uxtb	r1, r1
 8002c14:	f040 80d3 	bne.w	8002dbe <HAL_I2C_EV_IRQHandler+0x2ae>
 8002c18:	6d20      	ldr	r0, [r4, #80]	@ 0x50
 8002c1a:	b940      	cbnz	r0, 8002c2e <HAL_I2C_EV_IRQHandler+0x11e>
 8002c1c:	2940      	cmp	r1, #64	@ 0x40
 8002c1e:	d106      	bne.n	8002c2e <HAL_I2C_EV_IRQHandler+0x11e>
 8002c20:	9001      	str	r0, [sp, #4]
 8002c22:	695a      	ldr	r2, [r3, #20]
 8002c24:	9201      	str	r2, [sp, #4]
 8002c26:	699b      	ldr	r3, [r3, #24]
 8002c28:	9301      	str	r3, [sp, #4]
 8002c2a:	9b01      	ldr	r3, [sp, #4]
 8002c2c:	e78c      	b.n	8002b48 <HAL_I2C_EV_IRQHandler+0x38>
 8002c2e:	6d21      	ldr	r1, [r4, #80]	@ 0x50
 8002c30:	b989      	cbnz	r1, 8002c56 <HAL_I2C_EV_IRQHandler+0x146>
 8002c32:	6920      	ldr	r0, [r4, #16]
 8002c34:	f5b0 4f40 	cmp.w	r0, #49152	@ 0xc000
 8002c38:	d10d      	bne.n	8002c56 <HAL_I2C_EV_IRQHandler+0x146>
 8002c3a:	9102      	str	r1, [sp, #8]
 8002c3c:	695a      	ldr	r2, [r3, #20]
 8002c3e:	9202      	str	r2, [sp, #8]
 8002c40:	699a      	ldr	r2, [r3, #24]
 8002c42:	9202      	str	r2, [sp, #8]
 8002c44:	9a02      	ldr	r2, [sp, #8]
 8002c46:	681a      	ldr	r2, [r3, #0]
 8002c48:	f442 7280 	orr.w	r2, r2, #256	@ 0x100
 8002c4c:	601a      	str	r2, [r3, #0]
 8002c4e:	6d23      	ldr	r3, [r4, #80]	@ 0x50
 8002c50:	3301      	adds	r3, #1
 8002c52:	6523      	str	r3, [r4, #80]	@ 0x50
 8002c54:	e778      	b.n	8002b48 <HAL_I2C_EV_IRQHandler+0x38>
 8002c56:	8d61      	ldrh	r1, [r4, #42]	@ 0x2a
 8002c58:	b289      	uxth	r1, r1
 8002c5a:	b951      	cbnz	r1, 8002c72 <HAL_I2C_EV_IRQHandler+0x162>
 8002c5c:	9103      	str	r1, [sp, #12]
 8002c5e:	695a      	ldr	r2, [r3, #20]
 8002c60:	9203      	str	r2, [sp, #12]
 8002c62:	699a      	ldr	r2, [r3, #24]
 8002c64:	9203      	str	r2, [sp, #12]
 8002c66:	9a03      	ldr	r2, [sp, #12]
 8002c68:	681a      	ldr	r2, [r3, #0]
 8002c6a:	f442 7200 	orr.w	r2, r2, #512	@ 0x200
 8002c6e:	601a      	str	r2, [r3, #0]
 8002c70:	e019      	b.n	8002ca6 <HAL_I2C_EV_IRQHandler+0x196>
 8002c72:	8d61      	ldrh	r1, [r4, #42]	@ 0x2a
 8002c74:	b289      	uxth	r1, r1
 8002c76:	2901      	cmp	r1, #1
 8002c78:	d149      	bne.n	8002d0e <HAL_I2C_EV_IRQHandler+0x1fe>
 8002c7a:	f512 3f80 	cmn.w	r2, #65536	@ 0x10000
 8002c7e:	d11b      	bne.n	8002cb8 <HAL_I2C_EV_IRQHandler+0x1a8>
 8002c80:	681a      	ldr	r2, [r3, #0]
 8002c82:	f422 6280 	bic.w	r2, r2, #1024	@ 0x400
 8002c86:	601a      	str	r2, [r3, #0]
 8002c88:	685a      	ldr	r2, [r3, #4]
 8002c8a:	f412 6200 	ands.w	r2, r2, #2048	@ 0x800
 8002c8e:	d00c      	beq.n	8002caa <HAL_I2C_EV_IRQHandler+0x19a>
 8002c90:	681a      	ldr	r2, [r3, #0]
 8002c92:	f422 6280 	bic.w	r2, r2, #1024	@ 0x400
 8002c96:	601a      	str	r2, [r3, #0]
 8002c98:	2200      	movs	r2, #0
 8002c9a:	9204      	str	r2, [sp, #16]
 8002c9c:	695a      	ldr	r2, [r3, #20]
 8002c9e:	9204      	str	r2, [sp, #16]
 8002ca0:	699b      	ldr	r3, [r3, #24]
 8002ca2:	9304      	str	r3, [sp, #16]
 8002ca4:	9b04      	ldr	r3, [sp, #16]
 8002ca6:	2300      	movs	r3, #0
 8002ca8:	e7d3      	b.n	8002c52 <HAL_I2C_EV_IRQHandler+0x142>
 8002caa:	9205      	str	r2, [sp, #20]
 8002cac:	695a      	ldr	r2, [r3, #20]
 8002cae:	9205      	str	r2, [sp, #20]
 8002cb0:	699a      	ldr	r2, [r3, #24]
 8002cb2:	9205      	str	r2, [sp, #20]
 8002cb4:	9a05      	ldr	r2, [sp, #20]
 8002cb6:	e7d7      	b.n	8002c68 <HAL_I2C_EV_IRQHandler+0x158>
 8002cb8:	2a08      	cmp	r2, #8
 8002cba:	d01c      	beq.n	8002cf6 <HAL_I2C_EV_IRQHandler+0x1e6>
 8002cbc:	2a20      	cmp	r2, #32
 8002cbe:	d01a      	beq.n	8002cf6 <HAL_I2C_EV_IRQHandler+0x1e6>
 8002cc0:	2d12      	cmp	r5, #18
 8002cc2:	d10d      	bne.n	8002ce0 <HAL_I2C_EV_IRQHandler+0x1d0>
 8002cc4:	2a01      	cmp	r2, #1
 8002cc6:	d116      	bne.n	8002cf6 <HAL_I2C_EV_IRQHandler+0x1e6>
 8002cc8:	681a      	ldr	r2, [r3, #0]
 8002cca:	f422 6280 	bic.w	r2, r2, #1024	@ 0x400
 8002cce:	601a      	str	r2, [r3, #0]
 8002cd0:	2200      	movs	r2, #0
 8002cd2:	9206      	str	r2, [sp, #24]
 8002cd4:	695a      	ldr	r2, [r3, #20]
 8002cd6:	9206      	str	r2, [sp, #24]
 8002cd8:	699b      	ldr	r3, [r3, #24]
 8002cda:	9306      	str	r3, [sp, #24]
 8002cdc:	9b06      	ldr	r3, [sp, #24]
 8002cde:	e7e2      	b.n	8002ca6 <HAL_I2C_EV_IRQHandler+0x196>
 8002ce0:	2a10      	cmp	r2, #16
 8002ce2:	d8f1      	bhi.n	8002cc8 <HAL_I2C_EV_IRQHandler+0x1b8>
 8002ce4:	4997      	ldr	r1, [pc, #604]	@ (8002f44 <HAL_I2C_EV_IRQHandler+0x434>)
 8002ce6:	fa41 f202 	asr.w	r2, r1, r2
 8002cea:	07d7      	lsls	r7, r2, #31
 8002cec:	d4ec      	bmi.n	8002cc8 <HAL_I2C_EV_IRQHandler+0x1b8>
 8002cee:	681a      	ldr	r2, [r3, #0]
 8002cf0:	f442 6280 	orr.w	r2, r2, #1024	@ 0x400
 8002cf4:	e7eb      	b.n	8002cce <HAL_I2C_EV_IRQHandler+0x1be>
 8002cf6:	681a      	ldr	r2, [r3, #0]
 8002cf8:	f422 6280 	bic.w	r2, r2, #1024	@ 0x400
 8002cfc:	601a      	str	r2, [r3, #0]
 8002cfe:	2200      	movs	r2, #0
 8002d00:	9207      	str	r2, [sp, #28]
 8002d02:	695a      	ldr	r2, [r3, #20]
 8002d04:	9207      	str	r2, [sp, #28]
 8002d06:	699a      	ldr	r2, [r3, #24]
 8002d08:	9207      	str	r2, [sp, #28]
 8002d0a:	9a07      	ldr	r2, [sp, #28]
 8002d0c:	e7ac      	b.n	8002c68 <HAL_I2C_EV_IRQHandler+0x158>
 8002d0e:	8d61      	ldrh	r1, [r4, #42]	@ 0x2a
 8002d10:	b289      	uxth	r1, r1
 8002d12:	2902      	cmp	r1, #2
 8002d14:	d130      	bne.n	8002d78 <HAL_I2C_EV_IRQHandler+0x268>
 8002d16:	2a10      	cmp	r2, #16
 8002d18:	d803      	bhi.n	8002d22 <HAL_I2C_EV_IRQHandler+0x212>
 8002d1a:	498b      	ldr	r1, [pc, #556]	@ (8002f48 <HAL_I2C_EV_IRQHandler+0x438>)
 8002d1c:	40d1      	lsrs	r1, r2
 8002d1e:	07ce      	lsls	r6, r1, #31
 8002d20:	d415      	bmi.n	8002d4e <HAL_I2C_EV_IRQHandler+0x23e>
 8002d22:	6819      	ldr	r1, [r3, #0]
 8002d24:	f421 6180 	bic.w	r1, r1, #1024	@ 0x400
 8002d28:	6019      	str	r1, [r3, #0]
 8002d2a:	6819      	ldr	r1, [r3, #0]
 8002d2c:	f441 6100 	orr.w	r1, r1, #2048	@ 0x800
 8002d30:	6019      	str	r1, [r3, #0]
 8002d32:	6859      	ldr	r1, [r3, #4]
 8002d34:	050d      	lsls	r5, r1, #20
 8002d36:	d514      	bpl.n	8002d62 <HAL_I2C_EV_IRQHandler+0x252>
 8002d38:	2a20      	cmp	r2, #32
 8002d3a:	d81a      	bhi.n	8002d72 <HAL_I2C_EV_IRQHandler+0x262>
 8002d3c:	2a07      	cmp	r2, #7
 8002d3e:	d80a      	bhi.n	8002d56 <HAL_I2C_EV_IRQHandler+0x246>
 8002d40:	2a01      	cmp	r2, #1
 8002d42:	d10e      	bne.n	8002d62 <HAL_I2C_EV_IRQHandler+0x252>
 8002d44:	685a      	ldr	r2, [r3, #4]
 8002d46:	f442 5280 	orr.w	r2, r2, #4096	@ 0x1000
 8002d4a:	605a      	str	r2, [r3, #4]
 8002d4c:	e009      	b.n	8002d62 <HAL_I2C_EV_IRQHandler+0x252>
 8002d4e:	6819      	ldr	r1, [r3, #0]
 8002d50:	f441 6180 	orr.w	r1, r1, #1024	@ 0x400
 8002d54:	e7ec      	b.n	8002d30 <HAL_I2C_EV_IRQHandler+0x220>
 8002d56:	f1a2 0108 	sub.w	r1, r2, #8
 8002d5a:	4a7c      	ldr	r2, [pc, #496]	@ (8002f4c <HAL_I2C_EV_IRQHandler+0x43c>)
 8002d5c:	40ca      	lsrs	r2, r1
 8002d5e:	07d0      	lsls	r0, r2, #31
 8002d60:	d4f0      	bmi.n	8002d44 <HAL_I2C_EV_IRQHandler+0x234>
 8002d62:	2200      	movs	r2, #0
 8002d64:	9208      	str	r2, [sp, #32]
 8002d66:	695a      	ldr	r2, [r3, #20]
 8002d68:	9208      	str	r2, [sp, #32]
 8002d6a:	699b      	ldr	r3, [r3, #24]
 8002d6c:	9308      	str	r3, [sp, #32]
 8002d6e:	9b08      	ldr	r3, [sp, #32]
 8002d70:	e799      	b.n	8002ca6 <HAL_I2C_EV_IRQHandler+0x196>
 8002d72:	f512 3f80 	cmn.w	r2, #65536	@ 0x10000
 8002d76:	e7e4      	b.n	8002d42 <HAL_I2C_EV_IRQHandler+0x232>
 8002d78:	6819      	ldr	r1, [r3, #0]
 8002d7a:	f441 6180 	orr.w	r1, r1, #1024	@ 0x400
 8002d7e:	6019      	str	r1, [r3, #0]
 8002d80:	6859      	ldr	r1, [r3, #4]
 8002d82:	0509      	lsls	r1, r1, #20
 8002d84:	d510      	bpl.n	8002da8 <HAL_I2C_EV_IRQHandler+0x298>
 8002d86:	2a20      	cmp	r2, #32
 8002d88:	d816      	bhi.n	8002db8 <HAL_I2C_EV_IRQHandler+0x2a8>
 8002d8a:	2a07      	cmp	r2, #7
 8002d8c:	d806      	bhi.n	8002d9c <HAL_I2C_EV_IRQHandler+0x28c>
 8002d8e:	2a01      	cmp	r2, #1
 8002d90:	d10a      	bne.n	8002da8 <HAL_I2C_EV_IRQHandler+0x298>
 8002d92:	685a      	ldr	r2, [r3, #4]
 8002d94:	f442 5280 	orr.w	r2, r2, #4096	@ 0x1000
 8002d98:	605a      	str	r2, [r3, #4]
 8002d9a:	e005      	b.n	8002da8 <HAL_I2C_EV_IRQHandler+0x298>
 8002d9c:	f1a2 0108 	sub.w	r1, r2, #8
 8002da0:	4a6a      	ldr	r2, [pc, #424]	@ (8002f4c <HAL_I2C_EV_IRQHandler+0x43c>)
 8002da2:	40ca      	lsrs	r2, r1
 8002da4:	07d2      	lsls	r2, r2, #31
 8002da6:	d4f4      	bmi.n	8002d92 <HAL_I2C_EV_IRQHandler+0x282>
 8002da8:	2200      	movs	r2, #0
 8002daa:	9209      	str	r2, [sp, #36]	@ 0x24
 8002dac:	695a      	ldr	r2, [r3, #20]
 8002dae:	9209      	str	r2, [sp, #36]	@ 0x24
 8002db0:	699b      	ldr	r3, [r3, #24]
 8002db2:	9309      	str	r3, [sp, #36]	@ 0x24
 8002db4:	9b09      	ldr	r3, [sp, #36]	@ 0x24
 8002db6:	e776      	b.n	8002ca6 <HAL_I2C_EV_IRQHandler+0x196>
 8002db8:	f512 3f80 	cmn.w	r2, #65536	@ 0x10000
 8002dbc:	e7e8      	b.n	8002d90 <HAL_I2C_EV_IRQHandler+0x280>
 8002dbe:	2200      	movs	r2, #0
 8002dc0:	920a      	str	r2, [sp, #40]	@ 0x28
 8002dc2:	695a      	ldr	r2, [r3, #20]
 8002dc4:	920a      	str	r2, [sp, #40]	@ 0x28
 8002dc6:	699b      	ldr	r3, [r3, #24]
 8002dc8:	930a      	str	r3, [sp, #40]	@ 0x28
 8002dca:	9b0a      	ldr	r3, [sp, #40]	@ 0x28
 8002dcc:	e6bc      	b.n	8002b48 <HAL_I2C_EV_IRQHandler+0x38>
 8002dce:	077f      	lsls	r7, r7, #29
 8002dd0:	f140 808d 	bpl.w	8002eee <HAL_I2C_EV_IRQHandler+0x3de>
 8002dd4:	685e      	ldr	r6, [r3, #4]
 8002dd6:	0536      	lsls	r6, r6, #20
 8002dd8:	f53f aeb6 	bmi.w	8002b48 <HAL_I2C_EV_IRQHandler+0x38>
 8002ddc:	0607      	lsls	r7, r0, #24
 8002dde:	f000 0604 	and.w	r6, r0, #4
 8002de2:	d53e      	bpl.n	8002e62 <HAL_I2C_EV_IRQHandler+0x352>
 8002de4:	0550      	lsls	r0, r2, #21
 8002de6:	d53c      	bpl.n	8002e62 <HAL_I2C_EV_IRQHandler+0x352>
 8002de8:	2e00      	cmp	r6, #0
 8002dea:	d13d      	bne.n	8002e68 <HAL_I2C_EV_IRQHandler+0x358>
 8002dec:	f894 203d 	ldrb.w	r2, [r4, #61]	@ 0x3d
 8002df0:	8d25      	ldrh	r5, [r4, #40]	@ 0x28
 8002df2:	f894 103e 	ldrb.w	r1, [r4, #62]	@ 0x3e
 8002df6:	6ae0      	ldr	r0, [r4, #44]	@ 0x2c
 8002df8:	b2d2      	uxtb	r2, r2
 8002dfa:	b2c9      	uxtb	r1, r1
 8002dfc:	b9c5      	cbnz	r5, 8002e30 <HAL_I2C_EV_IRQHandler+0x320>
 8002dfe:	2a21      	cmp	r2, #33	@ 0x21
 8002e00:	d118      	bne.n	8002e34 <HAL_I2C_EV_IRQHandler+0x324>
 8002e02:	2808      	cmp	r0, #8
 8002e04:	d058      	beq.n	8002eb8 <HAL_I2C_EV_IRQHandler+0x3a8>
 8002e06:	2820      	cmp	r0, #32
 8002e08:	d056      	beq.n	8002eb8 <HAL_I2C_EV_IRQHandler+0x3a8>
 8002e0a:	f510 3f80 	cmn.w	r0, #65536	@ 0x10000
 8002e0e:	d053      	beq.n	8002eb8 <HAL_I2C_EV_IRQHandler+0x3a8>
 8002e10:	685a      	ldr	r2, [r3, #4]
 8002e12:	f422 62e0 	bic.w	r2, r2, #1792	@ 0x700
 8002e16:	605a      	str	r2, [r3, #4]
 8002e18:	2311      	movs	r3, #17
 8002e1a:	6323      	str	r3, [r4, #48]	@ 0x30
 8002e1c:	2300      	movs	r3, #0
 8002e1e:	f884 303e 	strb.w	r3, [r4, #62]	@ 0x3e
 8002e22:	2320      	movs	r3, #32
 8002e24:	f884 303d 	strb.w	r3, [r4, #61]	@ 0x3d
 8002e28:	4620      	mov	r0, r4
 8002e2a:	f7ff fd0d 	bl	8002848 <HAL_I2C_MasterTxCpltCallback>
 8002e2e:	e68b      	b.n	8002b48 <HAL_I2C_EV_IRQHandler+0x38>
 8002e30:	2a21      	cmp	r2, #33	@ 0x21
 8002e32:	d005      	beq.n	8002e40 <HAL_I2C_EV_IRQHandler+0x330>
 8002e34:	2940      	cmp	r1, #64	@ 0x40
 8002e36:	f47f ae87 	bne.w	8002b48 <HAL_I2C_EV_IRQHandler+0x38>
 8002e3a:	2a22      	cmp	r2, #34	@ 0x22
 8002e3c:	f47f ae84 	bne.w	8002b48 <HAL_I2C_EV_IRQHandler+0x38>
 8002e40:	8d62      	ldrh	r2, [r4, #42]	@ 0x2a
 8002e42:	b292      	uxth	r2, r2
 8002e44:	b91a      	cbnz	r2, 8002e4e <HAL_I2C_EV_IRQHandler+0x33e>
 8002e46:	685a      	ldr	r2, [r3, #4]
 8002e48:	f422 6280 	bic.w	r2, r2, #1024	@ 0x400
 8002e4c:	e6b5      	b.n	8002bba <HAL_I2C_EV_IRQHandler+0xaa>
 8002e4e:	f894 203e 	ldrb.w	r2, [r4, #62]	@ 0x3e
 8002e52:	2a40      	cmp	r2, #64	@ 0x40
 8002e54:	d116      	bne.n	8002e84 <HAL_I2C_EV_IRQHandler+0x374>
 8002e56:	4620      	mov	r0, r4
 8002e58:	b00f      	add	sp, #60	@ 0x3c
 8002e5a:	e8bd 40f0 	ldmia.w	sp!, {r4, r5, r6, r7, lr}
 8002e5e:	f7ff bcfa 	b.w	8002856 <I2C_MemoryTransmit_TXE_BTF>
 8002e62:	2e00      	cmp	r6, #0
 8002e64:	f43f ae70 	beq.w	8002b48 <HAL_I2C_EV_IRQHandler+0x38>
 8002e68:	0597      	lsls	r7, r2, #22
 8002e6a:	f57f ae6d 	bpl.w	8002b48 <HAL_I2C_EV_IRQHandler+0x38>
 8002e6e:	2921      	cmp	r1, #33	@ 0x21
 8002e70:	d139      	bne.n	8002ee6 <HAL_I2C_EV_IRQHandler+0x3d6>
 8002e72:	6ae1      	ldr	r1, [r4, #44]	@ 0x2c
 8002e74:	f894 203d 	ldrb.w	r2, [r4, #61]	@ 0x3d
 8002e78:	2a21      	cmp	r2, #33	@ 0x21
 8002e7a:	f47f ae65 	bne.w	8002b48 <HAL_I2C_EV_IRQHandler+0x38>
 8002e7e:	8d62      	ldrh	r2, [r4, #42]	@ 0x2a
 8002e80:	b292      	uxth	r2, r2
 8002e82:	b14a      	cbz	r2, 8002e98 <HAL_I2C_EV_IRQHandler+0x388>
 8002e84:	6a62      	ldr	r2, [r4, #36]	@ 0x24
 8002e86:	f812 1b01 	ldrb.w	r1, [r2], #1
 8002e8a:	6119      	str	r1, [r3, #16]
 8002e8c:	6262      	str	r2, [r4, #36]	@ 0x24
 8002e8e:	8d63      	ldrh	r3, [r4, #42]	@ 0x2a
 8002e90:	3b01      	subs	r3, #1
 8002e92:	b29b      	uxth	r3, r3
 8002e94:	8563      	strh	r3, [r4, #42]	@ 0x2a
 8002e96:	e657      	b.n	8002b48 <HAL_I2C_EV_IRQHandler+0x38>
 8002e98:	2908      	cmp	r1, #8
 8002e9a:	d00d      	beq.n	8002eb8 <HAL_I2C_EV_IRQHandler+0x3a8>
 8002e9c:	2920      	cmp	r1, #32
 8002e9e:	d00b      	beq.n	8002eb8 <HAL_I2C_EV_IRQHandler+0x3a8>
 8002ea0:	f511 3f80 	cmn.w	r1, #65536	@ 0x10000
 8002ea4:	d008      	beq.n	8002eb8 <HAL_I2C_EV_IRQHandler+0x3a8>
 8002ea6:	6859      	ldr	r1, [r3, #4]
 8002ea8:	f421 61e0 	bic.w	r1, r1, #1792	@ 0x700
 8002eac:	6059      	str	r1, [r3, #4]
 8002eae:	2311      	movs	r3, #17
 8002eb0:	6323      	str	r3, [r4, #48]	@ 0x30
 8002eb2:	f884 203e 	strb.w	r2, [r4, #62]	@ 0x3e
 8002eb6:	e7b4      	b.n	8002e22 <HAL_I2C_EV_IRQHandler+0x312>
 8002eb8:	685a      	ldr	r2, [r3, #4]
 8002eba:	f422 62e0 	bic.w	r2, r2, #1792	@ 0x700
 8002ebe:	605a      	str	r2, [r3, #4]
 8002ec0:	681a      	ldr	r2, [r3, #0]
 8002ec2:	f442 7200 	orr.w	r2, r2, #512	@ 0x200
 8002ec6:	601a      	str	r2, [r3, #0]
 8002ec8:	2300      	movs	r3, #0
 8002eca:	2220      	movs	r2, #32
 8002ecc:	6323      	str	r3, [r4, #48]	@ 0x30
 8002ece:	f884 203d 	strb.w	r2, [r4, #61]	@ 0x3d
 8002ed2:	f894 203e 	ldrb.w	r2, [r4, #62]	@ 0x3e
 8002ed6:	f884 303e 	strb.w	r3, [r4, #62]	@ 0x3e
 8002eda:	2a40      	cmp	r2, #64	@ 0x40
 8002edc:	4620      	mov	r0, r4
 8002ede:	d1a4      	bne.n	8002e2a <HAL_I2C_EV_IRQHandler+0x31a>
 8002ee0:	f7ff fcb8 	bl	8002854 <HAL_I2C_MemTxCpltCallback>
 8002ee4:	e630      	b.n	8002b48 <HAL_I2C_EV_IRQHandler+0x38>
 8002ee6:	2d40      	cmp	r5, #64	@ 0x40
 8002ee8:	f47f ae2e 	bne.w	8002b48 <HAL_I2C_EV_IRQHandler+0x38>
 8002eec:	e7b3      	b.n	8002e56 <HAL_I2C_EV_IRQHandler+0x346>
 8002eee:	6859      	ldr	r1, [r3, #4]
 8002ef0:	050e      	lsls	r6, r1, #20
 8002ef2:	f53f ae29 	bmi.w	8002b48 <HAL_I2C_EV_IRQHandler+0x38>
 8002ef6:	0645      	lsls	r5, r0, #25
 8002ef8:	f000 0104 	and.w	r1, r0, #4
 8002efc:	d57d      	bpl.n	8002ffa <HAL_I2C_EV_IRQHandler+0x4ea>
 8002efe:	0550      	lsls	r0, r2, #21
 8002f00:	d57b      	bpl.n	8002ffa <HAL_I2C_EV_IRQHandler+0x4ea>
 8002f02:	2900      	cmp	r1, #0
 8002f04:	d17c      	bne.n	8003000 <HAL_I2C_EV_IRQHandler+0x4f0>
 8002f06:	f894 203d 	ldrb.w	r2, [r4, #61]	@ 0x3d
 8002f0a:	2a22      	cmp	r2, #34	@ 0x22
 8002f0c:	f47f ae1c 	bne.w	8002b48 <HAL_I2C_EV_IRQHandler+0x38>
 8002f10:	8d62      	ldrh	r2, [r4, #42]	@ 0x2a
 8002f12:	b292      	uxth	r2, r2
 8002f14:	2a03      	cmp	r2, #3
 8002f16:	d91b      	bls.n	8002f50 <HAL_I2C_EV_IRQHandler+0x440>
 8002f18:	691a      	ldr	r2, [r3, #16]
 8002f1a:	6a63      	ldr	r3, [r4, #36]	@ 0x24
 8002f1c:	701a      	strb	r2, [r3, #0]
 8002f1e:	6a63      	ldr	r3, [r4, #36]	@ 0x24
 8002f20:	3301      	adds	r3, #1
 8002f22:	6263      	str	r3, [r4, #36]	@ 0x24
 8002f24:	8d63      	ldrh	r3, [r4, #42]	@ 0x2a
 8002f26:	3b01      	subs	r3, #1
 8002f28:	b29b      	uxth	r3, r3
 8002f2a:	8563      	strh	r3, [r4, #42]	@ 0x2a
 8002f2c:	8d63      	ldrh	r3, [r4, #42]	@ 0x2a
 8002f2e:	b29b      	uxth	r3, r3
 8002f30:	2b03      	cmp	r3, #3
 8002f32:	f47f ae09 	bne.w	8002b48 <HAL_I2C_EV_IRQHandler+0x38>
 8002f36:	6822      	ldr	r2, [r4, #0]
 8002f38:	6853      	ldr	r3, [r2, #4]
 8002f3a:	f423 6380 	bic.w	r3, r3, #1024	@ 0x400
 8002f3e:	6053      	str	r3, [r2, #4]
 8002f40:	e602      	b.n	8002b48 <HAL_I2C_EV_IRQHandler+0x38>
 8002f42:	bf00      	nop
 8002f44:	fffeffeb 	.word	0xfffeffeb
 8002f48:	00010014 	.word	0x00010014
 8002f4c:	01000101 	.word	0x01000101
 8002f50:	6ae0      	ldr	r0, [r4, #44]	@ 0x2c
 8002f52:	2802      	cmp	r0, #2
 8002f54:	f43f af77 	beq.w	8002e46 <HAL_I2C_EV_IRQHandler+0x336>
 8002f58:	2a01      	cmp	r2, #1
 8002f5a:	f63f af74 	bhi.w	8002e46 <HAL_I2C_EV_IRQHandler+0x336>
 8002f5e:	4a75      	ldr	r2, [pc, #468]	@ (8003134 <HAL_I2C_EV_IRQHandler+0x624>)
 8002f60:	910b      	str	r1, [sp, #44]	@ 0x2c
 8002f62:	6812      	ldr	r2, [r2, #0]
 8002f64:	f246 11a8 	movw	r1, #25000	@ 0x61a8
 8002f68:	fbb2 f2f1 	udiv	r2, r2, r1
 8002f6c:	eb02 0282 	add.w	r2, r2, r2, lsl #2
 8002f70:	920b      	str	r2, [sp, #44]	@ 0x2c
 8002f72:	9a0b      	ldr	r2, [sp, #44]	@ 0x2c
 8002f74:	3a01      	subs	r2, #1
 8002f76:	920b      	str	r2, [sp, #44]	@ 0x2c
 8002f78:	990b      	ldr	r1, [sp, #44]	@ 0x2c
 8002f7a:	b9d1      	cbnz	r1, 8002fb2 <HAL_I2C_EV_IRQHandler+0x4a2>
 8002f7c:	6c22      	ldr	r2, [r4, #64]	@ 0x40
 8002f7e:	f042 0220 	orr.w	r2, r2, #32
 8002f82:	6422      	str	r2, [r4, #64]	@ 0x40
 8002f84:	685a      	ldr	r2, [r3, #4]
 8002f86:	f422 62e0 	bic.w	r2, r2, #1792	@ 0x700
 8002f8a:	605a      	str	r2, [r3, #4]
 8002f8c:	691a      	ldr	r2, [r3, #16]
 8002f8e:	6a63      	ldr	r3, [r4, #36]	@ 0x24
 8002f90:	701a      	strb	r2, [r3, #0]
 8002f92:	6a63      	ldr	r3, [r4, #36]	@ 0x24
 8002f94:	3301      	adds	r3, #1
 8002f96:	6263      	str	r3, [r4, #36]	@ 0x24
 8002f98:	8d63      	ldrh	r3, [r4, #42]	@ 0x2a
 8002f9a:	3b01      	subs	r3, #1
 8002f9c:	b29b      	uxth	r3, r3
 8002f9e:	8563      	strh	r3, [r4, #42]	@ 0x2a
 8002fa0:	2320      	movs	r3, #32
 8002fa2:	f884 303d 	strb.w	r3, [r4, #61]	@ 0x3d
 8002fa6:	4620      	mov	r0, r4
 8002fa8:	f884 103e 	strb.w	r1, [r4, #62]	@ 0x3e
 8002fac:	f7ff fca5 	bl	80028fa <HAL_I2C_ErrorCallback>
 8002fb0:	e5ca      	b.n	8002b48 <HAL_I2C_EV_IRQHandler+0x38>
 8002fb2:	681a      	ldr	r2, [r3, #0]
 8002fb4:	f412 7200 	ands.w	r2, r2, #512	@ 0x200
 8002fb8:	d1db      	bne.n	8002f72 <HAL_I2C_EV_IRQHandler+0x462>
 8002fba:	6819      	ldr	r1, [r3, #0]
 8002fbc:	f421 6180 	bic.w	r1, r1, #1024	@ 0x400
 8002fc0:	6019      	str	r1, [r3, #0]
 8002fc2:	6859      	ldr	r1, [r3, #4]
 8002fc4:	f421 61e0 	bic.w	r1, r1, #1792	@ 0x700
 8002fc8:	6059      	str	r1, [r3, #4]
 8002fca:	6919      	ldr	r1, [r3, #16]
 8002fcc:	6a63      	ldr	r3, [r4, #36]	@ 0x24
 8002fce:	7019      	strb	r1, [r3, #0]
 8002fd0:	6a63      	ldr	r3, [r4, #36]	@ 0x24
 8002fd2:	3301      	adds	r3, #1
 8002fd4:	6263      	str	r3, [r4, #36]	@ 0x24
 8002fd6:	8d63      	ldrh	r3, [r4, #42]	@ 0x2a
 8002fd8:	3b01      	subs	r3, #1
 8002fda:	b29b      	uxth	r3, r3
 8002fdc:	8563      	strh	r3, [r4, #42]	@ 0x2a
 8002fde:	2320      	movs	r3, #32
 8002fe0:	f884 303d 	strb.w	r3, [r4, #61]	@ 0x3d
 8002fe4:	f894 303e 	ldrb.w	r3, [r4, #62]	@ 0x3e
 8002fe8:	f884 203e 	strb.w	r2, [r4, #62]	@ 0x3e
 8002fec:	2b40      	cmp	r3, #64	@ 0x40
 8002fee:	d169      	bne.n	80030c4 <HAL_I2C_EV_IRQHandler+0x5b4>
 8002ff0:	6322      	str	r2, [r4, #48]	@ 0x30
 8002ff2:	4620      	mov	r0, r4
 8002ff4:	f7ff fc80 	bl	80028f8 <HAL_I2C_MemRxCpltCallback>
 8002ff8:	e5a6      	b.n	8002b48 <HAL_I2C_EV_IRQHandler+0x38>
 8002ffa:	2900      	cmp	r1, #0
 8002ffc:	f43f ada4 	beq.w	8002b48 <HAL_I2C_EV_IRQHandler+0x38>
 8003000:	0592      	lsls	r2, r2, #22
 8003002:	f57f ada1 	bpl.w	8002b48 <HAL_I2C_EV_IRQHandler+0x38>
 8003006:	6ae2      	ldr	r2, [r4, #44]	@ 0x2c
 8003008:	8d60      	ldrh	r0, [r4, #42]	@ 0x2a
 800300a:	6a61      	ldr	r1, [r4, #36]	@ 0x24
 800300c:	b280      	uxth	r0, r0
 800300e:	2804      	cmp	r0, #4
 8003010:	d109      	bne.n	8003026 <HAL_I2C_EV_IRQHandler+0x516>
 8003012:	685a      	ldr	r2, [r3, #4]
 8003014:	f422 6280 	bic.w	r2, r2, #1024	@ 0x400
 8003018:	605a      	str	r2, [r3, #4]
 800301a:	691b      	ldr	r3, [r3, #16]
 800301c:	700b      	strb	r3, [r1, #0]
 800301e:	6a63      	ldr	r3, [r4, #36]	@ 0x24
 8003020:	3301      	adds	r3, #1
 8003022:	6263      	str	r3, [r4, #36]	@ 0x24
 8003024:	e733      	b.n	8002e8e <HAL_I2C_EV_IRQHandler+0x37e>
 8003026:	8d60      	ldrh	r0, [r4, #42]	@ 0x2a
 8003028:	b280      	uxth	r0, r0
 800302a:	2803      	cmp	r0, #3
 800302c:	d10c      	bne.n	8003048 <HAL_I2C_EV_IRQHandler+0x538>
 800302e:	6858      	ldr	r0, [r3, #4]
 8003030:	2a04      	cmp	r2, #4
 8003032:	f420 6080 	bic.w	r0, r0, #1024	@ 0x400
 8003036:	6058      	str	r0, [r3, #4]
 8003038:	d0ef      	beq.n	800301a <HAL_I2C_EV_IRQHandler+0x50a>
 800303a:	2a02      	cmp	r2, #2
 800303c:	d0ed      	beq.n	800301a <HAL_I2C_EV_IRQHandler+0x50a>
 800303e:	681a      	ldr	r2, [r3, #0]
 8003040:	f422 6280 	bic.w	r2, r2, #1024	@ 0x400
 8003044:	601a      	str	r2, [r3, #0]
 8003046:	e7e8      	b.n	800301a <HAL_I2C_EV_IRQHandler+0x50a>
 8003048:	8d60      	ldrh	r0, [r4, #42]	@ 0x2a
 800304a:	b280      	uxth	r0, r0
 800304c:	2802      	cmp	r0, #2
 800304e:	d1e4      	bne.n	800301a <HAL_I2C_EV_IRQHandler+0x50a>
 8003050:	2a04      	cmp	r2, #4
 8003052:	d033      	beq.n	80030bc <HAL_I2C_EV_IRQHandler+0x5ac>
 8003054:	d807      	bhi.n	8003066 <HAL_I2C_EV_IRQHandler+0x556>
 8003056:	2a01      	cmp	r2, #1
 8003058:	d007      	beq.n	800306a <HAL_I2C_EV_IRQHandler+0x55a>
 800305a:	2a02      	cmp	r2, #2
 800305c:	d02e      	beq.n	80030bc <HAL_I2C_EV_IRQHandler+0x5ac>
 800305e:	681a      	ldr	r2, [r3, #0]
 8003060:	f442 7200 	orr.w	r2, r2, #512	@ 0x200
 8003064:	e004      	b.n	8003070 <HAL_I2C_EV_IRQHandler+0x560>
 8003066:	2a10      	cmp	r2, #16
 8003068:	d1f9      	bne.n	800305e <HAL_I2C_EV_IRQHandler+0x54e>
 800306a:	681a      	ldr	r2, [r3, #0]
 800306c:	f422 6280 	bic.w	r2, r2, #1024	@ 0x400
 8003070:	601a      	str	r2, [r3, #0]
 8003072:	691b      	ldr	r3, [r3, #16]
 8003074:	700b      	strb	r3, [r1, #0]
 8003076:	6a62      	ldr	r2, [r4, #36]	@ 0x24
 8003078:	1c53      	adds	r3, r2, #1
 800307a:	6263      	str	r3, [r4, #36]	@ 0x24
 800307c:	8d63      	ldrh	r3, [r4, #42]	@ 0x2a
 800307e:	3b01      	subs	r3, #1
 8003080:	b29b      	uxth	r3, r3
 8003082:	8563      	strh	r3, [r4, #42]	@ 0x2a
 8003084:	6823      	ldr	r3, [r4, #0]
 8003086:	691b      	ldr	r3, [r3, #16]
 8003088:	7053      	strb	r3, [r2, #1]
 800308a:	6a63      	ldr	r3, [r4, #36]	@ 0x24
 800308c:	6822      	ldr	r2, [r4, #0]
 800308e:	3301      	adds	r3, #1
 8003090:	6263      	str	r3, [r4, #36]	@ 0x24
 8003092:	8d63      	ldrh	r3, [r4, #42]	@ 0x2a
 8003094:	3b01      	subs	r3, #1
 8003096:	b29b      	uxth	r3, r3
 8003098:	8563      	strh	r3, [r4, #42]	@ 0x2a
 800309a:	6853      	ldr	r3, [r2, #4]
 800309c:	f423 7340 	bic.w	r3, r3, #768	@ 0x300
 80030a0:	6053      	str	r3, [r2, #4]
 80030a2:	2320      	movs	r3, #32
 80030a4:	f884 303d 	strb.w	r3, [r4, #61]	@ 0x3d
 80030a8:	f894 303e 	ldrb.w	r3, [r4, #62]	@ 0x3e
 80030ac:	2b40      	cmp	r3, #64	@ 0x40
 80030ae:	f04f 0300 	mov.w	r3, #0
 80030b2:	f884 303e 	strb.w	r3, [r4, #62]	@ 0x3e
 80030b6:	d105      	bne.n	80030c4 <HAL_I2C_EV_IRQHandler+0x5b4>
 80030b8:	6323      	str	r3, [r4, #48]	@ 0x30
 80030ba:	e79a      	b.n	8002ff2 <HAL_I2C_EV_IRQHandler+0x4e2>
 80030bc:	681a      	ldr	r2, [r3, #0]
 80030be:	f442 6280 	orr.w	r2, r2, #1024	@ 0x400
 80030c2:	e7d5      	b.n	8003070 <HAL_I2C_EV_IRQHandler+0x560>
 80030c4:	2312      	movs	r3, #18
 80030c6:	6323      	str	r3, [r4, #48]	@ 0x30
 80030c8:	4620      	mov	r0, r4
 80030ca:	f7ff fbbe 	bl	800284a <HAL_I2C_MasterRxCpltCallback>
 80030ce:	e53b      	b.n	8002b48 <HAL_I2C_EV_IRQHandler+0x38>
 80030d0:	6c20      	ldr	r0, [r4, #64]	@ 0x40
 80030d2:	b310      	cbz	r0, 800311a <HAL_I2C_EV_IRQHandler+0x60a>
 80030d4:	6958      	ldr	r0, [r3, #20]
 80030d6:	2500      	movs	r5, #0
 80030d8:	0787      	lsls	r7, r0, #30
 80030da:	d52d      	bpl.n	8003138 <HAL_I2C_EV_IRQHandler+0x628>
 80030dc:	0596      	lsls	r6, r2, #22
 80030de:	d52b      	bpl.n	8003138 <HAL_I2C_EV_IRQHandler+0x628>
 80030e0:	6c22      	ldr	r2, [r4, #64]	@ 0x40
 80030e2:	b102      	cbz	r2, 80030e6 <HAL_I2C_EV_IRQHandler+0x5d6>
 80030e4:	699d      	ldr	r5, [r3, #24]
 80030e6:	f894 203d 	ldrb.w	r2, [r4, #61]	@ 0x3d
 80030ea:	f002 0228 	and.w	r2, r2, #40	@ 0x28
 80030ee:	2a28      	cmp	r2, #40	@ 0x28
 80030f0:	d116      	bne.n	8003120 <HAL_I2C_EV_IRQHandler+0x610>
 80030f2:	685a      	ldr	r2, [r3, #4]
 80030f4:	f422 6280 	bic.w	r2, r2, #1024	@ 0x400
 80030f8:	605a      	str	r2, [r3, #4]
 80030fa:	062f      	lsls	r7, r5, #24
 80030fc:	f085 0104 	eor.w	r1, r5, #4
 8003100:	f04f 0300 	mov.w	r3, #0
 8003104:	bf54      	ite	pl
 8003106:	89a2      	ldrhpl	r2, [r4, #12]
 8003108:	8b22      	ldrhmi	r2, [r4, #24]
 800310a:	f884 303c 	strb.w	r3, [r4, #60]	@ 0x3c
 800310e:	f3c1 0180 	ubfx	r1, r1, #2, #1
 8003112:	4620      	mov	r0, r4
 8003114:	f7ff fb9c 	bl	8002850 <HAL_I2C_AddrCallback>
 8003118:	e516      	b.n	8002b48 <HAL_I2C_EV_IRQHandler+0x38>
 800311a:	699d      	ldr	r5, [r3, #24]
 800311c:	6958      	ldr	r0, [r3, #20]
 800311e:	e7db      	b.n	80030d8 <HAL_I2C_EV_IRQHandler+0x5c8>
 8003120:	2200      	movs	r2, #0
 8003122:	920c      	str	r2, [sp, #48]	@ 0x30
 8003124:	6959      	ldr	r1, [r3, #20]
 8003126:	910c      	str	r1, [sp, #48]	@ 0x30
 8003128:	699b      	ldr	r3, [r3, #24]
 800312a:	930c      	str	r3, [sp, #48]	@ 0x30
 800312c:	9b0c      	ldr	r3, [sp, #48]	@ 0x30
 800312e:	f884 203c 	strb.w	r2, [r4, #60]	@ 0x3c
 8003132:	e509      	b.n	8002b48 <HAL_I2C_EV_IRQHandler+0x38>
 8003134:	20000004 	.word	0x20000004
 8003138:	06c6      	lsls	r6, r0, #27
 800313a:	f140 80b1 	bpl.w	80032a0 <HAL_I2C_EV_IRQHandler+0x790>
 800313e:	0595      	lsls	r5, r2, #22
 8003140:	f140 80ae 	bpl.w	80032a0 <HAL_I2C_EV_IRQHandler+0x790>
 8003144:	f894 503d 	ldrb.w	r5, [r4, #61]	@ 0x3d
 8003148:	685a      	ldr	r2, [r3, #4]
 800314a:	f422 62e0 	bic.w	r2, r2, #1792	@ 0x700
 800314e:	605a      	str	r2, [r3, #4]
 8003150:	2200      	movs	r2, #0
 8003152:	920d      	str	r2, [sp, #52]	@ 0x34
 8003154:	695a      	ldr	r2, [r3, #20]
 8003156:	920d      	str	r2, [sp, #52]	@ 0x34
 8003158:	681a      	ldr	r2, [r3, #0]
 800315a:	f042 0201 	orr.w	r2, r2, #1
 800315e:	601a      	str	r2, [r3, #0]
 8003160:	9a0d      	ldr	r2, [sp, #52]	@ 0x34
 8003162:	681a      	ldr	r2, [r3, #0]
 8003164:	f422 6280 	bic.w	r2, r2, #1024	@ 0x400
 8003168:	601a      	str	r2, [r3, #0]
 800316a:	685a      	ldr	r2, [r3, #4]
 800316c:	0510      	lsls	r0, r2, #20
 800316e:	b2ed      	uxtb	r5, r5
 8003170:	d520      	bpl.n	80031b4 <HAL_I2C_EV_IRQHandler+0x6a4>
 8003172:	f005 02f7 	and.w	r2, r5, #247	@ 0xf7
 8003176:	2a22      	cmp	r2, #34	@ 0x22
 8003178:	d14a      	bne.n	8003210 <HAL_I2C_EV_IRQHandler+0x700>
 800317a:	6ba0      	ldr	r0, [r4, #56]	@ 0x38
 800317c:	6802      	ldr	r2, [r0, #0]
 800317e:	6852      	ldr	r2, [r2, #4]
 8003180:	b292      	uxth	r2, r2
 8003182:	8562      	strh	r2, [r4, #42]	@ 0x2a
 8003184:	8d62      	ldrh	r2, [r4, #42]	@ 0x2a
 8003186:	b292      	uxth	r2, r2
 8003188:	b11a      	cbz	r2, 8003192 <HAL_I2C_EV_IRQHandler+0x682>
 800318a:	6c22      	ldr	r2, [r4, #64]	@ 0x40
 800318c:	f042 0204 	orr.w	r2, r2, #4
 8003190:	6422      	str	r2, [r4, #64]	@ 0x40
 8003192:	685a      	ldr	r2, [r3, #4]
 8003194:	f422 6200 	bic.w	r2, r2, #2048	@ 0x800
 8003198:	605a      	str	r2, [r3, #4]
 800319a:	f7ff f831 	bl	8002200 <HAL_DMA_GetState>
 800319e:	2801      	cmp	r0, #1
 80031a0:	d008      	beq.n	80031b4 <HAL_I2C_EV_IRQHandler+0x6a4>
 80031a2:	6ba0      	ldr	r0, [r4, #56]	@ 0x38
 80031a4:	4b79      	ldr	r3, [pc, #484]	@ (800338c <HAL_I2C_EV_IRQHandler+0x87c>)
 80031a6:	6503      	str	r3, [r0, #80]	@ 0x50
 80031a8:	f7fe ff5a 	bl	8002060 <HAL_DMA_Abort_IT>
 80031ac:	b110      	cbz	r0, 80031b4 <HAL_I2C_EV_IRQHandler+0x6a4>
 80031ae:	6ba0      	ldr	r0, [r4, #56]	@ 0x38
 80031b0:	6d03      	ldr	r3, [r0, #80]	@ 0x50
 80031b2:	4798      	blx	r3
 80031b4:	8d63      	ldrh	r3, [r4, #42]	@ 0x2a
 80031b6:	b29b      	uxth	r3, r3
 80031b8:	b313      	cbz	r3, 8003200 <HAL_I2C_EV_IRQHandler+0x6f0>
 80031ba:	6823      	ldr	r3, [r4, #0]
 80031bc:	695a      	ldr	r2, [r3, #20]
 80031be:	0751      	lsls	r1, r2, #29
 80031c0:	d509      	bpl.n	80031d6 <HAL_I2C_EV_IRQHandler+0x6c6>
 80031c2:	691a      	ldr	r2, [r3, #16]
 80031c4:	6a63      	ldr	r3, [r4, #36]	@ 0x24
 80031c6:	701a      	strb	r2, [r3, #0]
 80031c8:	6a63      	ldr	r3, [r4, #36]	@ 0x24
 80031ca:	3301      	adds	r3, #1
 80031cc:	6263      	str	r3, [r4, #36]	@ 0x24
 80031ce:	8d63      	ldrh	r3, [r4, #42]	@ 0x2a
 80031d0:	3b01      	subs	r3, #1
 80031d2:	b29b      	uxth	r3, r3
 80031d4:	8563      	strh	r3, [r4, #42]	@ 0x2a
 80031d6:	6823      	ldr	r3, [r4, #0]
 80031d8:	695a      	ldr	r2, [r3, #20]
 80031da:	0652      	lsls	r2, r2, #25
 80031dc:	d509      	bpl.n	80031f2 <HAL_I2C_EV_IRQHandler+0x6e2>
 80031de:	691a      	ldr	r2, [r3, #16]
 80031e0:	6a63      	ldr	r3, [r4, #36]	@ 0x24
 80031e2:	701a      	strb	r2, [r3, #0]
 80031e4:	6a63      	ldr	r3, [r4, #36]	@ 0x24
 80031e6:	3301      	adds	r3, #1
 80031e8:	6263      	str	r3, [r4, #36]	@ 0x24
 80031ea:	8d63      	ldrh	r3, [r4, #42]	@ 0x2a
 80031ec:	3b01      	subs	r3, #1
 80031ee:	b29b      	uxth	r3, r3
 80031f0:	8563      	strh	r3, [r4, #42]	@ 0x2a
 80031f2:	8d63      	ldrh	r3, [r4, #42]	@ 0x2a
 80031f4:	b29b      	uxth	r3, r3
 80031f6:	b11b      	cbz	r3, 8003200 <HAL_I2C_EV_IRQHandler+0x6f0>
 80031f8:	6c23      	ldr	r3, [r4, #64]	@ 0x40
 80031fa:	f043 0304 	orr.w	r3, r3, #4
 80031fe:	6423      	str	r3, [r4, #64]	@ 0x40
 8003200:	6c23      	ldr	r3, [r4, #64]	@ 0x40
 8003202:	b313      	cbz	r3, 800324a <HAL_I2C_EV_IRQHandler+0x73a>
 8003204:	4620      	mov	r0, r4
 8003206:	b00f      	add	sp, #60	@ 0x3c
 8003208:	e8bd 40f0 	ldmia.w	sp!, {r4, r5, r6, r7, lr}
 800320c:	f7ff bbd8 	b.w	80029c0 <I2C_ITError>
 8003210:	6b60      	ldr	r0, [r4, #52]	@ 0x34
 8003212:	6802      	ldr	r2, [r0, #0]
 8003214:	6852      	ldr	r2, [r2, #4]
 8003216:	b292      	uxth	r2, r2
 8003218:	8562      	strh	r2, [r4, #42]	@ 0x2a
 800321a:	8d62      	ldrh	r2, [r4, #42]	@ 0x2a
 800321c:	b292      	uxth	r2, r2
 800321e:	b11a      	cbz	r2, 8003228 <HAL_I2C_EV_IRQHandler+0x718>
 8003220:	6c22      	ldr	r2, [r4, #64]	@ 0x40
 8003222:	f042 0204 	orr.w	r2, r2, #4
 8003226:	6422      	str	r2, [r4, #64]	@ 0x40
 8003228:	685a      	ldr	r2, [r3, #4]
 800322a:	f422 6200 	bic.w	r2, r2, #2048	@ 0x800
 800322e:	605a      	str	r2, [r3, #4]
 8003230:	f7fe ffe6 	bl	8002200 <HAL_DMA_GetState>
 8003234:	2801      	cmp	r0, #1
 8003236:	d0bd      	beq.n	80031b4 <HAL_I2C_EV_IRQHandler+0x6a4>
 8003238:	6b60      	ldr	r0, [r4, #52]	@ 0x34
 800323a:	4b54      	ldr	r3, [pc, #336]	@ (800338c <HAL_I2C_EV_IRQHandler+0x87c>)
 800323c:	6503      	str	r3, [r0, #80]	@ 0x50
 800323e:	f7fe ff0f 	bl	8002060 <HAL_DMA_Abort_IT>
 8003242:	2800      	cmp	r0, #0
 8003244:	d0b6      	beq.n	80031b4 <HAL_I2C_EV_IRQHandler+0x6a4>
 8003246:	6b60      	ldr	r0, [r4, #52]	@ 0x34
 8003248:	e7b2      	b.n	80031b0 <HAL_I2C_EV_IRQHandler+0x6a0>
 800324a:	2d2a      	cmp	r5, #42	@ 0x2a
 800324c:	d106      	bne.n	800325c <HAL_I2C_EV_IRQHandler+0x74c>
 800324e:	6323      	str	r3, [r4, #48]	@ 0x30
 8003250:	2328      	movs	r3, #40	@ 0x28
 8003252:	f884 303d 	strb.w	r3, [r4, #61]	@ 0x3d
 8003256:	4620      	mov	r0, r4
 8003258:	f7ff faf9 	bl	800284e <HAL_I2C_SlaveRxCpltCallback>
 800325c:	f894 303d 	ldrb.w	r3, [r4, #61]	@ 0x3d
 8003260:	2b28      	cmp	r3, #40	@ 0x28
 8003262:	d10c      	bne.n	800327e <HAL_I2C_EV_IRQHandler+0x76e>
 8003264:	4b4a      	ldr	r3, [pc, #296]	@ (8003390 <HAL_I2C_EV_IRQHandler+0x880>)
 8003266:	62e3      	str	r3, [r4, #44]	@ 0x2c
 8003268:	2220      	movs	r2, #32
 800326a:	2300      	movs	r3, #0
 800326c:	6323      	str	r3, [r4, #48]	@ 0x30
 800326e:	4620      	mov	r0, r4
 8003270:	f884 203d 	strb.w	r2, [r4, #61]	@ 0x3d
 8003274:	f884 303e 	strb.w	r3, [r4, #62]	@ 0x3e
 8003278:	f7ff faeb 	bl	8002852 <HAL_I2C_ListenCpltCallback>
 800327c:	e464      	b.n	8002b48 <HAL_I2C_EV_IRQHandler+0x38>
 800327e:	6b23      	ldr	r3, [r4, #48]	@ 0x30
 8003280:	2b22      	cmp	r3, #34	@ 0x22
 8003282:	d002      	beq.n	800328a <HAL_I2C_EV_IRQHandler+0x77a>
 8003284:	2d22      	cmp	r5, #34	@ 0x22
 8003286:	f47f ac5f 	bne.w	8002b48 <HAL_I2C_EV_IRQHandler+0x38>
 800328a:	2300      	movs	r3, #0
 800328c:	2220      	movs	r2, #32
 800328e:	6323      	str	r3, [r4, #48]	@ 0x30
 8003290:	f884 203d 	strb.w	r2, [r4, #61]	@ 0x3d
 8003294:	f884 303e 	strb.w	r3, [r4, #62]	@ 0x3e
 8003298:	4620      	mov	r0, r4
 800329a:	f7ff fad8 	bl	800284e <HAL_I2C_SlaveRxCpltCallback>
 800329e:	e453      	b.n	8002b48 <HAL_I2C_EV_IRQHandler+0x38>
 80032a0:	f001 01f7 	and.w	r1, r1, #247	@ 0xf7
 80032a4:	2921      	cmp	r1, #33	@ 0x21
 80032a6:	f000 0504 	and.w	r5, r0, #4
 80032aa:	d135      	bne.n	8003318 <HAL_I2C_EV_IRQHandler+0x808>
 80032ac:	0607      	lsls	r7, r0, #24
 80032ae:	d527      	bpl.n	8003300 <HAL_I2C_EV_IRQHandler+0x7f0>
 80032b0:	0556      	lsls	r6, r2, #21
 80032b2:	d525      	bpl.n	8003300 <HAL_I2C_EV_IRQHandler+0x7f0>
 80032b4:	bb3d      	cbnz	r5, 8003306 <HAL_I2C_EV_IRQHandler+0x7f6>
 80032b6:	f894 003d 	ldrb.w	r0, [r4, #61]	@ 0x3d
 80032ba:	8d62      	ldrh	r2, [r4, #42]	@ 0x2a
 80032bc:	b292      	uxth	r2, r2
 80032be:	b2c0      	uxtb	r0, r0
 80032c0:	2a00      	cmp	r2, #0
 80032c2:	f43f ac41 	beq.w	8002b48 <HAL_I2C_EV_IRQHandler+0x38>
 80032c6:	6a62      	ldr	r2, [r4, #36]	@ 0x24
 80032c8:	f812 5b01 	ldrb.w	r5, [r2], #1
 80032cc:	611d      	str	r5, [r3, #16]
 80032ce:	6262      	str	r2, [r4, #36]	@ 0x24
 80032d0:	8d62      	ldrh	r2, [r4, #42]	@ 0x2a
 80032d2:	3a01      	subs	r2, #1
 80032d4:	b292      	uxth	r2, r2
 80032d6:	8562      	strh	r2, [r4, #42]	@ 0x2a
 80032d8:	8d62      	ldrh	r2, [r4, #42]	@ 0x2a
 80032da:	b292      	uxth	r2, r2
 80032dc:	2a00      	cmp	r2, #0
 80032de:	f47f ac33 	bne.w	8002b48 <HAL_I2C_EV_IRQHandler+0x38>
 80032e2:	2829      	cmp	r0, #41	@ 0x29
 80032e4:	f47f ac30 	bne.w	8002b48 <HAL_I2C_EV_IRQHandler+0x38>
 80032e8:	685a      	ldr	r2, [r3, #4]
 80032ea:	f422 6280 	bic.w	r2, r2, #1024	@ 0x400
 80032ee:	605a      	str	r2, [r3, #4]
 80032f0:	2328      	movs	r3, #40	@ 0x28
 80032f2:	6321      	str	r1, [r4, #48]	@ 0x30
 80032f4:	4620      	mov	r0, r4
 80032f6:	f884 303d 	strb.w	r3, [r4, #61]	@ 0x3d
 80032fa:	f7ff faa7 	bl	800284c <HAL_I2C_SlaveTxCpltCallback>
 80032fe:	e423      	b.n	8002b48 <HAL_I2C_EV_IRQHandler+0x38>
 8003300:	2d00      	cmp	r5, #0
 8003302:	f43f ac21 	beq.w	8002b48 <HAL_I2C_EV_IRQHandler+0x38>
 8003306:	0595      	lsls	r5, r2, #22
 8003308:	f57f ac1e 	bpl.w	8002b48 <HAL_I2C_EV_IRQHandler+0x38>
 800330c:	8d62      	ldrh	r2, [r4, #42]	@ 0x2a
 800330e:	b292      	uxth	r2, r2
 8003310:	2a00      	cmp	r2, #0
 8003312:	f43f ac19 	beq.w	8002b48 <HAL_I2C_EV_IRQHandler+0x38>
 8003316:	e5b5      	b.n	8002e84 <HAL_I2C_EV_IRQHandler+0x374>
 8003318:	0640      	lsls	r0, r0, #25
 800331a:	d527      	bpl.n	800336c <HAL_I2C_EV_IRQHandler+0x85c>
 800331c:	0551      	lsls	r1, r2, #21
 800331e:	d525      	bpl.n	800336c <HAL_I2C_EV_IRQHandler+0x85c>
 8003320:	bb3d      	cbnz	r5, 8003372 <HAL_I2C_EV_IRQHandler+0x862>
 8003322:	f894 203d 	ldrb.w	r2, [r4, #61]	@ 0x3d
 8003326:	8d61      	ldrh	r1, [r4, #42]	@ 0x2a
 8003328:	b289      	uxth	r1, r1
 800332a:	b2d2      	uxtb	r2, r2
 800332c:	2900      	cmp	r1, #0
 800332e:	f43f ac0b 	beq.w	8002b48 <HAL_I2C_EV_IRQHandler+0x38>
 8003332:	6919      	ldr	r1, [r3, #16]
 8003334:	6a63      	ldr	r3, [r4, #36]	@ 0x24
 8003336:	7019      	strb	r1, [r3, #0]
 8003338:	6a63      	ldr	r3, [r4, #36]	@ 0x24
 800333a:	3301      	adds	r3, #1
 800333c:	6263      	str	r3, [r4, #36]	@ 0x24
 800333e:	8d63      	ldrh	r3, [r4, #42]	@ 0x2a
 8003340:	3b01      	subs	r3, #1
 8003342:	b29b      	uxth	r3, r3
 8003344:	8563      	strh	r3, [r4, #42]	@ 0x2a
 8003346:	8d63      	ldrh	r3, [r4, #42]	@ 0x2a
 8003348:	b29b      	uxth	r3, r3
 800334a:	2b00      	cmp	r3, #0
 800334c:	f47f abfc 	bne.w	8002b48 <HAL_I2C_EV_IRQHandler+0x38>
 8003350:	2a2a      	cmp	r2, #42	@ 0x2a
 8003352:	f47f abf9 	bne.w	8002b48 <HAL_I2C_EV_IRQHandler+0x38>
 8003356:	6822      	ldr	r2, [r4, #0]
 8003358:	6853      	ldr	r3, [r2, #4]
 800335a:	f423 6380 	bic.w	r3, r3, #1024	@ 0x400
 800335e:	6053      	str	r3, [r2, #4]
 8003360:	2322      	movs	r3, #34	@ 0x22
 8003362:	6323      	str	r3, [r4, #48]	@ 0x30
 8003364:	2328      	movs	r3, #40	@ 0x28
 8003366:	f884 303d 	strb.w	r3, [r4, #61]	@ 0x3d
 800336a:	e795      	b.n	8003298 <HAL_I2C_EV_IRQHandler+0x788>
 800336c:	2d00      	cmp	r5, #0
 800336e:	f43f abeb 	beq.w	8002b48 <HAL_I2C_EV_IRQHandler+0x38>
 8003372:	0592      	lsls	r2, r2, #22
 8003374:	f57f abe8 	bpl.w	8002b48 <HAL_I2C_EV_IRQHandler+0x38>
 8003378:	8d62      	ldrh	r2, [r4, #42]	@ 0x2a
 800337a:	b292      	uxth	r2, r2
 800337c:	2a00      	cmp	r2, #0
 800337e:	f43f abe3 	beq.w	8002b48 <HAL_I2C_EV_IRQHandler+0x38>
 8003382:	691a      	ldr	r2, [r3, #16]
 8003384:	6a63      	ldr	r3, [r4, #36]	@ 0x24
 8003386:	701a      	strb	r2, [r3, #0]
 8003388:	e649      	b.n	800301e <HAL_I2C_EV_IRQHandler+0x50e>
 800338a:	bf00      	nop
 800338c:	08002901 	.word	0x08002901
 8003390:	ffff0000 	.word	0xffff0000

08003394 <HAL_PCD_Init>:
 8003394:	b5f0      	push	{r4, r5, r6, r7, lr}
 8003396:	4604      	mov	r4, r0
 8003398:	b08b      	sub	sp, #44	@ 0x2c
 800339a:	b3a8      	cbz	r0, 8003408 <HAL_PCD_Init+0x74>
 800339c:	6803      	ldr	r3, [r0, #0]
 800339e:	f1b3 4fa0 	cmp.w	r3, #1342177280	@ 0x50000000
 80033a2:	d003      	beq.n	80033ac <HAL_PCD_Init+0x18>
 80033a4:	4841      	ldr	r0, [pc, #260]	@ (80034ac <HAL_PCD_Init+0x118>)
 80033a6:	2187      	movs	r1, #135	@ 0x87
 80033a8:	f7fd fe62 	bl	8001070 <assert_failed>
 80033ac:	f894 34bd 	ldrb.w	r3, [r4, #1213]	@ 0x4bd
 80033b0:	6825      	ldr	r5, [r4, #0]
 80033b2:	f003 02ff 	and.w	r2, r3, #255	@ 0xff
 80033b6:	b923      	cbnz	r3, 80033c2 <HAL_PCD_Init+0x2e>
 80033b8:	f884 24bc 	strb.w	r2, [r4, #1212]	@ 0x4bc
 80033bc:	4620      	mov	r0, r4
 80033be:	f7fe f8d9 	bl	8001574 <HAL_PCD_MspInit>
 80033c2:	2303      	movs	r3, #3
 80033c4:	f884 34bd 	strb.w	r3, [r4, #1213]	@ 0x4bd
 80033c8:	6beb      	ldr	r3, [r5, #60]	@ 0x3c
 80033ca:	4625      	mov	r5, r4
 80033cc:	f413 7380 	ands.w	r3, r3, #256	@ 0x100
 80033d0:	f855 0b10 	ldr.w	r0, [r5], #16
 80033d4:	bf08      	it	eq
 80033d6:	6123      	streq	r3, [r4, #16]
 80033d8:	f002 fa62 	bl	80058a0 <USB_DisableGlobalInt>
 80033dc:	cd0f      	ldmia	r5!, {r0, r1, r2, r3}
 80033de:	466e      	mov	r6, sp
 80033e0:	c60f      	stmia	r6!, {r0, r1, r2, r3}
 80033e2:	cd0f      	ldmia	r5!, {r0, r1, r2, r3}
 80033e4:	c60f      	stmia	r6!, {r0, r1, r2, r3}
 80033e6:	e895 0003 	ldmia.w	r5, {r0, r1}
 80033ea:	e886 0003 	stmia.w	r6, {r0, r1}
 80033ee:	4625      	mov	r5, r4
 80033f0:	1d27      	adds	r7, r4, #4
 80033f2:	e897 000e 	ldmia.w	r7, {r1, r2, r3}
 80033f6:	f855 0b10 	ldr.w	r0, [r5], #16
 80033fa:	f002 f99b 	bl	8005734 <USB_CoreInit>
 80033fe:	4606      	mov	r6, r0
 8003400:	b130      	cbz	r0, 8003410 <HAL_PCD_Init+0x7c>
 8003402:	2302      	movs	r3, #2
 8003404:	f884 34bd 	strb.w	r3, [r4, #1213]	@ 0x4bd
 8003408:	2501      	movs	r5, #1
 800340a:	4628      	mov	r0, r5
 800340c:	b00b      	add	sp, #44	@ 0x2c
 800340e:	bdf0      	pop	{r4, r5, r6, r7, pc}
 8003410:	4601      	mov	r1, r0
 8003412:	6820      	ldr	r0, [r4, #0]
 8003414:	f002 fa4a 	bl	80058ac <USB_SetCurrentMode>
 8003418:	4631      	mov	r1, r6
 800341a:	f8d4 c004 	ldr.w	ip, [r4, #4]
 800341e:	2624      	movs	r6, #36	@ 0x24
 8003420:	f04f 0e01 	mov.w	lr, #1
 8003424:	4608      	mov	r0, r1
 8003426:	b2ca      	uxtb	r2, r1
 8003428:	4594      	cmp	ip, r2
 800342a:	f101 0101 	add.w	r1, r1, #1
 800342e:	d821      	bhi.n	8003474 <HAL_PCD_Init+0xe0>
 8003430:	2100      	movs	r1, #0
 8003432:	2624      	movs	r6, #36	@ 0x24
 8003434:	460a      	mov	r2, r1
 8003436:	b2c8      	uxtb	r0, r1
 8003438:	4584      	cmp	ip, r0
 800343a:	f101 0101 	add.w	r1, r1, #1
 800343e:	d827      	bhi.n	8003490 <HAL_PCD_Init+0xfc>
 8003440:	cd0f      	ldmia	r5!, {r0, r1, r2, r3}
 8003442:	466e      	mov	r6, sp
 8003444:	c60f      	stmia	r6!, {r0, r1, r2, r3}
 8003446:	cd0f      	ldmia	r5!, {r0, r1, r2, r3}
 8003448:	c60f      	stmia	r6!, {r0, r1, r2, r3}
 800344a:	e895 0003 	ldmia.w	r5, {r0, r1}
 800344e:	e886 0003 	stmia.w	r6, {r0, r1}
 8003452:	e897 000e 	ldmia.w	r7, {r1, r2, r3}
 8003456:	6820      	ldr	r0, [r4, #0]
 8003458:	f002 faaa 	bl	80059b0 <USB_DevInit>
 800345c:	4605      	mov	r5, r0
 800345e:	2800      	cmp	r0, #0
 8003460:	d1cf      	bne.n	8003402 <HAL_PCD_Init+0x6e>
 8003462:	2301      	movs	r3, #1
 8003464:	f884 0038 	strb.w	r0, [r4, #56]	@ 0x38
 8003468:	6820      	ldr	r0, [r4, #0]
 800346a:	f884 34bd 	strb.w	r3, [r4, #1213]	@ 0x4bd
 800346e:	f002 fe4b 	bl	8006108 <USB_DevDisconnect>
 8003472:	e7ca      	b.n	800340a <HAL_PCD_Init+0x76>
 8003474:	fb06 4302 	mla	r3, r6, r2, r4
 8003478:	e9c3 0012 	strd	r0, r0, [r3, #72]	@ 0x48
 800347c:	f883 e03d 	strb.w	lr, [r3, #61]	@ 0x3d
 8003480:	f883 203c 	strb.w	r2, [r3, #60]	@ 0x3c
 8003484:	f8a3 2044 	strh.w	r2, [r3, #68]	@ 0x44
 8003488:	f883 0040 	strb.w	r0, [r3, #64]	@ 0x40
 800348c:	6558      	str	r0, [r3, #84]	@ 0x54
 800348e:	e7ca      	b.n	8003426 <HAL_PCD_Init+0x92>
 8003490:	fb06 4300 	mla	r3, r6, r0, r4
 8003494:	e9c3 22a2 	strd	r2, r2, [r3, #648]	@ 0x288
 8003498:	f883 227d 	strb.w	r2, [r3, #637]	@ 0x27d
 800349c:	f883 027c 	strb.w	r0, [r3, #636]	@ 0x27c
 80034a0:	f883 2280 	strb.w	r2, [r3, #640]	@ 0x280
 80034a4:	f8c3 2294 	str.w	r2, [r3, #660]	@ 0x294
 80034a8:	e7c5      	b.n	8003436 <HAL_PCD_Init+0xa2>
 80034aa:	bf00      	nop
 80034ac:	0800a9ee 	.word	0x0800a9ee

080034b0 <HAL_PCD_Start>:
 80034b0:	b510      	push	{r4, lr}
 80034b2:	4604      	mov	r4, r0
 80034b4:	6800      	ldr	r0, [r0, #0]
 80034b6:	f894 34bc 	ldrb.w	r3, [r4, #1212]	@ 0x4bc
 80034ba:	2b01      	cmp	r3, #1
 80034bc:	d015      	beq.n	80034ea <HAL_PCD_Start+0x3a>
 80034be:	2301      	movs	r3, #1
 80034c0:	f884 34bc 	strb.w	r3, [r4, #1212]	@ 0x4bc
 80034c4:	6aa3      	ldr	r3, [r4, #40]	@ 0x28
 80034c6:	2b01      	cmp	r3, #1
 80034c8:	d106      	bne.n	80034d8 <HAL_PCD_Start+0x28>
 80034ca:	69a3      	ldr	r3, [r4, #24]
 80034cc:	2b01      	cmp	r3, #1
 80034ce:	bf1e      	ittt	ne
 80034d0:	6b83      	ldrne	r3, [r0, #56]	@ 0x38
 80034d2:	f443 3380 	orrne.w	r3, r3, #65536	@ 0x10000
 80034d6:	6383      	strne	r3, [r0, #56]	@ 0x38
 80034d8:	f002 f9dc 	bl	8005894 <USB_EnableGlobalInt>
 80034dc:	6820      	ldr	r0, [r4, #0]
 80034de:	f002 fe05 	bl	80060ec <USB_DevConnect>
 80034e2:	2000      	movs	r0, #0
 80034e4:	f884 04bc 	strb.w	r0, [r4, #1212]	@ 0x4bc
 80034e8:	bd10      	pop	{r4, pc}
 80034ea:	2002      	movs	r0, #2
 80034ec:	e7fc      	b.n	80034e8 <HAL_PCD_Start+0x38>

080034ee <HAL_PCD_SetAddress>:
 80034ee:	b510      	push	{r4, lr}
 80034f0:	f890 24bc 	ldrb.w	r2, [r0, #1212]	@ 0x4bc
 80034f4:	2a01      	cmp	r2, #1
 80034f6:	4604      	mov	r4, r0
 80034f8:	d00b      	beq.n	8003512 <HAL_PCD_SetAddress+0x24>
 80034fa:	2201      	movs	r2, #1
 80034fc:	f880 24bc 	strb.w	r2, [r0, #1212]	@ 0x4bc
 8003500:	f880 1038 	strb.w	r1, [r0, #56]	@ 0x38
 8003504:	6800      	ldr	r0, [r0, #0]
 8003506:	f002 fde1 	bl	80060cc <USB_SetDevAddress>
 800350a:	2000      	movs	r0, #0
 800350c:	f884 04bc 	strb.w	r0, [r4, #1212]	@ 0x4bc
 8003510:	bd10      	pop	{r4, pc}
 8003512:	2002      	movs	r0, #2
 8003514:	e7fc      	b.n	8003510 <HAL_PCD_SetAddress+0x22>

08003516 <HAL_PCD_EP_Open>:
 8003516:	b570      	push	{r4, r5, r6, lr}
 8003518:	f001 060f 	and.w	r6, r1, #15
 800351c:	eb06 04c6 	add.w	r4, r6, r6, lsl #3
 8003520:	f011 0f80 	tst.w	r1, #128	@ 0x80
 8003524:	4605      	mov	r5, r0
 8003526:	ea4f 0484 	mov.w	r4, r4, lsl #2
 800352a:	f04f 0024 	mov.w	r0, #36	@ 0x24
 800352e:	d01f      	beq.n	8003570 <HAL_PCD_EP_Open+0x5a>
 8003530:	fb00 5006 	mla	r0, r0, r6, r5
 8003534:	f104 013c 	add.w	r1, r4, #60	@ 0x3c
 8003538:	2401      	movs	r4, #1
 800353a:	4429      	add	r1, r5
 800353c:	f880 403d 	strb.w	r4, [r0, #61]	@ 0x3d
 8003540:	60ca      	str	r2, [r1, #12]
 8003542:	784a      	ldrb	r2, [r1, #1]
 8003544:	700e      	strb	r6, [r1, #0]
 8003546:	710b      	strb	r3, [r1, #4]
 8003548:	b102      	cbz	r2, 800354c <HAL_PCD_EP_Open+0x36>
 800354a:	810e      	strh	r6, [r1, #8]
 800354c:	2b02      	cmp	r3, #2
 800354e:	bf04      	itt	eq
 8003550:	2300      	moveq	r3, #0
 8003552:	714b      	strbeq	r3, [r1, #5]
 8003554:	f895 34bc 	ldrb.w	r3, [r5, #1212]	@ 0x4bc
 8003558:	2b01      	cmp	r3, #1
 800355a:	d012      	beq.n	8003582 <HAL_PCD_EP_Open+0x6c>
 800355c:	2301      	movs	r3, #1
 800355e:	6828      	ldr	r0, [r5, #0]
 8003560:	f885 34bc 	strb.w	r3, [r5, #1212]	@ 0x4bc
 8003564:	f002 faed 	bl	8005b42 <USB_ActivateEndpoint>
 8003568:	2000      	movs	r0, #0
 800356a:	f885 04bc 	strb.w	r0, [r5, #1212]	@ 0x4bc
 800356e:	bd70      	pop	{r4, r5, r6, pc}
 8003570:	fb00 5006 	mla	r0, r0, r6, r5
 8003574:	f504 711f 	add.w	r1, r4, #636	@ 0x27c
 8003578:	2400      	movs	r4, #0
 800357a:	4429      	add	r1, r5
 800357c:	f880 427d 	strb.w	r4, [r0, #637]	@ 0x27d
 8003580:	e7de      	b.n	8003540 <HAL_PCD_EP_Open+0x2a>
 8003582:	2002      	movs	r0, #2
 8003584:	e7f3      	b.n	800356e <HAL_PCD_EP_Open+0x58>

08003586 <HAL_PCD_EP_Close>:
 8003586:	b510      	push	{r4, lr}
 8003588:	4604      	mov	r4, r0
 800358a:	f001 000f 	and.w	r0, r1, #15
 800358e:	eb00 03c0 	add.w	r3, r0, r0, lsl #3
 8003592:	f011 0f80 	tst.w	r1, #128	@ 0x80
 8003596:	ea4f 0383 	mov.w	r3, r3, lsl #2
 800359a:	f04f 0224 	mov.w	r2, #36	@ 0x24
 800359e:	d016      	beq.n	80035ce <HAL_PCD_EP_Close+0x48>
 80035a0:	fb02 4200 	mla	r2, r2, r0, r4
 80035a4:	f103 013c 	add.w	r1, r3, #60	@ 0x3c
 80035a8:	2301      	movs	r3, #1
 80035aa:	4421      	add	r1, r4
 80035ac:	f882 303d 	strb.w	r3, [r2, #61]	@ 0x3d
 80035b0:	7008      	strb	r0, [r1, #0]
 80035b2:	f894 34bc 	ldrb.w	r3, [r4, #1212]	@ 0x4bc
 80035b6:	2b01      	cmp	r3, #1
 80035b8:	d012      	beq.n	80035e0 <HAL_PCD_EP_Close+0x5a>
 80035ba:	2301      	movs	r3, #1
 80035bc:	6820      	ldr	r0, [r4, #0]
 80035be:	f884 34bc 	strb.w	r3, [r4, #1212]	@ 0x4bc
 80035c2:	f002 fafd 	bl	8005bc0 <USB_DeactivateEndpoint>
 80035c6:	2000      	movs	r0, #0
 80035c8:	f884 04bc 	strb.w	r0, [r4, #1212]	@ 0x4bc
 80035cc:	bd10      	pop	{r4, pc}
 80035ce:	fb02 4200 	mla	r2, r2, r0, r4
 80035d2:	f503 711f 	add.w	r1, r3, #636	@ 0x27c
 80035d6:	2300      	movs	r3, #0
 80035d8:	4421      	add	r1, r4
 80035da:	f882 327d 	strb.w	r3, [r2, #637]	@ 0x27d
 80035de:	e7e7      	b.n	80035b0 <HAL_PCD_EP_Close+0x2a>
 80035e0:	2002      	movs	r0, #2
 80035e2:	e7f3      	b.n	80035cc <HAL_PCD_EP_Close+0x46>

080035e4 <HAL_PCD_EP_Receive>:
 80035e4:	b538      	push	{r3, r4, r5, lr}
 80035e6:	f001 050f 	and.w	r5, r1, #15
 80035ea:	2424      	movs	r4, #36	@ 0x24
 80035ec:	fb04 0105 	mla	r1, r4, r5, r0
 80035f0:	fb04 0405 	mla	r4, r4, r5, r0
 80035f4:	f501 711f 	add.w	r1, r1, #636	@ 0x27c
 80035f8:	f8c4 3294 	str.w	r3, [r4, #660]	@ 0x294
 80035fc:	2300      	movs	r3, #0
 80035fe:	f8c4 228c 	str.w	r2, [r4, #652]	@ 0x28c
 8003602:	f8c4 329c 	str.w	r3, [r4, #668]	@ 0x29c
 8003606:	f884 327d 	strb.w	r3, [r4, #637]	@ 0x27d
 800360a:	f884 527c 	strb.w	r5, [r4, #636]	@ 0x27c
 800360e:	6903      	ldr	r3, [r0, #16]
 8003610:	6800      	ldr	r0, [r0, #0]
 8003612:	2b01      	cmp	r3, #1
 8003614:	bf08      	it	eq
 8003616:	f8c4 2290 	streq.w	r2, [r4, #656]	@ 0x290
 800361a:	b2da      	uxtb	r2, r3
 800361c:	b91d      	cbnz	r5, 8003626 <HAL_PCD_EP_Receive+0x42>
 800361e:	f002 fb25 	bl	8005c6c <USB_EP0StartXfer>
 8003622:	2000      	movs	r0, #0
 8003624:	bd38      	pop	{r3, r4, r5, pc}
 8003626:	f002 fbf3 	bl	8005e10 <USB_EPStartXfer>
 800362a:	e7fa      	b.n	8003622 <HAL_PCD_EP_Receive+0x3e>

0800362c <HAL_PCD_EP_GetRxCount>:
 800362c:	f001 010f 	and.w	r1, r1, #15
 8003630:	2324      	movs	r3, #36	@ 0x24
 8003632:	fb03 0001 	mla	r0, r3, r1, r0
 8003636:	f8d0 029c 	ldr.w	r0, [r0, #668]	@ 0x29c
 800363a:	4770      	bx	lr

0800363c <HAL_PCD_EP_Transmit>:
 800363c:	b538      	push	{r3, r4, r5, lr}
 800363e:	f001 050f 	and.w	r5, r1, #15
 8003642:	2424      	movs	r4, #36	@ 0x24
 8003644:	fb04 0105 	mla	r1, r4, r5, r0
 8003648:	fb04 0405 	mla	r4, r4, r5, r0
 800364c:	313c      	adds	r1, #60	@ 0x3c
 800364e:	6563      	str	r3, [r4, #84]	@ 0x54
 8003650:	2300      	movs	r3, #0
 8003652:	65e3      	str	r3, [r4, #92]	@ 0x5c
 8003654:	2301      	movs	r3, #1
 8003656:	64e2      	str	r2, [r4, #76]	@ 0x4c
 8003658:	f884 303d 	strb.w	r3, [r4, #61]	@ 0x3d
 800365c:	f884 503c 	strb.w	r5, [r4, #60]	@ 0x3c
 8003660:	6903      	ldr	r3, [r0, #16]
 8003662:	6800      	ldr	r0, [r0, #0]
 8003664:	2b01      	cmp	r3, #1
 8003666:	bf08      	it	eq
 8003668:	6522      	streq	r2, [r4, #80]	@ 0x50
 800366a:	b2da      	uxtb	r2, r3
 800366c:	b91d      	cbnz	r5, 8003676 <HAL_PCD_EP_Transmit+0x3a>
 800366e:	f002 fafd 	bl	8005c6c <USB_EP0StartXfer>
 8003672:	2000      	movs	r0, #0
 8003674:	bd38      	pop	{r3, r4, r5, pc}
 8003676:	f002 fbcb 	bl	8005e10 <USB_EPStartXfer>
 800367a:	e7fa      	b.n	8003672 <HAL_PCD_EP_Transmit+0x36>

0800367c <HAL_PCD_EP_SetStall>:
 800367c:	b538      	push	{r3, r4, r5, lr}
 800367e:	6843      	ldr	r3, [r0, #4]
 8003680:	f001 050f 	and.w	r5, r1, #15
 8003684:	429d      	cmp	r5, r3
 8003686:	4604      	mov	r4, r0
 8003688:	d82c      	bhi.n	80036e4 <HAL_PCD_EP_SetStall+0x68>
 800368a:	f011 0f80 	tst.w	r1, #128	@ 0x80
 800368e:	f04f 0024 	mov.w	r0, #36	@ 0x24
 8003692:	d01e      	beq.n	80036d2 <HAL_PCD_EP_SetStall+0x56>
 8003694:	fb00 4105 	mla	r1, r0, r5, r4
 8003698:	fb00 4005 	mla	r0, r0, r5, r4
 800369c:	2301      	movs	r3, #1
 800369e:	313c      	adds	r1, #60	@ 0x3c
 80036a0:	f880 303d 	strb.w	r3, [r0, #61]	@ 0x3d
 80036a4:	2301      	movs	r3, #1
 80036a6:	708b      	strb	r3, [r1, #2]
 80036a8:	700d      	strb	r5, [r1, #0]
 80036aa:	f894 24bc 	ldrb.w	r2, [r4, #1212]	@ 0x4bc
 80036ae:	429a      	cmp	r2, r3
 80036b0:	d01a      	beq.n	80036e8 <HAL_PCD_EP_SetStall+0x6c>
 80036b2:	6820      	ldr	r0, [r4, #0]
 80036b4:	f884 34bc 	strb.w	r3, [r4, #1212]	@ 0x4bc
 80036b8:	f002 fcb4 	bl	8006024 <USB_EPSetStall>
 80036bc:	b92d      	cbnz	r5, 80036ca <HAL_PCD_EP_SetStall+0x4e>
 80036be:	7c21      	ldrb	r1, [r4, #16]
 80036c0:	6820      	ldr	r0, [r4, #0]
 80036c2:	f204 42c4 	addw	r2, r4, #1220	@ 0x4c4
 80036c6:	f002 fd6d 	bl	80061a4 <USB_EP0_OutStart>
 80036ca:	2000      	movs	r0, #0
 80036cc:	f884 04bc 	strb.w	r0, [r4, #1212]	@ 0x4bc
 80036d0:	bd38      	pop	{r3, r4, r5, pc}
 80036d2:	fb00 4301 	mla	r3, r0, r1, r4
 80036d6:	461a      	mov	r2, r3
 80036d8:	f503 711f 	add.w	r1, r3, #636	@ 0x27c
 80036dc:	2300      	movs	r3, #0
 80036de:	f882 327d 	strb.w	r3, [r2, #637]	@ 0x27d
 80036e2:	e7df      	b.n	80036a4 <HAL_PCD_EP_SetStall+0x28>
 80036e4:	2001      	movs	r0, #1
 80036e6:	e7f3      	b.n	80036d0 <HAL_PCD_EP_SetStall+0x54>
 80036e8:	2002      	movs	r0, #2
 80036ea:	e7f1      	b.n	80036d0 <HAL_PCD_EP_SetStall+0x54>

080036ec <HAL_PCD_EP_ClrStall>:
 80036ec:	b538      	push	{r3, r4, r5, lr}
 80036ee:	6843      	ldr	r3, [r0, #4]
 80036f0:	f001 020f 	and.w	r2, r1, #15
 80036f4:	429a      	cmp	r2, r3
 80036f6:	4604      	mov	r4, r0
 80036f8:	d82a      	bhi.n	8003750 <HAL_PCD_EP_ClrStall+0x64>
 80036fa:	eb02 03c2 	add.w	r3, r2, r2, lsl #3
 80036fe:	f011 0f80 	tst.w	r1, #128	@ 0x80
 8003702:	ea4f 0383 	mov.w	r3, r3, lsl #2
 8003706:	f04f 0024 	mov.w	r0, #36	@ 0x24
 800370a:	d018      	beq.n	800373e <HAL_PCD_EP_ClrStall+0x52>
 800370c:	fb00 4002 	mla	r0, r0, r2, r4
 8003710:	f103 013c 	add.w	r1, r3, #60	@ 0x3c
 8003714:	2301      	movs	r3, #1
 8003716:	4421      	add	r1, r4
 8003718:	f880 303d 	strb.w	r3, [r0, #61]	@ 0x3d
 800371c:	2500      	movs	r5, #0
 800371e:	708d      	strb	r5, [r1, #2]
 8003720:	700a      	strb	r2, [r1, #0]
 8003722:	f894 34bc 	ldrb.w	r3, [r4, #1212]	@ 0x4bc
 8003726:	2b01      	cmp	r3, #1
 8003728:	d014      	beq.n	8003754 <HAL_PCD_EP_ClrStall+0x68>
 800372a:	2301      	movs	r3, #1
 800372c:	6820      	ldr	r0, [r4, #0]
 800372e:	f884 34bc 	strb.w	r3, [r4, #1212]	@ 0x4bc
 8003732:	f002 fca2 	bl	800607a <USB_EPClearStall>
 8003736:	f884 54bc 	strb.w	r5, [r4, #1212]	@ 0x4bc
 800373a:	4628      	mov	r0, r5
 800373c:	bd38      	pop	{r3, r4, r5, pc}
 800373e:	fb00 4002 	mla	r0, r0, r2, r4
 8003742:	f503 711f 	add.w	r1, r3, #636	@ 0x27c
 8003746:	2300      	movs	r3, #0
 8003748:	4421      	add	r1, r4
 800374a:	f880 327d 	strb.w	r3, [r0, #637]	@ 0x27d
 800374e:	e7e5      	b.n	800371c <HAL_PCD_EP_ClrStall+0x30>
 8003750:	2001      	movs	r0, #1
 8003752:	e7f3      	b.n	800373c <HAL_PCD_EP_ClrStall+0x50>
 8003754:	2002      	movs	r0, #2
 8003756:	e7f1      	b.n	800373c <HAL_PCD_EP_ClrStall+0x50>

08003758 <HAL_PCD_EP_Abort>:
 8003758:	f001 030f 	and.w	r3, r1, #15
 800375c:	eb03 03c3 	add.w	r3, r3, r3, lsl #3
 8003760:	060a      	lsls	r2, r1, #24
 8003762:	ea4f 0383 	mov.w	r3, r3, lsl #2
 8003766:	bf4c      	ite	mi
 8003768:	f103 013c 	addmi.w	r1, r3, #60	@ 0x3c
 800376c:	f503 711f 	addpl.w	r1, r3, #636	@ 0x27c
 8003770:	4401      	add	r1, r0
 8003772:	6800      	ldr	r0, [r0, #0]
 8003774:	f002 baf6 	b.w	8005d64 <USB_EPStopXfer>

08003778 <HAL_PCD_IRQHandler>:
 8003778:	e92d 4ff0 	stmdb	sp!, {r4, r5, r6, r7, r8, r9, sl, fp, lr}
 800377c:	6806      	ldr	r6, [r0, #0]
 800377e:	b089      	sub	sp, #36	@ 0x24
 8003780:	4604      	mov	r4, r0
 8003782:	4630      	mov	r0, r6
 8003784:	f002 fcfc 	bl	8006180 <USB_GetMode>
 8003788:	9003      	str	r0, [sp, #12]
 800378a:	2800      	cmp	r0, #0
 800378c:	f040 8157 	bne.w	8003a3e <HAL_PCD_IRQHandler+0x2c6>
 8003790:	6820      	ldr	r0, [r4, #0]
 8003792:	f002 fcc7 	bl	8006124 <USB_ReadInterrupts>
 8003796:	2800      	cmp	r0, #0
 8003798:	f000 8151 	beq.w	8003a3e <HAL_PCD_IRQHandler+0x2c6>
 800379c:	f8d6 3808 	ldr.w	r3, [r6, #2056]	@ 0x808
 80037a0:	6820      	ldr	r0, [r4, #0]
 80037a2:	f3c3 230d 	ubfx	r3, r3, #8, #14
 80037a6:	f8c4 34fc 	str.w	r3, [r4, #1276]	@ 0x4fc
 80037aa:	f002 fcbb 	bl	8006124 <USB_ReadInterrupts>
 80037ae:	0787      	lsls	r7, r0, #30
 80037b0:	bf48      	it	mi
 80037b2:	6822      	ldrmi	r2, [r4, #0]
 80037b4:	6820      	ldr	r0, [r4, #0]
 80037b6:	bf42      	ittt	mi
 80037b8:	6953      	ldrmi	r3, [r2, #20]
 80037ba:	f003 0302 	andmi.w	r3, r3, #2
 80037be:	6153      	strmi	r3, [r2, #20]
 80037c0:	f002 fcb0 	bl	8006124 <USB_ReadInterrupts>
 80037c4:	06c0      	lsls	r0, r0, #27
 80037c6:	f506 6500 	add.w	r5, r6, #2048	@ 0x800
 80037ca:	d52d      	bpl.n	8003828 <HAL_PCD_IRQHandler+0xb0>
 80037cc:	6822      	ldr	r2, [r4, #0]
 80037ce:	6993      	ldr	r3, [r2, #24]
 80037d0:	f023 0310 	bic.w	r3, r3, #16
 80037d4:	6193      	str	r3, [r2, #24]
 80037d6:	f8d6 8020 	ldr.w	r8, [r6, #32]
 80037da:	f408 13f0 	and.w	r3, r8, #1966080	@ 0x1e0000
 80037de:	f5b3 2f80 	cmp.w	r3, #262144	@ 0x40000
 80037e2:	f008 070f 	and.w	r7, r8, #15
 80037e6:	f040 812d 	bne.w	8003a44 <HAL_PCD_IRQHandler+0x2cc>
 80037ea:	f647 73f0 	movw	r3, #32752	@ 0x7ff0
 80037ee:	ea18 0f03 	tst.w	r8, r3
 80037f2:	d014      	beq.n	800381e <HAL_PCD_IRQHandler+0xa6>
 80037f4:	2324      	movs	r3, #36	@ 0x24
 80037f6:	fb03 4707 	mla	r7, r3, r7, r4
 80037fa:	f3c8 190a 	ubfx	r9, r8, #4, #11
 80037fe:	f8d7 128c 	ldr.w	r1, [r7, #652]	@ 0x28c
 8003802:	464a      	mov	r2, r9
 8003804:	4630      	mov	r0, r6
 8003806:	f002 fbed 	bl	8005fe4 <USB_ReadPacket>
 800380a:	f8d7 328c 	ldr.w	r3, [r7, #652]	@ 0x28c
 800380e:	444b      	add	r3, r9
 8003810:	f8c7 328c 	str.w	r3, [r7, #652]	@ 0x28c
 8003814:	f8d7 329c 	ldr.w	r3, [r7, #668]	@ 0x29c
 8003818:	444b      	add	r3, r9
 800381a:	f8c7 329c 	str.w	r3, [r7, #668]	@ 0x29c
 800381e:	6822      	ldr	r2, [r4, #0]
 8003820:	6993      	ldr	r3, [r2, #24]
 8003822:	f043 0310 	orr.w	r3, r3, #16
 8003826:	6193      	str	r3, [r2, #24]
 8003828:	6820      	ldr	r0, [r4, #0]
 800382a:	f002 fc7b 	bl	8006124 <USB_ReadInterrupts>
 800382e:	0301      	lsls	r1, r0, #12
 8003830:	f100 811b 	bmi.w	8003a6a <HAL_PCD_IRQHandler+0x2f2>
 8003834:	6820      	ldr	r0, [r4, #0]
 8003836:	f002 fc75 	bl	8006124 <USB_ReadInterrupts>
 800383a:	0342      	lsls	r2, r0, #13
 800383c:	d50d      	bpl.n	800385a <HAL_PCD_IRQHandler+0xe2>
 800383e:	6820      	ldr	r0, [r4, #0]
 8003840:	f002 fc7c 	bl	800613c <USB_ReadDevAllInEpInterrupt>
 8003844:	4627      	mov	r7, r4
 8003846:	9004      	str	r0, [sp, #16]
 8003848:	f506 6b10 	add.w	fp, r6, #2304	@ 0x900
 800384c:	f04f 0a00 	mov.w	sl, #0
 8003850:	9b04      	ldr	r3, [sp, #16]
 8003852:	6820      	ldr	r0, [r4, #0]
 8003854:	2b00      	cmp	r3, #0
 8003856:	f040 81cd 	bne.w	8003bf4 <HAL_PCD_IRQHandler+0x47c>
 800385a:	6820      	ldr	r0, [r4, #0]
 800385c:	f002 fc62 	bl	8006124 <USB_ReadInterrupts>
 8003860:	2800      	cmp	r0, #0
 8003862:	da13      	bge.n	800388c <HAL_PCD_IRQHandler+0x114>
 8003864:	686b      	ldr	r3, [r5, #4]
 8003866:	f023 0301 	bic.w	r3, r3, #1
 800386a:	606b      	str	r3, [r5, #4]
 800386c:	f894 34f4 	ldrb.w	r3, [r4, #1268]	@ 0x4f4
 8003870:	2b01      	cmp	r3, #1
 8003872:	f040 8267 	bne.w	8003d44 <HAL_PCD_IRQHandler+0x5cc>
 8003876:	2100      	movs	r1, #0
 8003878:	f884 14f4 	strb.w	r1, [r4, #1268]	@ 0x4f4
 800387c:	4620      	mov	r0, r4
 800387e:	f000 fae2 	bl	8003e46 <HAL_PCDEx_LPM_Callback>
 8003882:	6822      	ldr	r2, [r4, #0]
 8003884:	6953      	ldr	r3, [r2, #20]
 8003886:	f003 4300 	and.w	r3, r3, #2147483648	@ 0x80000000
 800388a:	6153      	str	r3, [r2, #20]
 800388c:	6820      	ldr	r0, [r4, #0]
 800388e:	f002 fc49 	bl	8006124 <USB_ReadInterrupts>
 8003892:	0501      	lsls	r1, r0, #20
 8003894:	d50a      	bpl.n	80038ac <HAL_PCD_IRQHandler+0x134>
 8003896:	68ab      	ldr	r3, [r5, #8]
 8003898:	07da      	lsls	r2, r3, #31
 800389a:	d502      	bpl.n	80038a2 <HAL_PCD_IRQHandler+0x12a>
 800389c:	4620      	mov	r0, r4
 800389e:	f003 fe1f 	bl	80074e0 <HAL_PCD_SuspendCallback>
 80038a2:	6822      	ldr	r2, [r4, #0]
 80038a4:	6953      	ldr	r3, [r2, #20]
 80038a6:	f403 6300 	and.w	r3, r3, #2048	@ 0x800
 80038aa:	6153      	str	r3, [r2, #20]
 80038ac:	6820      	ldr	r0, [r4, #0]
 80038ae:	f002 fc39 	bl	8006124 <USB_ReadInterrupts>
 80038b2:	04c3      	lsls	r3, r0, #19
 80038b4:	d533      	bpl.n	800391e <HAL_PCD_IRQHandler+0x1a6>
 80038b6:	686b      	ldr	r3, [r5, #4]
 80038b8:	6820      	ldr	r0, [r4, #0]
 80038ba:	f023 0301 	bic.w	r3, r3, #1
 80038be:	606b      	str	r3, [r5, #4]
 80038c0:	2110      	movs	r1, #16
 80038c2:	f002 f823 	bl	800590c <USB_FlushTxFifo>
 80038c6:	f506 6310 	add.w	r3, r6, #2304	@ 0x900
 80038ca:	f64f 317f 	movw	r1, #64383	@ 0xfb7f
 80038ce:	6862      	ldr	r2, [r4, #4]
 80038d0:	9803      	ldr	r0, [sp, #12]
 80038d2:	4282      	cmp	r2, r0
 80038d4:	f200 823a 	bhi.w	8003d4c <HAL_PCD_IRQHandler+0x5d4>
 80038d8:	69eb      	ldr	r3, [r5, #28]
 80038da:	f043 1301 	orr.w	r3, r3, #65537	@ 0x10001
 80038de:	61eb      	str	r3, [r5, #28]
 80038e0:	6b23      	ldr	r3, [r4, #48]	@ 0x30
 80038e2:	2b00      	cmp	r3, #0
 80038e4:	f000 824e 	beq.w	8003d84 <HAL_PCD_IRQHandler+0x60c>
 80038e8:	f8d5 3084 	ldr.w	r3, [r5, #132]	@ 0x84
 80038ec:	f043 030b 	orr.w	r3, r3, #11
 80038f0:	f8c5 3084 	str.w	r3, [r5, #132]	@ 0x84
 80038f4:	6c6b      	ldr	r3, [r5, #68]	@ 0x44
 80038f6:	f043 030b 	orr.w	r3, r3, #11
 80038fa:	646b      	str	r3, [r5, #68]	@ 0x44
 80038fc:	f8d6 3800 	ldr.w	r3, [r6, #2048]	@ 0x800
 8003900:	7c21      	ldrb	r1, [r4, #16]
 8003902:	6820      	ldr	r0, [r4, #0]
 8003904:	f423 63fe 	bic.w	r3, r3, #2032	@ 0x7f0
 8003908:	f8c6 3800 	str.w	r3, [r6, #2048]	@ 0x800
 800390c:	f204 42c4 	addw	r2, r4, #1220	@ 0x4c4
 8003910:	f002 fc48 	bl	80061a4 <USB_EP0_OutStart>
 8003914:	6822      	ldr	r2, [r4, #0]
 8003916:	6953      	ldr	r3, [r2, #20]
 8003918:	f403 5380 	and.w	r3, r3, #4096	@ 0x1000
 800391c:	6153      	str	r3, [r2, #20]
 800391e:	6820      	ldr	r0, [r4, #0]
 8003920:	f002 fc00 	bl	8006124 <USB_ReadInterrupts>
 8003924:	0487      	lsls	r7, r0, #18
 8003926:	d516      	bpl.n	8003956 <HAL_PCD_IRQHandler+0x1de>
 8003928:	6820      	ldr	r0, [r4, #0]
 800392a:	f002 fc2d 	bl	8006188 <USB_ActivateSetup>
 800392e:	6820      	ldr	r0, [r4, #0]
 8003930:	f002 f8fc 	bl	8005b2c <USB_GetDevSpeed>
 8003934:	60e0      	str	r0, [r4, #12]
 8003936:	6827      	ldr	r7, [r4, #0]
 8003938:	f000 fdca 	bl	80044d0 <HAL_RCC_GetHCLKFreq>
 800393c:	7b22      	ldrb	r2, [r4, #12]
 800393e:	4601      	mov	r1, r0
 8003940:	4638      	mov	r0, r7
 8003942:	f001 ff37 	bl	80057b4 <USB_SetTurnaroundTime>
 8003946:	4620      	mov	r0, r4
 8003948:	f003 fdb7 	bl	80074ba <HAL_PCD_ResetCallback>
 800394c:	6822      	ldr	r2, [r4, #0]
 800394e:	6953      	ldr	r3, [r2, #20]
 8003950:	f403 5300 	and.w	r3, r3, #8192	@ 0x2000
 8003954:	6153      	str	r3, [r2, #20]
 8003956:	6820      	ldr	r0, [r4, #0]
 8003958:	f002 fbe4 	bl	8006124 <USB_ReadInterrupts>
 800395c:	0700      	lsls	r0, r0, #28
 800395e:	d507      	bpl.n	8003970 <HAL_PCD_IRQHandler+0x1f8>
 8003960:	4620      	mov	r0, r4
 8003962:	f003 fda6 	bl	80074b2 <HAL_PCD_SOFCallback>
 8003966:	6822      	ldr	r2, [r4, #0]
 8003968:	6953      	ldr	r3, [r2, #20]
 800396a:	f003 0308 	and.w	r3, r3, #8
 800396e:	6153      	str	r3, [r2, #20]
 8003970:	6820      	ldr	r0, [r4, #0]
 8003972:	f002 fbd7 	bl	8006124 <USB_ReadInterrupts>
 8003976:	0601      	lsls	r1, r0, #24
 8003978:	f100 820f 	bmi.w	8003d9a <HAL_PCD_IRQHandler+0x622>
 800397c:	6820      	ldr	r0, [r4, #0]
 800397e:	f002 fbd1 	bl	8006124 <USB_ReadInterrupts>
 8003982:	02c2      	lsls	r2, r0, #11
 8003984:	d50c      	bpl.n	80039a0 <HAL_PCD_IRQHandler+0x228>
 8003986:	46a0      	mov	r8, r4
 8003988:	f506 6912 	add.w	r9, r6, #2336	@ 0x920
 800398c:	2701      	movs	r7, #1
 800398e:	6863      	ldr	r3, [r4, #4]
 8003990:	42bb      	cmp	r3, r7
 8003992:	f200 821b 	bhi.w	8003dcc <HAL_PCD_IRQHandler+0x654>
 8003996:	6822      	ldr	r2, [r4, #0]
 8003998:	6953      	ldr	r3, [r2, #20]
 800399a:	f403 1380 	and.w	r3, r3, #1048576	@ 0x100000
 800399e:	6153      	str	r3, [r2, #20]
 80039a0:	6820      	ldr	r0, [r4, #0]
 80039a2:	f002 fbbf 	bl	8006124 <USB_ReadInterrupts>
 80039a6:	0283      	lsls	r3, r0, #10
 80039a8:	d52c      	bpl.n	8003a04 <HAL_PCD_IRQHandler+0x28c>
 80039aa:	4623      	mov	r3, r4
 80039ac:	f506 6032 	add.w	r0, r6, #2848	@ 0xb20
 80039b0:	2101      	movs	r1, #1
 80039b2:	6862      	ldr	r2, [r4, #4]
 80039b4:	428a      	cmp	r2, r1
 80039b6:	d920      	bls.n	80039fa <HAL_PCD_IRQHandler+0x282>
 80039b8:	f893 c2a4 	ldrb.w	ip, [r3, #676]	@ 0x2a4
 80039bc:	6802      	ldr	r2, [r0, #0]
 80039be:	f1bc 0f01 	cmp.w	ip, #1
 80039c2:	f040 8219 	bne.w	8003df8 <HAL_PCD_IRQHandler+0x680>
 80039c6:	2a00      	cmp	r2, #0
 80039c8:	f280 8216 	bge.w	8003df8 <HAL_PCD_IRQHandler+0x680>
 80039cc:	f8d4 74fc 	ldr.w	r7, [r4, #1276]	@ 0x4fc
 80039d0:	f402 3280 	and.w	r2, r2, #65536	@ 0x10000
 80039d4:	f007 0701 	and.w	r7, r7, #1
 80039d8:	42ba      	cmp	r2, r7
 80039da:	f040 820d 	bne.w	8003df8 <HAL_PCD_IRQHandler+0x680>
 80039de:	f883 c2a3 	strb.w	ip, [r3, #675]	@ 0x2a3
 80039e2:	69b2      	ldr	r2, [r6, #24]
 80039e4:	f042 0280 	orr.w	r2, r2, #128	@ 0x80
 80039e8:	61b2      	str	r2, [r6, #24]
 80039ea:	6972      	ldr	r2, [r6, #20]
 80039ec:	0617      	lsls	r7, r2, #24
 80039ee:	f100 8203 	bmi.w	8003df8 <HAL_PCD_IRQHandler+0x680>
 80039f2:	686b      	ldr	r3, [r5, #4]
 80039f4:	f443 7300 	orr.w	r3, r3, #512	@ 0x200
 80039f8:	606b      	str	r3, [r5, #4]
 80039fa:	6822      	ldr	r2, [r4, #0]
 80039fc:	6953      	ldr	r3, [r2, #20]
 80039fe:	f403 1300 	and.w	r3, r3, #2097152	@ 0x200000
 8003a02:	6153      	str	r3, [r2, #20]
 8003a04:	6820      	ldr	r0, [r4, #0]
 8003a06:	f002 fb8d 	bl	8006124 <USB_ReadInterrupts>
 8003a0a:	0041      	lsls	r1, r0, #1
 8003a0c:	d507      	bpl.n	8003a1e <HAL_PCD_IRQHandler+0x2a6>
 8003a0e:	4620      	mov	r0, r4
 8003a10:	f003 fd8a 	bl	8007528 <HAL_PCD_ConnectCallback>
 8003a14:	6822      	ldr	r2, [r4, #0]
 8003a16:	6953      	ldr	r3, [r2, #20]
 8003a18:	f003 4380 	and.w	r3, r3, #1073741824	@ 0x40000000
 8003a1c:	6153      	str	r3, [r2, #20]
 8003a1e:	6820      	ldr	r0, [r4, #0]
 8003a20:	f002 fb80 	bl	8006124 <USB_ReadInterrupts>
 8003a24:	0742      	lsls	r2, r0, #29
 8003a26:	d50a      	bpl.n	8003a3e <HAL_PCD_IRQHandler+0x2c6>
 8003a28:	6823      	ldr	r3, [r4, #0]
 8003a2a:	685d      	ldr	r5, [r3, #4]
 8003a2c:	076b      	lsls	r3, r5, #29
 8003a2e:	d502      	bpl.n	8003a36 <HAL_PCD_IRQHandler+0x2be>
 8003a30:	4620      	mov	r0, r4
 8003a32:	f003 fd7d 	bl	8007530 <HAL_PCD_DisconnectCallback>
 8003a36:	6822      	ldr	r2, [r4, #0]
 8003a38:	6853      	ldr	r3, [r2, #4]
 8003a3a:	432b      	orrs	r3, r5
 8003a3c:	6053      	str	r3, [r2, #4]
 8003a3e:	b009      	add	sp, #36	@ 0x24
 8003a40:	e8bd 8ff0 	ldmia.w	sp!, {r4, r5, r6, r7, r8, r9, sl, fp, pc}
 8003a44:	f5b3 2f40 	cmp.w	r3, #786432	@ 0xc0000
 8003a48:	f47f aee9 	bne.w	800381e <HAL_PCD_IRQHandler+0xa6>
 8003a4c:	2208      	movs	r2, #8
 8003a4e:	f204 41c4 	addw	r1, r4, #1220	@ 0x4c4
 8003a52:	4630      	mov	r0, r6
 8003a54:	f002 fac6 	bl	8005fe4 <USB_ReadPacket>
 8003a58:	2324      	movs	r3, #36	@ 0x24
 8003a5a:	fb03 4707 	mla	r7, r3, r7, r4
 8003a5e:	f3c8 180a 	ubfx	r8, r8, #4, #11
 8003a62:	f8d7 329c 	ldr.w	r3, [r7, #668]	@ 0x29c
 8003a66:	4443      	add	r3, r8
 8003a68:	e6d7      	b.n	800381a <HAL_PCD_IRQHandler+0xa2>
 8003a6a:	6820      	ldr	r0, [r4, #0]
 8003a6c:	f002 fb5e 	bl	800612c <USB_ReadDevAllOutEpInterrupt>
 8003a70:	f506 6830 	add.w	r8, r6, #2816	@ 0xb00
 8003a74:	9004      	str	r0, [sp, #16]
 8003a76:	46a2      	mov	sl, r4
 8003a78:	2700      	movs	r7, #0
 8003a7a:	9b04      	ldr	r3, [sp, #16]
 8003a7c:	6820      	ldr	r0, [r4, #0]
 8003a7e:	2b00      	cmp	r3, #0
 8003a80:	f43f aed8 	beq.w	8003834 <HAL_PCD_IRQHandler+0xbc>
 8003a84:	9b04      	ldr	r3, [sp, #16]
 8003a86:	07db      	lsls	r3, r3, #31
 8003a88:	d575      	bpl.n	8003b76 <HAL_PCD_IRQHandler+0x3fe>
 8003a8a:	fa5f fb87 	uxtb.w	fp, r7
 8003a8e:	4659      	mov	r1, fp
 8003a90:	f002 fb5c 	bl	800614c <USB_ReadDevOutEPInterrupt>
 8003a94:	f010 0f01 	tst.w	r0, #1
 8003a98:	4681      	mov	r9, r0
 8003a9a:	d01c      	beq.n	8003ad6 <HAL_PCD_IRQHandler+0x35e>
 8003a9c:	6820      	ldr	r0, [r4, #0]
 8003a9e:	6921      	ldr	r1, [r4, #16]
 8003aa0:	2301      	movs	r3, #1
 8003aa2:	f8c8 3008 	str.w	r3, [r8, #8]
 8003aa6:	f500 6330 	add.w	r3, r0, #2816	@ 0xb00
 8003aaa:	eb03 1347 	add.w	r3, r3, r7, lsl #5
 8003aae:	2901      	cmp	r1, #1
 8003ab0:	f8d0 c040 	ldr.w	ip, [r0, #64]	@ 0x40
 8003ab4:	689a      	ldr	r2, [r3, #8]
 8003ab6:	f040 8088 	bne.w	8003bca <HAL_PCD_IRQHandler+0x452>
 8003aba:	0711      	lsls	r1, r2, #28
 8003abc:	d507      	bpl.n	8003ace <HAL_PCD_IRQHandler+0x356>
 8003abe:	49af      	ldr	r1, [pc, #700]	@ (8003d7c <HAL_PCD_IRQHandler+0x604>)
 8003ac0:	458c      	cmp	ip, r1
 8003ac2:	d908      	bls.n	8003ad6 <HAL_PCD_IRQHandler+0x35e>
 8003ac4:	0410      	lsls	r0, r2, #16
 8003ac6:	d506      	bpl.n	8003ad6 <HAL_PCD_IRQHandler+0x35e>
 8003ac8:	f44f 4200 	mov.w	r2, #32768	@ 0x8000
 8003acc:	e002      	b.n	8003ad4 <HAL_PCD_IRQHandler+0x35c>
 8003ace:	0691      	lsls	r1, r2, #26
 8003ad0:	d55a      	bpl.n	8003b88 <HAL_PCD_IRQHandler+0x410>
 8003ad2:	2220      	movs	r2, #32
 8003ad4:	609a      	str	r2, [r3, #8]
 8003ad6:	f019 0f08 	tst.w	r9, #8
 8003ada:	d021      	beq.n	8003b20 <HAL_PCD_IRQHandler+0x3a8>
 8003adc:	2308      	movs	r3, #8
 8003ade:	f8c8 3008 	str.w	r3, [r8, #8]
 8003ae2:	6823      	ldr	r3, [r4, #0]
 8003ae4:	49a5      	ldr	r1, [pc, #660]	@ (8003d7c <HAL_PCD_IRQHandler+0x604>)
 8003ae6:	6c1a      	ldr	r2, [r3, #64]	@ 0x40
 8003ae8:	f503 6330 	add.w	r3, r3, #2816	@ 0xb00
 8003aec:	eb03 1347 	add.w	r3, r3, r7, lsl #5
 8003af0:	428a      	cmp	r2, r1
 8003af2:	6898      	ldr	r0, [r3, #8]
 8003af4:	d904      	bls.n	8003b00 <HAL_PCD_IRQHandler+0x388>
 8003af6:	0401      	lsls	r1, r0, #16
 8003af8:	bf44      	itt	mi
 8003afa:	f44f 4000 	movmi.w	r0, #32768	@ 0x8000
 8003afe:	6098      	strmi	r0, [r3, #8]
 8003b00:	4620      	mov	r0, r4
 8003b02:	9205      	str	r2, [sp, #20]
 8003b04:	f003 fcbe 	bl	8007484 <HAL_PCD_SetupStageCallback>
 8003b08:	9a05      	ldr	r2, [sp, #20]
 8003b0a:	499c      	ldr	r1, [pc, #624]	@ (8003d7c <HAL_PCD_IRQHandler+0x604>)
 8003b0c:	428a      	cmp	r2, r1
 8003b0e:	d907      	bls.n	8003b20 <HAL_PCD_IRQHandler+0x3a8>
 8003b10:	6921      	ldr	r1, [r4, #16]
 8003b12:	2901      	cmp	r1, #1
 8003b14:	d104      	bne.n	8003b20 <HAL_PCD_IRQHandler+0x3a8>
 8003b16:	6820      	ldr	r0, [r4, #0]
 8003b18:	f204 42c4 	addw	r2, r4, #1220	@ 0x4c4
 8003b1c:	f002 fb42 	bl	80061a4 <USB_EP0_OutStart>
 8003b20:	f019 0f10 	tst.w	r9, #16
 8003b24:	bf1c      	itt	ne
 8003b26:	2310      	movne	r3, #16
 8003b28:	f8c8 3008 	strne.w	r3, [r8, #8]
 8003b2c:	f019 0f02 	tst.w	r9, #2
 8003b30:	d014      	beq.n	8003b5c <HAL_PCD_IRQHandler+0x3e4>
 8003b32:	6973      	ldr	r3, [r6, #20]
 8003b34:	061a      	lsls	r2, r3, #24
 8003b36:	bf42      	ittt	mi
 8003b38:	686b      	ldrmi	r3, [r5, #4]
 8003b3a:	f443 6380 	orrmi.w	r3, r3, #1024	@ 0x400
 8003b3e:	606b      	strmi	r3, [r5, #4]
 8003b40:	f89a 327f 	ldrb.w	r3, [sl, #639]	@ 0x27f
 8003b44:	2b01      	cmp	r3, #1
 8003b46:	d106      	bne.n	8003b56 <HAL_PCD_IRQHandler+0x3de>
 8003b48:	2300      	movs	r3, #0
 8003b4a:	f88a 327f 	strb.w	r3, [sl, #639]	@ 0x27f
 8003b4e:	4659      	mov	r1, fp
 8003b50:	4620      	mov	r0, r4
 8003b52:	f003 fce1 	bl	8007518 <HAL_PCD_ISOOUTIncompleteCallback>
 8003b56:	2302      	movs	r3, #2
 8003b58:	f8c8 3008 	str.w	r3, [r8, #8]
 8003b5c:	f019 0f20 	tst.w	r9, #32
 8003b60:	bf1c      	itt	ne
 8003b62:	2320      	movne	r3, #32
 8003b64:	f8c8 3008 	strne.w	r3, [r8, #8]
 8003b68:	f419 5f00 	tst.w	r9, #8192	@ 0x2000
 8003b6c:	bf1c      	itt	ne
 8003b6e:	f44f 5300 	movne.w	r3, #8192	@ 0x2000
 8003b72:	f8c8 3008 	strne.w	r3, [r8, #8]
 8003b76:	9b04      	ldr	r3, [sp, #16]
 8003b78:	085b      	lsrs	r3, r3, #1
 8003b7a:	3701      	adds	r7, #1
 8003b7c:	9304      	str	r3, [sp, #16]
 8003b7e:	f108 0820 	add.w	r8, r8, #32
 8003b82:	f10a 0a24 	add.w	sl, sl, #36	@ 0x24
 8003b86:	e778      	b.n	8003a7a <HAL_PCD_IRQHandler+0x302>
 8003b88:	497c      	ldr	r1, [pc, #496]	@ (8003d7c <HAL_PCD_IRQHandler+0x604>)
 8003b8a:	458c      	cmp	ip, r1
 8003b8c:	d901      	bls.n	8003b92 <HAL_PCD_IRQHandler+0x41a>
 8003b8e:	0412      	lsls	r2, r2, #16
 8003b90:	d49a      	bmi.n	8003ac8 <HAL_PCD_IRQHandler+0x350>
 8003b92:	691a      	ldr	r2, [r3, #16]
 8003b94:	f8da 3298 	ldr.w	r3, [sl, #664]	@ 0x298
 8003b98:	f3c2 0212 	ubfx	r2, r2, #0, #19
 8003b9c:	1a9b      	subs	r3, r3, r2
 8003b9e:	f8ca 329c 	str.w	r3, [sl, #668]	@ 0x29c
 8003ba2:	b96f      	cbnz	r7, 8003bc0 <HAL_PCD_IRQHandler+0x448>
 8003ba4:	f8d4 2294 	ldr.w	r2, [r4, #660]	@ 0x294
 8003ba8:	b92a      	cbnz	r2, 8003bb6 <HAL_PCD_IRQHandler+0x43e>
 8003baa:	f204 42c4 	addw	r2, r4, #1220	@ 0x4c4
 8003bae:	2101      	movs	r1, #1
 8003bb0:	f002 faf8 	bl	80061a4 <USB_EP0_OutStart>
 8003bb4:	e004      	b.n	8003bc0 <HAL_PCD_IRQHandler+0x448>
 8003bb6:	f8d4 228c 	ldr.w	r2, [r4, #652]	@ 0x28c
 8003bba:	441a      	add	r2, r3
 8003bbc:	f8c4 228c 	str.w	r2, [r4, #652]	@ 0x28c
 8003bc0:	4659      	mov	r1, fp
 8003bc2:	4620      	mov	r0, r4
 8003bc4:	f003 fc64 	bl	8007490 <HAL_PCD_DataOutStageCallback>
 8003bc8:	e785      	b.n	8003ad6 <HAL_PCD_IRQHandler+0x35e>
 8003bca:	496d      	ldr	r1, [pc, #436]	@ (8003d80 <HAL_PCD_IRQHandler+0x608>)
 8003bcc:	458c      	cmp	ip, r1
 8003bce:	d107      	bne.n	8003be0 <HAL_PCD_IRQHandler+0x468>
 8003bd0:	0411      	lsls	r1, r2, #16
 8003bd2:	f53f af79 	bmi.w	8003ac8 <HAL_PCD_IRQHandler+0x350>
 8003bd6:	0690      	lsls	r0, r2, #26
 8003bd8:	d5f2      	bpl.n	8003bc0 <HAL_PCD_IRQHandler+0x448>
 8003bda:	2220      	movs	r2, #32
 8003bdc:	609a      	str	r2, [r3, #8]
 8003bde:	e7ef      	b.n	8003bc0 <HAL_PCD_IRQHandler+0x448>
 8003be0:	2f00      	cmp	r7, #0
 8003be2:	d1ed      	bne.n	8003bc0 <HAL_PCD_IRQHandler+0x448>
 8003be4:	f8d4 3294 	ldr.w	r3, [r4, #660]	@ 0x294
 8003be8:	2b00      	cmp	r3, #0
 8003bea:	d1e9      	bne.n	8003bc0 <HAL_PCD_IRQHandler+0x448>
 8003bec:	f204 42c4 	addw	r2, r4, #1220	@ 0x4c4
 8003bf0:	4639      	mov	r1, r7
 8003bf2:	e7dd      	b.n	8003bb0 <HAL_PCD_IRQHandler+0x438>
 8003bf4:	9b04      	ldr	r3, [sp, #16]
 8003bf6:	07db      	lsls	r3, r3, #31
 8003bf8:	f140 809b 	bpl.w	8003d32 <HAL_PCD_IRQHandler+0x5ba>
 8003bfc:	fa5f f38a 	uxtb.w	r3, sl
 8003c00:	4619      	mov	r1, r3
 8003c02:	9305      	str	r3, [sp, #20]
 8003c04:	f002 faab 	bl	800615e <USB_ReadDevInEPInterrupt>
 8003c08:	f010 0f01 	tst.w	r0, #1
 8003c0c:	4680      	mov	r8, r0
 8003c0e:	d01f      	beq.n	8003c50 <HAL_PCD_IRQHandler+0x4d8>
 8003c10:	6b6b      	ldr	r3, [r5, #52]	@ 0x34
 8003c12:	2101      	movs	r1, #1
 8003c14:	f00a 020f 	and.w	r2, sl, #15
 8003c18:	fa01 f202 	lsl.w	r2, r1, r2
 8003c1c:	ea23 0302 	bic.w	r3, r3, r2
 8003c20:	636b      	str	r3, [r5, #52]	@ 0x34
 8003c22:	f8cb 1008 	str.w	r1, [fp, #8]
 8003c26:	6921      	ldr	r1, [r4, #16]
 8003c28:	2901      	cmp	r1, #1
 8003c2a:	d10d      	bne.n	8003c48 <HAL_PCD_IRQHandler+0x4d0>
 8003c2c:	e9d7 2312 	ldrd	r2, r3, [r7, #72]	@ 0x48
 8003c30:	4413      	add	r3, r2
 8003c32:	64fb      	str	r3, [r7, #76]	@ 0x4c
 8003c34:	f1ba 0f00 	cmp.w	sl, #0
 8003c38:	d106      	bne.n	8003c48 <HAL_PCD_IRQHandler+0x4d0>
 8003c3a:	6d63      	ldr	r3, [r4, #84]	@ 0x54
 8003c3c:	b923      	cbnz	r3, 8003c48 <HAL_PCD_IRQHandler+0x4d0>
 8003c3e:	6820      	ldr	r0, [r4, #0]
 8003c40:	f204 42c4 	addw	r2, r4, #1220	@ 0x4c4
 8003c44:	f002 faae 	bl	80061a4 <USB_EP0_OutStart>
 8003c48:	9905      	ldr	r1, [sp, #20]
 8003c4a:	4620      	mov	r0, r4
 8003c4c:	f003 fc29 	bl	80074a2 <HAL_PCD_DataInStageCallback>
 8003c50:	f018 0f08 	tst.w	r8, #8
 8003c54:	bf1c      	itt	ne
 8003c56:	2308      	movne	r3, #8
 8003c58:	f8cb 3008 	strne.w	r3, [fp, #8]
 8003c5c:	f018 0f10 	tst.w	r8, #16
 8003c60:	bf1c      	itt	ne
 8003c62:	2310      	movne	r3, #16
 8003c64:	f8cb 3008 	strne.w	r3, [fp, #8]
 8003c68:	f018 0f40 	tst.w	r8, #64	@ 0x40
 8003c6c:	bf1c      	itt	ne
 8003c6e:	2340      	movne	r3, #64	@ 0x40
 8003c70:	f8cb 3008 	strne.w	r3, [fp, #8]
 8003c74:	f018 0f02 	tst.w	r8, #2
 8003c78:	d011      	beq.n	8003c9e <HAL_PCD_IRQHandler+0x526>
 8003c7a:	4651      	mov	r1, sl
 8003c7c:	4630      	mov	r0, r6
 8003c7e:	f001 fe45 	bl	800590c <USB_FlushTxFifo>
 8003c82:	f897 303f 	ldrb.w	r3, [r7, #63]	@ 0x3f
 8003c86:	2b01      	cmp	r3, #1
 8003c88:	d106      	bne.n	8003c98 <HAL_PCD_IRQHandler+0x520>
 8003c8a:	2300      	movs	r3, #0
 8003c8c:	9905      	ldr	r1, [sp, #20]
 8003c8e:	f887 303f 	strb.w	r3, [r7, #63]	@ 0x3f
 8003c92:	4620      	mov	r0, r4
 8003c94:	f003 fc44 	bl	8007520 <HAL_PCD_ISOINIncompleteCallback>
 8003c98:	2302      	movs	r3, #2
 8003c9a:	f8cb 3008 	str.w	r3, [fp, #8]
 8003c9e:	6823      	ldr	r3, [r4, #0]
 8003ca0:	9306      	str	r3, [sp, #24]
 8003ca2:	f018 0f80 	tst.w	r8, #128	@ 0x80
 8003ca6:	d044      	beq.n	8003d32 <HAL_PCD_IRQHandler+0x5ba>
 8003ca8:	6dfa      	ldr	r2, [r7, #92]	@ 0x5c
 8003caa:	6d7b      	ldr	r3, [r7, #84]	@ 0x54
 8003cac:	429a      	cmp	r2, r3
 8003cae:	d840      	bhi.n	8003d32 <HAL_PCD_IRQHandler+0x5ba>
 8003cb0:	eba3 0802 	sub.w	r8, r3, r2
 8003cb4:	6cbb      	ldr	r3, [r7, #72]	@ 0x48
 8003cb6:	4598      	cmp	r8, r3
 8003cb8:	bf28      	it	cs
 8003cba:	4698      	movcs	r8, r3
 8003cbc:	9b06      	ldr	r3, [sp, #24]
 8003cbe:	f503 6310 	add.w	r3, r3, #2304	@ 0x900
 8003cc2:	f108 0803 	add.w	r8, r8, #3
 8003cc6:	eb03 134a 	add.w	r3, r3, sl, lsl #5
 8003cca:	ea4f 0898 	mov.w	r8, r8, lsr #2
 8003cce:	9307      	str	r3, [sp, #28]
 8003cd0:	9b07      	ldr	r3, [sp, #28]
 8003cd2:	6dfa      	ldr	r2, [r7, #92]	@ 0x5c
 8003cd4:	6999      	ldr	r1, [r3, #24]
 8003cd6:	6d7b      	ldr	r3, [r7, #84]	@ 0x54
 8003cd8:	b289      	uxth	r1, r1
 8003cda:	4541      	cmp	r1, r8
 8003cdc:	d327      	bcc.n	8003d2e <HAL_PCD_IRQHandler+0x5b6>
 8003cde:	4293      	cmp	r3, r2
 8003ce0:	d80b      	bhi.n	8003cfa <HAL_PCD_IRQHandler+0x582>
 8003ce2:	9b06      	ldr	r3, [sp, #24]
 8003ce4:	f00a 000f 	and.w	r0, sl, #15
 8003ce8:	f8d3 2834 	ldr.w	r2, [r3, #2100]	@ 0x834
 8003cec:	2101      	movs	r1, #1
 8003cee:	4081      	lsls	r1, r0
 8003cf0:	ea22 0201 	bic.w	r2, r2, r1
 8003cf4:	f8c3 2834 	str.w	r2, [r3, #2100]	@ 0x834
 8003cf8:	e01b      	b.n	8003d32 <HAL_PCD_IRQHandler+0x5ba>
 8003cfa:	eba3 0902 	sub.w	r9, r3, r2
 8003cfe:	6cbb      	ldr	r3, [r7, #72]	@ 0x48
 8003d00:	9a05      	ldr	r2, [sp, #20]
 8003d02:	9806      	ldr	r0, [sp, #24]
 8003d04:	4599      	cmp	r9, r3
 8003d06:	bf28      	it	cs
 8003d08:	4699      	movcs	r9, r3
 8003d0a:	7c23      	ldrb	r3, [r4, #16]
 8003d0c:	9300      	str	r3, [sp, #0]
 8003d0e:	6cf9      	ldr	r1, [r7, #76]	@ 0x4c
 8003d10:	fa1f f389 	uxth.w	r3, r9
 8003d14:	f002 f868 	bl	8005de8 <USB_WritePacket>
 8003d18:	6cfb      	ldr	r3, [r7, #76]	@ 0x4c
 8003d1a:	444b      	add	r3, r9
 8003d1c:	64fb      	str	r3, [r7, #76]	@ 0x4c
 8003d1e:	6dfb      	ldr	r3, [r7, #92]	@ 0x5c
 8003d20:	f109 0803 	add.w	r8, r9, #3
 8003d24:	444b      	add	r3, r9
 8003d26:	ea4f 0898 	mov.w	r8, r8, lsr #2
 8003d2a:	65fb      	str	r3, [r7, #92]	@ 0x5c
 8003d2c:	e7d0      	b.n	8003cd0 <HAL_PCD_IRQHandler+0x558>
 8003d2e:	4293      	cmp	r3, r2
 8003d30:	d9d7      	bls.n	8003ce2 <HAL_PCD_IRQHandler+0x56a>
 8003d32:	9b04      	ldr	r3, [sp, #16]
 8003d34:	085b      	lsrs	r3, r3, #1
 8003d36:	f10a 0a01 	add.w	sl, sl, #1
 8003d3a:	9304      	str	r3, [sp, #16]
 8003d3c:	3724      	adds	r7, #36	@ 0x24
 8003d3e:	f10b 0b20 	add.w	fp, fp, #32
 8003d42:	e585      	b.n	8003850 <HAL_PCD_IRQHandler+0xd8>
 8003d44:	4620      	mov	r0, r4
 8003d46:	f003 fbe3 	bl	8007510 <HAL_PCD_ResumeCallback>
 8003d4a:	e59a      	b.n	8003882 <HAL_PCD_IRQHandler+0x10a>
 8003d4c:	6099      	str	r1, [r3, #8]
 8003d4e:	681a      	ldr	r2, [r3, #0]
 8003d50:	f422 1200 	bic.w	r2, r2, #2097152	@ 0x200000
 8003d54:	601a      	str	r2, [r3, #0]
 8003d56:	f8c3 1208 	str.w	r1, [r3, #520]	@ 0x208
 8003d5a:	f8d3 2200 	ldr.w	r2, [r3, #512]	@ 0x200
 8003d5e:	f422 1200 	bic.w	r2, r2, #2097152	@ 0x200000
 8003d62:	f8c3 2200 	str.w	r2, [r3, #512]	@ 0x200
 8003d66:	f8d3 2200 	ldr.w	r2, [r3, #512]	@ 0x200
 8003d6a:	f042 6200 	orr.w	r2, r2, #134217728	@ 0x8000000
 8003d6e:	f8c3 2200 	str.w	r2, [r3, #512]	@ 0x200
 8003d72:	9a03      	ldr	r2, [sp, #12]
 8003d74:	3201      	adds	r2, #1
 8003d76:	9203      	str	r2, [sp, #12]
 8003d78:	3320      	adds	r3, #32
 8003d7a:	e5a8      	b.n	80038ce <HAL_PCD_IRQHandler+0x156>
 8003d7c:	4f54300a 	.word	0x4f54300a
 8003d80:	4f54310a 	.word	0x4f54310a
 8003d84:	696b      	ldr	r3, [r5, #20]
 8003d86:	f443 5300 	orr.w	r3, r3, #8192	@ 0x2000
 8003d8a:	f043 032b 	orr.w	r3, r3, #43	@ 0x2b
 8003d8e:	616b      	str	r3, [r5, #20]
 8003d90:	692b      	ldr	r3, [r5, #16]
 8003d92:	f043 030b 	orr.w	r3, r3, #11
 8003d96:	612b      	str	r3, [r5, #16]
 8003d98:	e5b0      	b.n	80038fc <HAL_PCD_IRQHandler+0x184>
 8003d9a:	69b3      	ldr	r3, [r6, #24]
 8003d9c:	f023 0380 	bic.w	r3, r3, #128	@ 0x80
 8003da0:	61b3      	str	r3, [r6, #24]
 8003da2:	2701      	movs	r7, #1
 8003da4:	f204 287f 	addw	r8, r4, #639	@ 0x27f
 8003da8:	f04f 0924 	mov.w	r9, #36	@ 0x24
 8003dac:	6863      	ldr	r3, [r4, #4]
 8003dae:	42bb      	cmp	r3, r7
 8003db0:	f67f ade4 	bls.w	800397c <HAL_PCD_IRQHandler+0x204>
 8003db4:	fb09 f307 	mul.w	r3, r9, r7
 8003db8:	f818 3003 	ldrb.w	r3, [r8, r3]
 8003dbc:	2b01      	cmp	r3, #1
 8003dbe:	d103      	bne.n	8003dc8 <HAL_PCD_IRQHandler+0x650>
 8003dc0:	b2f9      	uxtb	r1, r7
 8003dc2:	4620      	mov	r0, r4
 8003dc4:	f7ff fcc8 	bl	8003758 <HAL_PCD_EP_Abort>
 8003dc8:	3701      	adds	r7, #1
 8003dca:	e7ef      	b.n	8003dac <HAL_PCD_IRQHandler+0x634>
 8003dcc:	f898 3064 	ldrb.w	r3, [r8, #100]	@ 0x64
 8003dd0:	f8d9 2000 	ldr.w	r2, [r9]
 8003dd4:	2b01      	cmp	r3, #1
 8003dd6:	d109      	bne.n	8003dec <HAL_PCD_IRQHandler+0x674>
 8003dd8:	2a00      	cmp	r2, #0
 8003dda:	da07      	bge.n	8003dec <HAL_PCD_IRQHandler+0x674>
 8003ddc:	f067 017f 	orn	r1, r7, #127	@ 0x7f
 8003de0:	f888 3063 	strb.w	r3, [r8, #99]	@ 0x63
 8003de4:	b2c9      	uxtb	r1, r1
 8003de6:	4620      	mov	r0, r4
 8003de8:	f7ff fcb6 	bl	8003758 <HAL_PCD_EP_Abort>
 8003dec:	3701      	adds	r7, #1
 8003dee:	f108 0824 	add.w	r8, r8, #36	@ 0x24
 8003df2:	f109 0920 	add.w	r9, r9, #32
 8003df6:	e5ca      	b.n	800398e <HAL_PCD_IRQHandler+0x216>
 8003df8:	3101      	adds	r1, #1
 8003dfa:	3324      	adds	r3, #36	@ 0x24
 8003dfc:	3020      	adds	r0, #32
 8003dfe:	e5d8      	b.n	80039b2 <HAL_PCD_IRQHandler+0x23a>

08003e00 <HAL_PCDEx_SetTxFiFo>:
 8003e00:	6800      	ldr	r0, [r0, #0]
 8003e02:	b570      	push	{r4, r5, r6, lr}
 8003e04:	6a43      	ldr	r3, [r0, #36]	@ 0x24
 8003e06:	0412      	lsls	r2, r2, #16
 8003e08:	b919      	cbnz	r1, 8003e12 <HAL_PCDEx_SetTxFiFo+0x12>
 8003e0a:	4313      	orrs	r3, r2
 8003e0c:	6283      	str	r3, [r0, #40]	@ 0x28
 8003e0e:	2000      	movs	r0, #0
 8003e10:	bd70      	pop	{r4, r5, r6, pc}
 8003e12:	6a84      	ldr	r4, [r0, #40]	@ 0x28
 8003e14:	1e4e      	subs	r6, r1, #1
 8003e16:	eb03 4314 	add.w	r3, r3, r4, lsr #16
 8003e1a:	2400      	movs	r4, #0
 8003e1c:	42b4      	cmp	r4, r6
 8003e1e:	d305      	bcc.n	8003e2c <HAL_PCDEx_SetTxFiFo+0x2c>
 8003e20:	313f      	adds	r1, #63	@ 0x3f
 8003e22:	eb00 0081 	add.w	r0, r0, r1, lsl #2
 8003e26:	4313      	orrs	r3, r2
 8003e28:	6043      	str	r3, [r0, #4]
 8003e2a:	e7f0      	b.n	8003e0e <HAL_PCDEx_SetTxFiFo+0xe>
 8003e2c:	f104 0540 	add.w	r5, r4, #64	@ 0x40
 8003e30:	eb00 0585 	add.w	r5, r0, r5, lsl #2
 8003e34:	3401      	adds	r4, #1
 8003e36:	686d      	ldr	r5, [r5, #4]
 8003e38:	eb03 4315 	add.w	r3, r3, r5, lsr #16
 8003e3c:	e7ee      	b.n	8003e1c <HAL_PCDEx_SetTxFiFo+0x1c>

08003e3e <HAL_PCDEx_SetRxFiFo>:
 8003e3e:	6803      	ldr	r3, [r0, #0]
 8003e40:	2000      	movs	r0, #0
 8003e42:	6259      	str	r1, [r3, #36]	@ 0x24
 8003e44:	4770      	bx	lr

08003e46 <HAL_PCDEx_LPM_Callback>:
 8003e46:	4770      	bx	lr

08003e48 <HAL_RCC_OscConfig>:
 8003e48:	e92d 41f3 	stmdb	sp!, {r0, r1, r4, r5, r6, r7, r8, lr}
 8003e4c:	4604      	mov	r4, r0
 8003e4e:	2800      	cmp	r0, #0
 8003e50:	d042      	beq.n	8003ed8 <HAL_RCC_OscConfig+0x90>
 8003e52:	6803      	ldr	r3, [r0, #0]
 8003e54:	2b0f      	cmp	r3, #15
 8003e56:	d903      	bls.n	8003e60 <HAL_RCC_OscConfig+0x18>
 8003e58:	4899      	ldr	r0, [pc, #612]	@ (80040c0 <HAL_RCC_OscConfig+0x278>)
 8003e5a:	21e6      	movs	r1, #230	@ 0xe6
 8003e5c:	f7fd f908 	bl	8001070 <assert_failed>
 8003e60:	6823      	ldr	r3, [r4, #0]
 8003e62:	07de      	lsls	r6, r3, #31
 8003e64:	d418      	bmi.n	8003e98 <HAL_RCC_OscConfig+0x50>
 8003e66:	6823      	ldr	r3, [r4, #0]
 8003e68:	079d      	lsls	r5, r3, #30
 8003e6a:	d46e      	bmi.n	8003f4a <HAL_RCC_OscConfig+0x102>
 8003e6c:	6823      	ldr	r3, [r4, #0]
 8003e6e:	0719      	lsls	r1, r3, #28
 8003e70:	f100 80c0 	bmi.w	8003ff4 <HAL_RCC_OscConfig+0x1ac>
 8003e74:	6823      	ldr	r3, [r4, #0]
 8003e76:	075a      	lsls	r2, r3, #29
 8003e78:	f100 80e8 	bmi.w	800404c <HAL_RCC_OscConfig+0x204>
 8003e7c:	69a3      	ldr	r3, [r4, #24]
 8003e7e:	2b02      	cmp	r3, #2
 8003e80:	d904      	bls.n	8003e8c <HAL_RCC_OscConfig+0x44>
 8003e82:	488f      	ldr	r0, [pc, #572]	@ (80040c0 <HAL_RCC_OscConfig+0x278>)
 8003e84:	f240 11cd 	movw	r1, #461	@ 0x1cd
 8003e88:	f7fd f8f2 	bl	8001070 <assert_failed>
 8003e8c:	69a3      	ldr	r3, [r4, #24]
 8003e8e:	2b00      	cmp	r3, #0
 8003e90:	f040 8153 	bne.w	800413a <HAL_RCC_OscConfig+0x2f2>
 8003e94:	2000      	movs	r0, #0
 8003e96:	e037      	b.n	8003f08 <HAL_RCC_OscConfig+0xc0>
 8003e98:	6863      	ldr	r3, [r4, #4]
 8003e9a:	f433 3280 	bics.w	r2, r3, #65536	@ 0x10000
 8003e9e:	d006      	beq.n	8003eae <HAL_RCC_OscConfig+0x66>
 8003ea0:	f5b3 2fa0 	cmp.w	r3, #327680	@ 0x50000
 8003ea4:	d003      	beq.n	8003eae <HAL_RCC_OscConfig+0x66>
 8003ea6:	4886      	ldr	r0, [pc, #536]	@ (80040c0 <HAL_RCC_OscConfig+0x278>)
 8003ea8:	21eb      	movs	r1, #235	@ 0xeb
 8003eaa:	f7fd f8e1 	bl	8001070 <assert_failed>
 8003eae:	4b85      	ldr	r3, [pc, #532]	@ (80040c4 <HAL_RCC_OscConfig+0x27c>)
 8003eb0:	689a      	ldr	r2, [r3, #8]
 8003eb2:	f002 020c 	and.w	r2, r2, #12
 8003eb6:	2a04      	cmp	r2, #4
 8003eb8:	d007      	beq.n	8003eca <HAL_RCC_OscConfig+0x82>
 8003eba:	689a      	ldr	r2, [r3, #8]
 8003ebc:	f002 020c 	and.w	r2, r2, #12
 8003ec0:	2a08      	cmp	r2, #8
 8003ec2:	d10b      	bne.n	8003edc <HAL_RCC_OscConfig+0x94>
 8003ec4:	685b      	ldr	r3, [r3, #4]
 8003ec6:	0259      	lsls	r1, r3, #9
 8003ec8:	d508      	bpl.n	8003edc <HAL_RCC_OscConfig+0x94>
 8003eca:	4b7e      	ldr	r3, [pc, #504]	@ (80040c4 <HAL_RCC_OscConfig+0x27c>)
 8003ecc:	681b      	ldr	r3, [r3, #0]
 8003ece:	039a      	lsls	r2, r3, #14
 8003ed0:	d5c9      	bpl.n	8003e66 <HAL_RCC_OscConfig+0x1e>
 8003ed2:	6863      	ldr	r3, [r4, #4]
 8003ed4:	2b00      	cmp	r3, #0
 8003ed6:	d1c6      	bne.n	8003e66 <HAL_RCC_OscConfig+0x1e>
 8003ed8:	2001      	movs	r0, #1
 8003eda:	e015      	b.n	8003f08 <HAL_RCC_OscConfig+0xc0>
 8003edc:	6863      	ldr	r3, [r4, #4]
 8003ede:	4d79      	ldr	r5, [pc, #484]	@ (80040c4 <HAL_RCC_OscConfig+0x27c>)
 8003ee0:	f5b3 3f80 	cmp.w	r3, #65536	@ 0x10000
 8003ee4:	d113      	bne.n	8003f0e <HAL_RCC_OscConfig+0xc6>
 8003ee6:	682b      	ldr	r3, [r5, #0]
 8003ee8:	f443 3380 	orr.w	r3, r3, #65536	@ 0x10000
 8003eec:	602b      	str	r3, [r5, #0]
 8003eee:	f7fd fbdd 	bl	80016ac <HAL_GetTick>
 8003ef2:	4e74      	ldr	r6, [pc, #464]	@ (80040c4 <HAL_RCC_OscConfig+0x27c>)
 8003ef4:	4605      	mov	r5, r0
 8003ef6:	6833      	ldr	r3, [r6, #0]
 8003ef8:	039b      	lsls	r3, r3, #14
 8003efa:	d4b4      	bmi.n	8003e66 <HAL_RCC_OscConfig+0x1e>
 8003efc:	f7fd fbd6 	bl	80016ac <HAL_GetTick>
 8003f00:	1b40      	subs	r0, r0, r5
 8003f02:	2864      	cmp	r0, #100	@ 0x64
 8003f04:	d9f7      	bls.n	8003ef6 <HAL_RCC_OscConfig+0xae>
 8003f06:	2003      	movs	r0, #3
 8003f08:	b002      	add	sp, #8
 8003f0a:	e8bd 81f0 	ldmia.w	sp!, {r4, r5, r6, r7, r8, pc}
 8003f0e:	f5b3 2fa0 	cmp.w	r3, #327680	@ 0x50000
 8003f12:	d104      	bne.n	8003f1e <HAL_RCC_OscConfig+0xd6>
 8003f14:	682b      	ldr	r3, [r5, #0]
 8003f16:	f443 2380 	orr.w	r3, r3, #262144	@ 0x40000
 8003f1a:	602b      	str	r3, [r5, #0]
 8003f1c:	e7e3      	b.n	8003ee6 <HAL_RCC_OscConfig+0x9e>
 8003f1e:	682a      	ldr	r2, [r5, #0]
 8003f20:	f422 3280 	bic.w	r2, r2, #65536	@ 0x10000
 8003f24:	602a      	str	r2, [r5, #0]
 8003f26:	682a      	ldr	r2, [r5, #0]
 8003f28:	f422 2280 	bic.w	r2, r2, #262144	@ 0x40000
 8003f2c:	602a      	str	r2, [r5, #0]
 8003f2e:	2b00      	cmp	r3, #0
 8003f30:	d1dd      	bne.n	8003eee <HAL_RCC_OscConfig+0xa6>
 8003f32:	f7fd fbbb 	bl	80016ac <HAL_GetTick>
 8003f36:	4606      	mov	r6, r0
 8003f38:	682b      	ldr	r3, [r5, #0]
 8003f3a:	039f      	lsls	r7, r3, #14
 8003f3c:	d593      	bpl.n	8003e66 <HAL_RCC_OscConfig+0x1e>
 8003f3e:	f7fd fbb5 	bl	80016ac <HAL_GetTick>
 8003f42:	1b80      	subs	r0, r0, r6
 8003f44:	2864      	cmp	r0, #100	@ 0x64
 8003f46:	d9f7      	bls.n	8003f38 <HAL_RCC_OscConfig+0xf0>
 8003f48:	e7dd      	b.n	8003f06 <HAL_RCC_OscConfig+0xbe>
 8003f4a:	68e3      	ldr	r3, [r4, #12]
 8003f4c:	2b01      	cmp	r3, #1
 8003f4e:	d904      	bls.n	8003f5a <HAL_RCC_OscConfig+0x112>
 8003f50:	485b      	ldr	r0, [pc, #364]	@ (80040c0 <HAL_RCC_OscConfig+0x278>)
 8003f52:	f240 111d 	movw	r1, #285	@ 0x11d
 8003f56:	f7fd f88b 	bl	8001070 <assert_failed>
 8003f5a:	6923      	ldr	r3, [r4, #16]
 8003f5c:	2b1f      	cmp	r3, #31
 8003f5e:	d904      	bls.n	8003f6a <HAL_RCC_OscConfig+0x122>
 8003f60:	4857      	ldr	r0, [pc, #348]	@ (80040c0 <HAL_RCC_OscConfig+0x278>)
 8003f62:	f44f 718f 	mov.w	r1, #286	@ 0x11e
 8003f66:	f7fd f883 	bl	8001070 <assert_failed>
 8003f6a:	4b56      	ldr	r3, [pc, #344]	@ (80040c4 <HAL_RCC_OscConfig+0x27c>)
 8003f6c:	689a      	ldr	r2, [r3, #8]
 8003f6e:	f012 0f0c 	tst.w	r2, #12
 8003f72:	d007      	beq.n	8003f84 <HAL_RCC_OscConfig+0x13c>
 8003f74:	689a      	ldr	r2, [r3, #8]
 8003f76:	f002 020c 	and.w	r2, r2, #12
 8003f7a:	2a08      	cmp	r2, #8
 8003f7c:	d111      	bne.n	8003fa2 <HAL_RCC_OscConfig+0x15a>
 8003f7e:	685b      	ldr	r3, [r3, #4]
 8003f80:	025d      	lsls	r5, r3, #9
 8003f82:	d40e      	bmi.n	8003fa2 <HAL_RCC_OscConfig+0x15a>
 8003f84:	4a4f      	ldr	r2, [pc, #316]	@ (80040c4 <HAL_RCC_OscConfig+0x27c>)
 8003f86:	6813      	ldr	r3, [r2, #0]
 8003f88:	0799      	lsls	r1, r3, #30
 8003f8a:	d502      	bpl.n	8003f92 <HAL_RCC_OscConfig+0x14a>
 8003f8c:	68e3      	ldr	r3, [r4, #12]
 8003f8e:	2b01      	cmp	r3, #1
 8003f90:	d1a2      	bne.n	8003ed8 <HAL_RCC_OscConfig+0x90>
 8003f92:	6813      	ldr	r3, [r2, #0]
 8003f94:	6921      	ldr	r1, [r4, #16]
 8003f96:	f023 03f8 	bic.w	r3, r3, #248	@ 0xf8
 8003f9a:	ea43 03c1 	orr.w	r3, r3, r1, lsl #3
 8003f9e:	6013      	str	r3, [r2, #0]
 8003fa0:	e764      	b.n	8003e6c <HAL_RCC_OscConfig+0x24>
 8003fa2:	68e2      	ldr	r2, [r4, #12]
 8003fa4:	4b48      	ldr	r3, [pc, #288]	@ (80040c8 <HAL_RCC_OscConfig+0x280>)
 8003fa6:	b1b2      	cbz	r2, 8003fd6 <HAL_RCC_OscConfig+0x18e>
 8003fa8:	2201      	movs	r2, #1
 8003faa:	601a      	str	r2, [r3, #0]
 8003fac:	f7fd fb7e 	bl	80016ac <HAL_GetTick>
 8003fb0:	4d44      	ldr	r5, [pc, #272]	@ (80040c4 <HAL_RCC_OscConfig+0x27c>)
 8003fb2:	4606      	mov	r6, r0
 8003fb4:	682b      	ldr	r3, [r5, #0]
 8003fb6:	079b      	lsls	r3, r3, #30
 8003fb8:	d507      	bpl.n	8003fca <HAL_RCC_OscConfig+0x182>
 8003fba:	682b      	ldr	r3, [r5, #0]
 8003fbc:	6922      	ldr	r2, [r4, #16]
 8003fbe:	f023 03f8 	bic.w	r3, r3, #248	@ 0xf8
 8003fc2:	ea43 03c2 	orr.w	r3, r3, r2, lsl #3
 8003fc6:	602b      	str	r3, [r5, #0]
 8003fc8:	e750      	b.n	8003e6c <HAL_RCC_OscConfig+0x24>
 8003fca:	f7fd fb6f 	bl	80016ac <HAL_GetTick>
 8003fce:	1b80      	subs	r0, r0, r6
 8003fd0:	2802      	cmp	r0, #2
 8003fd2:	d9ef      	bls.n	8003fb4 <HAL_RCC_OscConfig+0x16c>
 8003fd4:	e797      	b.n	8003f06 <HAL_RCC_OscConfig+0xbe>
 8003fd6:	601a      	str	r2, [r3, #0]
 8003fd8:	f7fd fb68 	bl	80016ac <HAL_GetTick>
 8003fdc:	4e39      	ldr	r6, [pc, #228]	@ (80040c4 <HAL_RCC_OscConfig+0x27c>)
 8003fde:	4605      	mov	r5, r0
 8003fe0:	6833      	ldr	r3, [r6, #0]
 8003fe2:	079f      	lsls	r7, r3, #30
 8003fe4:	f57f af42 	bpl.w	8003e6c <HAL_RCC_OscConfig+0x24>
 8003fe8:	f7fd fb60 	bl	80016ac <HAL_GetTick>
 8003fec:	1b40      	subs	r0, r0, r5
 8003fee:	2802      	cmp	r0, #2
 8003ff0:	d9f6      	bls.n	8003fe0 <HAL_RCC_OscConfig+0x198>
 8003ff2:	e788      	b.n	8003f06 <HAL_RCC_OscConfig+0xbe>
 8003ff4:	6963      	ldr	r3, [r4, #20]
 8003ff6:	2b01      	cmp	r3, #1
 8003ff8:	d904      	bls.n	8004004 <HAL_RCC_OscConfig+0x1bc>
 8003ffa:	4831      	ldr	r0, [pc, #196]	@ (80040c0 <HAL_RCC_OscConfig+0x278>)
 8003ffc:	f44f 71af 	mov.w	r1, #350	@ 0x15e
 8004000:	f7fd f836 	bl	8001070 <assert_failed>
 8004004:	6962      	ldr	r2, [r4, #20]
 8004006:	4b30      	ldr	r3, [pc, #192]	@ (80040c8 <HAL_RCC_OscConfig+0x280>)
 8004008:	b182      	cbz	r2, 800402c <HAL_RCC_OscConfig+0x1e4>
 800400a:	2201      	movs	r2, #1
 800400c:	f8c3 2e80 	str.w	r2, [r3, #3712]	@ 0xe80
 8004010:	f7fd fb4c 	bl	80016ac <HAL_GetTick>
 8004014:	4e2b      	ldr	r6, [pc, #172]	@ (80040c4 <HAL_RCC_OscConfig+0x27c>)
 8004016:	4605      	mov	r5, r0
 8004018:	6f73      	ldr	r3, [r6, #116]	@ 0x74
 800401a:	079b      	lsls	r3, r3, #30
 800401c:	f53f af2a 	bmi.w	8003e74 <HAL_RCC_OscConfig+0x2c>
 8004020:	f7fd fb44 	bl	80016ac <HAL_GetTick>
 8004024:	1b40      	subs	r0, r0, r5
 8004026:	2802      	cmp	r0, #2
 8004028:	d9f6      	bls.n	8004018 <HAL_RCC_OscConfig+0x1d0>
 800402a:	e76c      	b.n	8003f06 <HAL_RCC_OscConfig+0xbe>
 800402c:	f8c3 2e80 	str.w	r2, [r3, #3712]	@ 0xe80
 8004030:	f7fd fb3c 	bl	80016ac <HAL_GetTick>
 8004034:	4e23      	ldr	r6, [pc, #140]	@ (80040c4 <HAL_RCC_OscConfig+0x27c>)
 8004036:	4605      	mov	r5, r0
 8004038:	6f73      	ldr	r3, [r6, #116]	@ 0x74
 800403a:	079f      	lsls	r7, r3, #30
 800403c:	f57f af1a 	bpl.w	8003e74 <HAL_RCC_OscConfig+0x2c>
 8004040:	f7fd fb34 	bl	80016ac <HAL_GetTick>
 8004044:	1b40      	subs	r0, r0, r5
 8004046:	2802      	cmp	r0, #2
 8004048:	d9f6      	bls.n	8004038 <HAL_RCC_OscConfig+0x1f0>
 800404a:	e75c      	b.n	8003f06 <HAL_RCC_OscConfig+0xbe>
 800404c:	68a3      	ldr	r3, [r4, #8]
 800404e:	2b01      	cmp	r3, #1
 8004050:	d906      	bls.n	8004060 <HAL_RCC_OscConfig+0x218>
 8004052:	2b05      	cmp	r3, #5
 8004054:	d004      	beq.n	8004060 <HAL_RCC_OscConfig+0x218>
 8004056:	481a      	ldr	r0, [pc, #104]	@ (80040c0 <HAL_RCC_OscConfig+0x278>)
 8004058:	f44f 71c5 	mov.w	r1, #394	@ 0x18a
 800405c:	f7fd f808 	bl	8001070 <assert_failed>
 8004060:	4b18      	ldr	r3, [pc, #96]	@ (80040c4 <HAL_RCC_OscConfig+0x27c>)
 8004062:	6c1a      	ldr	r2, [r3, #64]	@ 0x40
 8004064:	f012 5280 	ands.w	r2, r2, #268435456	@ 0x10000000
 8004068:	d128      	bne.n	80040bc <HAL_RCC_OscConfig+0x274>
 800406a:	9201      	str	r2, [sp, #4]
 800406c:	6c1a      	ldr	r2, [r3, #64]	@ 0x40
 800406e:	f042 5280 	orr.w	r2, r2, #268435456	@ 0x10000000
 8004072:	641a      	str	r2, [r3, #64]	@ 0x40
 8004074:	6c1b      	ldr	r3, [r3, #64]	@ 0x40
 8004076:	f003 5380 	and.w	r3, r3, #268435456	@ 0x10000000
 800407a:	9301      	str	r3, [sp, #4]
 800407c:	9b01      	ldr	r3, [sp, #4]
 800407e:	2701      	movs	r7, #1
 8004080:	4d12      	ldr	r5, [pc, #72]	@ (80040cc <HAL_RCC_OscConfig+0x284>)
 8004082:	682b      	ldr	r3, [r5, #0]
 8004084:	05d8      	lsls	r0, r3, #23
 8004086:	d523      	bpl.n	80040d0 <HAL_RCC_OscConfig+0x288>
 8004088:	68a3      	ldr	r3, [r4, #8]
 800408a:	4d0e      	ldr	r5, [pc, #56]	@ (80040c4 <HAL_RCC_OscConfig+0x27c>)
 800408c:	2b01      	cmp	r3, #1
 800408e:	d12f      	bne.n	80040f0 <HAL_RCC_OscConfig+0x2a8>
 8004090:	6f2b      	ldr	r3, [r5, #112]	@ 0x70
 8004092:	f043 0301 	orr.w	r3, r3, #1
 8004096:	672b      	str	r3, [r5, #112]	@ 0x70
 8004098:	f7fd fb08 	bl	80016ac <HAL_GetTick>
 800409c:	4e09      	ldr	r6, [pc, #36]	@ (80040c4 <HAL_RCC_OscConfig+0x27c>)
 800409e:	4605      	mov	r5, r0
 80040a0:	f241 3888 	movw	r8, #5000	@ 0x1388
 80040a4:	6f33      	ldr	r3, [r6, #112]	@ 0x70
 80040a6:	079a      	lsls	r2, r3, #30
 80040a8:	d541      	bpl.n	800412e <HAL_RCC_OscConfig+0x2e6>
 80040aa:	2f00      	cmp	r7, #0
 80040ac:	f43f aee6 	beq.w	8003e7c <HAL_RCC_OscConfig+0x34>
 80040b0:	4a04      	ldr	r2, [pc, #16]	@ (80040c4 <HAL_RCC_OscConfig+0x27c>)
 80040b2:	6c13      	ldr	r3, [r2, #64]	@ 0x40
 80040b4:	f023 5380 	bic.w	r3, r3, #268435456	@ 0x10000000
 80040b8:	6413      	str	r3, [r2, #64]	@ 0x40
 80040ba:	e6df      	b.n	8003e7c <HAL_RCC_OscConfig+0x34>
 80040bc:	2700      	movs	r7, #0
 80040be:	e7df      	b.n	8004080 <HAL_RCC_OscConfig+0x238>
 80040c0:	0800aa57 	.word	0x0800aa57
 80040c4:	40023800 	.word	0x40023800
 80040c8:	42470000 	.word	0x42470000
 80040cc:	40007000 	.word	0x40007000
 80040d0:	682b      	ldr	r3, [r5, #0]
 80040d2:	f443 7380 	orr.w	r3, r3, #256	@ 0x100
 80040d6:	602b      	str	r3, [r5, #0]
 80040d8:	f7fd fae8 	bl	80016ac <HAL_GetTick>
 80040dc:	4606      	mov	r6, r0
 80040de:	682b      	ldr	r3, [r5, #0]
 80040e0:	05d9      	lsls	r1, r3, #23
 80040e2:	d4d1      	bmi.n	8004088 <HAL_RCC_OscConfig+0x240>
 80040e4:	f7fd fae2 	bl	80016ac <HAL_GetTick>
 80040e8:	1b80      	subs	r0, r0, r6
 80040ea:	2802      	cmp	r0, #2
 80040ec:	d9f7      	bls.n	80040de <HAL_RCC_OscConfig+0x296>
 80040ee:	e70a      	b.n	8003f06 <HAL_RCC_OscConfig+0xbe>
 80040f0:	2b05      	cmp	r3, #5
 80040f2:	d104      	bne.n	80040fe <HAL_RCC_OscConfig+0x2b6>
 80040f4:	6f2b      	ldr	r3, [r5, #112]	@ 0x70
 80040f6:	f043 0304 	orr.w	r3, r3, #4
 80040fa:	672b      	str	r3, [r5, #112]	@ 0x70
 80040fc:	e7c8      	b.n	8004090 <HAL_RCC_OscConfig+0x248>
 80040fe:	6f2a      	ldr	r2, [r5, #112]	@ 0x70
 8004100:	f022 0201 	bic.w	r2, r2, #1
 8004104:	672a      	str	r2, [r5, #112]	@ 0x70
 8004106:	6f2a      	ldr	r2, [r5, #112]	@ 0x70
 8004108:	f022 0204 	bic.w	r2, r2, #4
 800410c:	672a      	str	r2, [r5, #112]	@ 0x70
 800410e:	2b00      	cmp	r3, #0
 8004110:	d1c2      	bne.n	8004098 <HAL_RCC_OscConfig+0x250>
 8004112:	f7fd facb 	bl	80016ac <HAL_GetTick>
 8004116:	f241 3888 	movw	r8, #5000	@ 0x1388
 800411a:	4606      	mov	r6, r0
 800411c:	6f2b      	ldr	r3, [r5, #112]	@ 0x70
 800411e:	079b      	lsls	r3, r3, #30
 8004120:	d5c3      	bpl.n	80040aa <HAL_RCC_OscConfig+0x262>
 8004122:	f7fd fac3 	bl	80016ac <HAL_GetTick>
 8004126:	1b80      	subs	r0, r0, r6
 8004128:	4540      	cmp	r0, r8
 800412a:	d9f7      	bls.n	800411c <HAL_RCC_OscConfig+0x2d4>
 800412c:	e6eb      	b.n	8003f06 <HAL_RCC_OscConfig+0xbe>
 800412e:	f7fd fabd 	bl	80016ac <HAL_GetTick>
 8004132:	1b40      	subs	r0, r0, r5
 8004134:	4540      	cmp	r0, r8
 8004136:	d9b5      	bls.n	80040a4 <HAL_RCC_OscConfig+0x25c>
 8004138:	e6e5      	b.n	8003f06 <HAL_RCC_OscConfig+0xbe>
 800413a:	4d51      	ldr	r5, [pc, #324]	@ (8004280 <HAL_RCC_OscConfig+0x438>)
 800413c:	68aa      	ldr	r2, [r5, #8]
 800413e:	f002 020c 	and.w	r2, r2, #12
 8004142:	2a08      	cmp	r2, #8
 8004144:	d072      	beq.n	800422c <HAL_RCC_OscConfig+0x3e4>
 8004146:	2b02      	cmp	r3, #2
 8004148:	d160      	bne.n	800420c <HAL_RCC_OscConfig+0x3c4>
 800414a:	69e3      	ldr	r3, [r4, #28]
 800414c:	f433 0380 	bics.w	r3, r3, #4194304	@ 0x400000
 8004150:	d004      	beq.n	800415c <HAL_RCC_OscConfig+0x314>
 8004152:	484c      	ldr	r0, [pc, #304]	@ (8004284 <HAL_RCC_OscConfig+0x43c>)
 8004154:	f44f 71eb 	mov.w	r1, #470	@ 0x1d6
 8004158:	f7fc ff8a 	bl	8001070 <assert_failed>
 800415c:	6a23      	ldr	r3, [r4, #32]
 800415e:	2b3f      	cmp	r3, #63	@ 0x3f
 8004160:	d904      	bls.n	800416c <HAL_RCC_OscConfig+0x324>
 8004162:	4848      	ldr	r0, [pc, #288]	@ (8004284 <HAL_RCC_OscConfig+0x43c>)
 8004164:	f240 11d7 	movw	r1, #471	@ 0x1d7
 8004168:	f7fc ff82 	bl	8001070 <assert_failed>
 800416c:	6a63      	ldr	r3, [r4, #36]	@ 0x24
 800416e:	3b32      	subs	r3, #50	@ 0x32
 8004170:	f5b3 7fbf 	cmp.w	r3, #382	@ 0x17e
 8004174:	d904      	bls.n	8004180 <HAL_RCC_OscConfig+0x338>
 8004176:	4843      	ldr	r0, [pc, #268]	@ (8004284 <HAL_RCC_OscConfig+0x43c>)
 8004178:	f44f 71ec 	mov.w	r1, #472	@ 0x1d8
 800417c:	f7fc ff78 	bl	8001070 <assert_failed>
 8004180:	6aa2      	ldr	r2, [r4, #40]	@ 0x28
 8004182:	2a08      	cmp	r2, #8
 8004184:	d804      	bhi.n	8004190 <HAL_RCC_OscConfig+0x348>
 8004186:	f44f 73aa 	mov.w	r3, #340	@ 0x154
 800418a:	40d3      	lsrs	r3, r2
 800418c:	07d8      	lsls	r0, r3, #31
 800418e:	d404      	bmi.n	800419a <HAL_RCC_OscConfig+0x352>
 8004190:	483c      	ldr	r0, [pc, #240]	@ (8004284 <HAL_RCC_OscConfig+0x43c>)
 8004192:	f240 11d9 	movw	r1, #473	@ 0x1d9
 8004196:	f7fc ff6b 	bl	8001070 <assert_failed>
 800419a:	6ae3      	ldr	r3, [r4, #44]	@ 0x2c
 800419c:	3b02      	subs	r3, #2
 800419e:	2b0d      	cmp	r3, #13
 80041a0:	d904      	bls.n	80041ac <HAL_RCC_OscConfig+0x364>
 80041a2:	4838      	ldr	r0, [pc, #224]	@ (8004284 <HAL_RCC_OscConfig+0x43c>)
 80041a4:	f44f 71ed 	mov.w	r1, #474	@ 0x1da
 80041a8:	f7fc ff62 	bl	8001070 <assert_failed>
 80041ac:	4b36      	ldr	r3, [pc, #216]	@ (8004288 <HAL_RCC_OscConfig+0x440>)
 80041ae:	4e34      	ldr	r6, [pc, #208]	@ (8004280 <HAL_RCC_OscConfig+0x438>)
 80041b0:	2200      	movs	r2, #0
 80041b2:	661a      	str	r2, [r3, #96]	@ 0x60
 80041b4:	f7fd fa7a 	bl	80016ac <HAL_GetTick>
 80041b8:	4605      	mov	r5, r0
 80041ba:	6833      	ldr	r3, [r6, #0]
 80041bc:	0199      	lsls	r1, r3, #6
 80041be:	d41f      	bmi.n	8004200 <HAL_RCC_OscConfig+0x3b8>
 80041c0:	e9d4 3207 	ldrd	r3, r2, [r4, #28]
 80041c4:	4313      	orrs	r3, r2
 80041c6:	6a62      	ldr	r2, [r4, #36]	@ 0x24
 80041c8:	4d2d      	ldr	r5, [pc, #180]	@ (8004280 <HAL_RCC_OscConfig+0x438>)
 80041ca:	ea43 1382 	orr.w	r3, r3, r2, lsl #6
 80041ce:	6ae2      	ldr	r2, [r4, #44]	@ 0x2c
 80041d0:	ea43 6302 	orr.w	r3, r3, r2, lsl #24
 80041d4:	6aa2      	ldr	r2, [r4, #40]	@ 0x28
 80041d6:	0852      	lsrs	r2, r2, #1
 80041d8:	3a01      	subs	r2, #1
 80041da:	ea43 4302 	orr.w	r3, r3, r2, lsl #16
 80041de:	6073      	str	r3, [r6, #4]
 80041e0:	4b29      	ldr	r3, [pc, #164]	@ (8004288 <HAL_RCC_OscConfig+0x440>)
 80041e2:	2201      	movs	r2, #1
 80041e4:	661a      	str	r2, [r3, #96]	@ 0x60
 80041e6:	f7fd fa61 	bl	80016ac <HAL_GetTick>
 80041ea:	4604      	mov	r4, r0
 80041ec:	682b      	ldr	r3, [r5, #0]
 80041ee:	019a      	lsls	r2, r3, #6
 80041f0:	f53f ae50 	bmi.w	8003e94 <HAL_RCC_OscConfig+0x4c>
 80041f4:	f7fd fa5a 	bl	80016ac <HAL_GetTick>
 80041f8:	1b00      	subs	r0, r0, r4
 80041fa:	2802      	cmp	r0, #2
 80041fc:	d9f6      	bls.n	80041ec <HAL_RCC_OscConfig+0x3a4>
 80041fe:	e682      	b.n	8003f06 <HAL_RCC_OscConfig+0xbe>
 8004200:	f7fd fa54 	bl	80016ac <HAL_GetTick>
 8004204:	1b40      	subs	r0, r0, r5
 8004206:	2802      	cmp	r0, #2
 8004208:	d9d7      	bls.n	80041ba <HAL_RCC_OscConfig+0x372>
 800420a:	e67c      	b.n	8003f06 <HAL_RCC_OscConfig+0xbe>
 800420c:	4b1e      	ldr	r3, [pc, #120]	@ (8004288 <HAL_RCC_OscConfig+0x440>)
 800420e:	2200      	movs	r2, #0
 8004210:	661a      	str	r2, [r3, #96]	@ 0x60
 8004212:	f7fd fa4b 	bl	80016ac <HAL_GetTick>
 8004216:	4604      	mov	r4, r0
 8004218:	682b      	ldr	r3, [r5, #0]
 800421a:	019b      	lsls	r3, r3, #6
 800421c:	f57f ae3a 	bpl.w	8003e94 <HAL_RCC_OscConfig+0x4c>
 8004220:	f7fd fa44 	bl	80016ac <HAL_GetTick>
 8004224:	1b00      	subs	r0, r0, r4
 8004226:	2802      	cmp	r0, #2
 8004228:	d9f6      	bls.n	8004218 <HAL_RCC_OscConfig+0x3d0>
 800422a:	e66c      	b.n	8003f06 <HAL_RCC_OscConfig+0xbe>
 800422c:	2b01      	cmp	r3, #1
 800422e:	f43f ae53 	beq.w	8003ed8 <HAL_RCC_OscConfig+0x90>
 8004232:	686b      	ldr	r3, [r5, #4]
 8004234:	69e2      	ldr	r2, [r4, #28]
 8004236:	f403 0180 	and.w	r1, r3, #4194304	@ 0x400000
 800423a:	4291      	cmp	r1, r2
 800423c:	f47f ae4c 	bne.w	8003ed8 <HAL_RCC_OscConfig+0x90>
 8004240:	6a21      	ldr	r1, [r4, #32]
 8004242:	f003 023f 	and.w	r2, r3, #63	@ 0x3f
 8004246:	428a      	cmp	r2, r1
 8004248:	f47f ae46 	bne.w	8003ed8 <HAL_RCC_OscConfig+0x90>
 800424c:	6a61      	ldr	r1, [r4, #36]	@ 0x24
 800424e:	f647 72c0 	movw	r2, #32704	@ 0x7fc0
 8004252:	401a      	ands	r2, r3
 8004254:	ebb2 1f81 	cmp.w	r2, r1, lsl #6
 8004258:	f47f ae3e 	bne.w	8003ed8 <HAL_RCC_OscConfig+0x90>
 800425c:	6aa2      	ldr	r2, [r4, #40]	@ 0x28
 800425e:	0852      	lsrs	r2, r2, #1
 8004260:	f403 3140 	and.w	r1, r3, #196608	@ 0x30000
 8004264:	3a01      	subs	r2, #1
 8004266:	ebb1 4f02 	cmp.w	r1, r2, lsl #16
 800426a:	f47f ae35 	bne.w	8003ed8 <HAL_RCC_OscConfig+0x90>
 800426e:	6ae2      	ldr	r2, [r4, #44]	@ 0x2c
 8004270:	f003 6370 	and.w	r3, r3, #251658240	@ 0xf000000
 8004274:	ebb3 6f02 	cmp.w	r3, r2, lsl #24
 8004278:	bf14      	ite	ne
 800427a:	2001      	movne	r0, #1
 800427c:	2000      	moveq	r0, #0
 800427e:	e643      	b.n	8003f08 <HAL_RCC_OscConfig+0xc0>
 8004280:	40023800 	.word	0x40023800
 8004284:	0800aa57 	.word	0x0800aa57
 8004288:	42470000 	.word	0x42470000

0800428c <HAL_RCC_GetSysClockFreq>:
 800428c:	4913      	ldr	r1, [pc, #76]	@ (80042dc <HAL_RCC_GetSysClockFreq+0x50>)
 800428e:	b508      	push	{r3, lr}
 8004290:	688b      	ldr	r3, [r1, #8]
 8004292:	f003 030c 	and.w	r3, r3, #12
 8004296:	2b04      	cmp	r3, #4
 8004298:	d01c      	beq.n	80042d4 <HAL_RCC_GetSysClockFreq+0x48>
 800429a:	2b08      	cmp	r3, #8
 800429c:	d11c      	bne.n	80042d8 <HAL_RCC_GetSysClockFreq+0x4c>
 800429e:	684a      	ldr	r2, [r1, #4]
 80042a0:	684b      	ldr	r3, [r1, #4]
 80042a2:	6849      	ldr	r1, [r1, #4]
 80042a4:	f413 0380 	ands.w	r3, r3, #4194304	@ 0x400000
 80042a8:	bf14      	ite	ne
 80042aa:	480d      	ldrne	r0, [pc, #52]	@ (80042e0 <HAL_RCC_GetSysClockFreq+0x54>)
 80042ac:	480d      	ldreq	r0, [pc, #52]	@ (80042e4 <HAL_RCC_GetSysClockFreq+0x58>)
 80042ae:	f3c1 1188 	ubfx	r1, r1, #6, #9
 80042b2:	bf18      	it	ne
 80042b4:	2300      	movne	r3, #0
 80042b6:	f002 023f 	and.w	r2, r2, #63	@ 0x3f
 80042ba:	fba1 0100 	umull	r0, r1, r1, r0
 80042be:	f7fb ffe7 	bl	8000290 <__aeabi_uldivmod>
 80042c2:	4b06      	ldr	r3, [pc, #24]	@ (80042dc <HAL_RCC_GetSysClockFreq+0x50>)
 80042c4:	685b      	ldr	r3, [r3, #4]
 80042c6:	f3c3 4301 	ubfx	r3, r3, #16, #2
 80042ca:	3301      	adds	r3, #1
 80042cc:	005b      	lsls	r3, r3, #1
 80042ce:	fbb0 f0f3 	udiv	r0, r0, r3
 80042d2:	bd08      	pop	{r3, pc}
 80042d4:	4802      	ldr	r0, [pc, #8]	@ (80042e0 <HAL_RCC_GetSysClockFreq+0x54>)
 80042d6:	e7fc      	b.n	80042d2 <HAL_RCC_GetSysClockFreq+0x46>
 80042d8:	4802      	ldr	r0, [pc, #8]	@ (80042e4 <HAL_RCC_GetSysClockFreq+0x58>)
 80042da:	e7fa      	b.n	80042d2 <HAL_RCC_GetSysClockFreq+0x46>
 80042dc:	40023800 	.word	0x40023800
 80042e0:	017d7840 	.word	0x017d7840
 80042e4:	00f42400 	.word	0x00f42400

080042e8 <HAL_RCC_ClockConfig>:
 80042e8:	e92d 41f0 	stmdb	sp!, {r4, r5, r6, r7, r8, lr}
 80042ec:	460d      	mov	r5, r1
 80042ee:	4604      	mov	r4, r0
 80042f0:	b910      	cbnz	r0, 80042f8 <HAL_RCC_ClockConfig+0x10>
 80042f2:	2001      	movs	r0, #1
 80042f4:	e8bd 81f0 	ldmia.w	sp!, {r4, r5, r6, r7, r8, pc}
 80042f8:	6803      	ldr	r3, [r0, #0]
 80042fa:	3b01      	subs	r3, #1
 80042fc:	2b0e      	cmp	r3, #14
 80042fe:	d904      	bls.n	800430a <HAL_RCC_ClockConfig+0x22>
 8004300:	486d      	ldr	r0, [pc, #436]	@ (80044b8 <HAL_RCC_ClockConfig+0x1d0>)
 8004302:	f240 215a 	movw	r1, #602	@ 0x25a
 8004306:	f7fc feb3 	bl	8001070 <assert_failed>
 800430a:	2d07      	cmp	r5, #7
 800430c:	d904      	bls.n	8004318 <HAL_RCC_ClockConfig+0x30>
 800430e:	486a      	ldr	r0, [pc, #424]	@ (80044b8 <HAL_RCC_ClockConfig+0x1d0>)
 8004310:	f240 215b 	movw	r1, #603	@ 0x25b
 8004314:	f7fc feac 	bl	8001070 <assert_failed>
 8004318:	4b68      	ldr	r3, [pc, #416]	@ (80044bc <HAL_RCC_ClockConfig+0x1d4>)
 800431a:	681a      	ldr	r2, [r3, #0]
 800431c:	f002 0207 	and.w	r2, r2, #7
 8004320:	42aa      	cmp	r2, r5
 8004322:	d33d      	bcc.n	80043a0 <HAL_RCC_ClockConfig+0xb8>
 8004324:	6822      	ldr	r2, [r4, #0]
 8004326:	0796      	lsls	r6, r2, #30
 8004328:	d442      	bmi.n	80043b0 <HAL_RCC_ClockConfig+0xc8>
 800432a:	6823      	ldr	r3, [r4, #0]
 800432c:	07d9      	lsls	r1, r3, #31
 800432e:	d46c      	bmi.n	800440a <HAL_RCC_ClockConfig+0x122>
 8004330:	4b62      	ldr	r3, [pc, #392]	@ (80044bc <HAL_RCC_ClockConfig+0x1d4>)
 8004332:	681a      	ldr	r2, [r3, #0]
 8004334:	f002 0207 	and.w	r2, r2, #7
 8004338:	42aa      	cmp	r2, r5
 800433a:	f200 809b 	bhi.w	8004474 <HAL_RCC_ClockConfig+0x18c>
 800433e:	6823      	ldr	r3, [r4, #0]
 8004340:	075a      	lsls	r2, r3, #29
 8004342:	f100 80a0 	bmi.w	8004486 <HAL_RCC_ClockConfig+0x19e>
 8004346:	6823      	ldr	r3, [r4, #0]
 8004348:	071b      	lsls	r3, r3, #28
 800434a:	d518      	bpl.n	800437e <HAL_RCC_ClockConfig+0x96>
 800434c:	6923      	ldr	r3, [r4, #16]
 800434e:	f433 5280 	bics.w	r2, r3, #4096	@ 0x1000
 8004352:	d00c      	beq.n	800436e <HAL_RCC_ClockConfig+0x86>
 8004354:	f423 6200 	bic.w	r2, r3, #2048	@ 0x800
 8004358:	f5b2 5fa0 	cmp.w	r2, #5120	@ 0x1400
 800435c:	d007      	beq.n	800436e <HAL_RCC_ClockConfig+0x86>
 800435e:	f5b3 5fc0 	cmp.w	r3, #6144	@ 0x1800
 8004362:	d004      	beq.n	800436e <HAL_RCC_ClockConfig+0x86>
 8004364:	4854      	ldr	r0, [pc, #336]	@ (80044b8 <HAL_RCC_ClockConfig+0x1d0>)
 8004366:	f240 21ca 	movw	r1, #714	@ 0x2ca
 800436a:	f7fc fe81 	bl	8001070 <assert_failed>
 800436e:	4a54      	ldr	r2, [pc, #336]	@ (80044c0 <HAL_RCC_ClockConfig+0x1d8>)
 8004370:	6921      	ldr	r1, [r4, #16]
 8004372:	6893      	ldr	r3, [r2, #8]
 8004374:	f423 4360 	bic.w	r3, r3, #57344	@ 0xe000
 8004378:	ea43 03c1 	orr.w	r3, r3, r1, lsl #3
 800437c:	6093      	str	r3, [r2, #8]
 800437e:	f7ff ff85 	bl	800428c <HAL_RCC_GetSysClockFreq>
 8004382:	4b4f      	ldr	r3, [pc, #316]	@ (80044c0 <HAL_RCC_ClockConfig+0x1d8>)
 8004384:	4a4f      	ldr	r2, [pc, #316]	@ (80044c4 <HAL_RCC_ClockConfig+0x1dc>)
 8004386:	689b      	ldr	r3, [r3, #8]
 8004388:	f3c3 1303 	ubfx	r3, r3, #4, #4
 800438c:	5cd3      	ldrb	r3, [r2, r3]
 800438e:	40d8      	lsrs	r0, r3
 8004390:	4b4d      	ldr	r3, [pc, #308]	@ (80044c8 <HAL_RCC_ClockConfig+0x1e0>)
 8004392:	6018      	str	r0, [r3, #0]
 8004394:	4b4d      	ldr	r3, [pc, #308]	@ (80044cc <HAL_RCC_ClockConfig+0x1e4>)
 8004396:	6818      	ldr	r0, [r3, #0]
 8004398:	f7fc ff02 	bl	80011a0 <HAL_InitTick>
 800439c:	2000      	movs	r0, #0
 800439e:	e7a9      	b.n	80042f4 <HAL_RCC_ClockConfig+0xc>
 80043a0:	b2ea      	uxtb	r2, r5
 80043a2:	701a      	strb	r2, [r3, #0]
 80043a4:	681b      	ldr	r3, [r3, #0]
 80043a6:	f003 0307 	and.w	r3, r3, #7
 80043aa:	42ab      	cmp	r3, r5
 80043ac:	d1a1      	bne.n	80042f2 <HAL_RCC_ClockConfig+0xa>
 80043ae:	e7b9      	b.n	8004324 <HAL_RCC_ClockConfig+0x3c>
 80043b0:	4b43      	ldr	r3, [pc, #268]	@ (80044c0 <HAL_RCC_ClockConfig+0x1d8>)
 80043b2:	f012 0f04 	tst.w	r2, #4
 80043b6:	bf1e      	ittt	ne
 80043b8:	6899      	ldrne	r1, [r3, #8]
 80043ba:	f441 51e0 	orrne.w	r1, r1, #7168	@ 0x1c00
 80043be:	6099      	strne	r1, [r3, #8]
 80043c0:	0710      	lsls	r0, r2, #28
 80043c2:	bf42      	ittt	mi
 80043c4:	689a      	ldrmi	r2, [r3, #8]
 80043c6:	f442 4260 	orrmi.w	r2, r2, #57344	@ 0xe000
 80043ca:	609a      	strmi	r2, [r3, #8]
 80043cc:	68a3      	ldr	r3, [r4, #8]
 80043ce:	f033 0280 	bics.w	r2, r3, #128	@ 0x80
 80043d2:	d012      	beq.n	80043fa <HAL_RCC_ClockConfig+0x112>
 80043d4:	f023 0220 	bic.w	r2, r3, #32
 80043d8:	2a90      	cmp	r2, #144	@ 0x90
 80043da:	d00e      	beq.n	80043fa <HAL_RCC_ClockConfig+0x112>
 80043dc:	f023 0240 	bic.w	r2, r3, #64	@ 0x40
 80043e0:	2aa0      	cmp	r2, #160	@ 0xa0
 80043e2:	d00a      	beq.n	80043fa <HAL_RCC_ClockConfig+0x112>
 80043e4:	f023 0210 	bic.w	r2, r3, #16
 80043e8:	2ac0      	cmp	r2, #192	@ 0xc0
 80043ea:	d006      	beq.n	80043fa <HAL_RCC_ClockConfig+0x112>
 80043ec:	2bf0      	cmp	r3, #240	@ 0xf0
 80043ee:	d004      	beq.n	80043fa <HAL_RCC_ClockConfig+0x112>
 80043f0:	4831      	ldr	r0, [pc, #196]	@ (80044b8 <HAL_RCC_ClockConfig+0x1d0>)
 80043f2:	f240 217e 	movw	r1, #638	@ 0x27e
 80043f6:	f7fc fe3b 	bl	8001070 <assert_failed>
 80043fa:	4a31      	ldr	r2, [pc, #196]	@ (80044c0 <HAL_RCC_ClockConfig+0x1d8>)
 80043fc:	68a1      	ldr	r1, [r4, #8]
 80043fe:	6893      	ldr	r3, [r2, #8]
 8004400:	f023 03f0 	bic.w	r3, r3, #240	@ 0xf0
 8004404:	430b      	orrs	r3, r1
 8004406:	6093      	str	r3, [r2, #8]
 8004408:	e78f      	b.n	800432a <HAL_RCC_ClockConfig+0x42>
 800440a:	6863      	ldr	r3, [r4, #4]
 800440c:	2b03      	cmp	r3, #3
 800440e:	d904      	bls.n	800441a <HAL_RCC_ClockConfig+0x132>
 8004410:	4829      	ldr	r0, [pc, #164]	@ (80044b8 <HAL_RCC_ClockConfig+0x1d0>)
 8004412:	f240 2185 	movw	r1, #645	@ 0x285
 8004416:	f7fc fe2b 	bl	8001070 <assert_failed>
 800441a:	6862      	ldr	r2, [r4, #4]
 800441c:	4b28      	ldr	r3, [pc, #160]	@ (80044c0 <HAL_RCC_ClockConfig+0x1d8>)
 800441e:	2a01      	cmp	r2, #1
 8004420:	d11e      	bne.n	8004460 <HAL_RCC_ClockConfig+0x178>
 8004422:	681b      	ldr	r3, [r3, #0]
 8004424:	f413 3f00 	tst.w	r3, #131072	@ 0x20000
 8004428:	f43f af63 	beq.w	80042f2 <HAL_RCC_ClockConfig+0xa>
 800442c:	4e24      	ldr	r6, [pc, #144]	@ (80044c0 <HAL_RCC_ClockConfig+0x1d8>)
 800442e:	68b3      	ldr	r3, [r6, #8]
 8004430:	f023 0303 	bic.w	r3, r3, #3
 8004434:	4313      	orrs	r3, r2
 8004436:	60b3      	str	r3, [r6, #8]
 8004438:	f7fd f938 	bl	80016ac <HAL_GetTick>
 800443c:	f241 3888 	movw	r8, #5000	@ 0x1388
 8004440:	4607      	mov	r7, r0
 8004442:	68b3      	ldr	r3, [r6, #8]
 8004444:	6862      	ldr	r2, [r4, #4]
 8004446:	f003 030c 	and.w	r3, r3, #12
 800444a:	ebb3 0f82 	cmp.w	r3, r2, lsl #2
 800444e:	f43f af6f 	beq.w	8004330 <HAL_RCC_ClockConfig+0x48>
 8004452:	f7fd f92b 	bl	80016ac <HAL_GetTick>
 8004456:	1bc0      	subs	r0, r0, r7
 8004458:	4540      	cmp	r0, r8
 800445a:	d9f2      	bls.n	8004442 <HAL_RCC_ClockConfig+0x15a>
 800445c:	2003      	movs	r0, #3
 800445e:	e749      	b.n	80042f4 <HAL_RCC_ClockConfig+0xc>
 8004460:	1e91      	subs	r1, r2, #2
 8004462:	2901      	cmp	r1, #1
 8004464:	681b      	ldr	r3, [r3, #0]
 8004466:	d802      	bhi.n	800446e <HAL_RCC_ClockConfig+0x186>
 8004468:	f013 7f00 	tst.w	r3, #33554432	@ 0x2000000
 800446c:	e7dc      	b.n	8004428 <HAL_RCC_ClockConfig+0x140>
 800446e:	f013 0f02 	tst.w	r3, #2
 8004472:	e7d9      	b.n	8004428 <HAL_RCC_ClockConfig+0x140>
 8004474:	b2ea      	uxtb	r2, r5
 8004476:	701a      	strb	r2, [r3, #0]
 8004478:	681b      	ldr	r3, [r3, #0]
 800447a:	f003 0307 	and.w	r3, r3, #7
 800447e:	42ab      	cmp	r3, r5
 8004480:	f47f af37 	bne.w	80042f2 <HAL_RCC_ClockConfig+0xa>
 8004484:	e75b      	b.n	800433e <HAL_RCC_ClockConfig+0x56>
 8004486:	68e3      	ldr	r3, [r4, #12]
 8004488:	f433 5280 	bics.w	r2, r3, #4096	@ 0x1000
 800448c:	d00c      	beq.n	80044a8 <HAL_RCC_ClockConfig+0x1c0>
 800448e:	f423 6200 	bic.w	r2, r3, #2048	@ 0x800
 8004492:	f5b2 5fa0 	cmp.w	r2, #5120	@ 0x1400
 8004496:	d007      	beq.n	80044a8 <HAL_RCC_ClockConfig+0x1c0>
 8004498:	f5b3 5fc0 	cmp.w	r3, #6144	@ 0x1800
 800449c:	d004      	beq.n	80044a8 <HAL_RCC_ClockConfig+0x1c0>
 800449e:	4806      	ldr	r0, [pc, #24]	@ (80044b8 <HAL_RCC_ClockConfig+0x1d0>)
 80044a0:	f240 21c3 	movw	r1, #707	@ 0x2c3
 80044a4:	f7fc fde4 	bl	8001070 <assert_failed>
 80044a8:	4a05      	ldr	r2, [pc, #20]	@ (80044c0 <HAL_RCC_ClockConfig+0x1d8>)
 80044aa:	68e1      	ldr	r1, [r4, #12]
 80044ac:	6893      	ldr	r3, [r2, #8]
 80044ae:	f423 53e0 	bic.w	r3, r3, #7168	@ 0x1c00
 80044b2:	430b      	orrs	r3, r1
 80044b4:	6093      	str	r3, [r2, #8]
 80044b6:	e746      	b.n	8004346 <HAL_RCC_ClockConfig+0x5e>
 80044b8:	0800aa57 	.word	0x0800aa57
 80044bc:	40023c00 	.word	0x40023c00
 80044c0:	40023800 	.word	0x40023800
 80044c4:	080157c4 	.word	0x080157c4
 80044c8:	20000004 	.word	0x20000004
 80044cc:	2000000c 	.word	0x2000000c

080044d0 <HAL_RCC_GetHCLKFreq>:
 80044d0:	4b01      	ldr	r3, [pc, #4]	@ (80044d8 <HAL_RCC_GetHCLKFreq+0x8>)
 80044d2:	6818      	ldr	r0, [r3, #0]
 80044d4:	4770      	bx	lr
 80044d6:	bf00      	nop
 80044d8:	20000004 	.word	0x20000004

080044dc <HAL_RCC_GetPCLK1Freq>:
 80044dc:	4b04      	ldr	r3, [pc, #16]	@ (80044f0 <HAL_RCC_GetPCLK1Freq+0x14>)
 80044de:	4a05      	ldr	r2, [pc, #20]	@ (80044f4 <HAL_RCC_GetPCLK1Freq+0x18>)
 80044e0:	689b      	ldr	r3, [r3, #8]
 80044e2:	f3c3 2382 	ubfx	r3, r3, #10, #3
 80044e6:	5cd3      	ldrb	r3, [r2, r3]
 80044e8:	4a03      	ldr	r2, [pc, #12]	@ (80044f8 <HAL_RCC_GetPCLK1Freq+0x1c>)
 80044ea:	6810      	ldr	r0, [r2, #0]
 80044ec:	40d8      	lsrs	r0, r3
 80044ee:	4770      	bx	lr
 80044f0:	40023800 	.word	0x40023800
 80044f4:	080157bc 	.word	0x080157bc
 80044f8:	20000004 	.word	0x20000004

080044fc <HAL_RCC_GetPCLK2Freq>:
 80044fc:	4b04      	ldr	r3, [pc, #16]	@ (8004510 <HAL_RCC_GetPCLK2Freq+0x14>)
 80044fe:	4a05      	ldr	r2, [pc, #20]	@ (8004514 <HAL_RCC_GetPCLK2Freq+0x18>)
 8004500:	689b      	ldr	r3, [r3, #8]
 8004502:	f3c3 3342 	ubfx	r3, r3, #13, #3
 8004506:	5cd3      	ldrb	r3, [r2, r3]
 8004508:	4a03      	ldr	r2, [pc, #12]	@ (8004518 <HAL_RCC_GetPCLK2Freq+0x1c>)
 800450a:	6810      	ldr	r0, [r2, #0]
 800450c:	40d8      	lsrs	r0, r3
 800450e:	4770      	bx	lr
 8004510:	40023800 	.word	0x40023800
 8004514:	080157bc 	.word	0x080157bc
 8004518:	20000004 	.word	0x20000004

0800451c <HAL_RCC_GetClockConfig>:
 800451c:	230f      	movs	r3, #15
 800451e:	6003      	str	r3, [r0, #0]
 8004520:	4b0b      	ldr	r3, [pc, #44]	@ (8004550 <HAL_RCC_GetClockConfig+0x34>)
 8004522:	689a      	ldr	r2, [r3, #8]
 8004524:	f002 0203 	and.w	r2, r2, #3
 8004528:	6042      	str	r2, [r0, #4]
 800452a:	689a      	ldr	r2, [r3, #8]
 800452c:	f002 02f0 	and.w	r2, r2, #240	@ 0xf0
 8004530:	6082      	str	r2, [r0, #8]
 8004532:	689a      	ldr	r2, [r3, #8]
 8004534:	f402 52e0 	and.w	r2, r2, #7168	@ 0x1c00
 8004538:	60c2      	str	r2, [r0, #12]
 800453a:	689b      	ldr	r3, [r3, #8]
 800453c:	08db      	lsrs	r3, r3, #3
 800453e:	f403 53e0 	and.w	r3, r3, #7168	@ 0x1c00
 8004542:	6103      	str	r3, [r0, #16]
 8004544:	4b03      	ldr	r3, [pc, #12]	@ (8004554 <HAL_RCC_GetClockConfig+0x38>)
 8004546:	681b      	ldr	r3, [r3, #0]
 8004548:	f003 0307 	and.w	r3, r3, #7
 800454c:	600b      	str	r3, [r1, #0]
 800454e:	4770      	bx	lr
 8004550:	40023800 	.word	0x40023800
 8004554:	40023c00 	.word	0x40023c00

08004558 <SPI_WaitFlagStateUntilTimeout.constprop.0>:
 8004558:	e92d 41f3 	stmdb	sp!, {r0, r1, r4, r5, r6, r7, r8, lr}
 800455c:	461c      	mov	r4, r3
 800455e:	4616      	mov	r6, r2
 8004560:	460f      	mov	r7, r1
 8004562:	4605      	mov	r5, r0
 8004564:	f7fd f8a2 	bl	80016ac <HAL_GetTick>
 8004568:	4434      	add	r4, r6
 800456a:	1a24      	subs	r4, r4, r0
 800456c:	f7fd f89e 	bl	80016ac <HAL_GetTick>
 8004570:	4b24      	ldr	r3, [pc, #144]	@ (8004604 <SPI_WaitFlagStateUntilTimeout.constprop.0+0xac>)
 8004572:	681b      	ldr	r3, [r3, #0]
 8004574:	f3c3 33cb 	ubfx	r3, r3, #15, #12
 8004578:	4363      	muls	r3, r4
 800457a:	4680      	mov	r8, r0
 800457c:	9301      	str	r3, [sp, #4]
 800457e:	682a      	ldr	r2, [r5, #0]
 8004580:	6893      	ldr	r3, [r2, #8]
 8004582:	ea37 0303 	bics.w	r3, r7, r3
 8004586:	d001      	beq.n	800458c <SPI_WaitFlagStateUntilTimeout.constprop.0+0x34>
 8004588:	2000      	movs	r0, #0
 800458a:	e02e      	b.n	80045ea <SPI_WaitFlagStateUntilTimeout.constprop.0+0x92>
 800458c:	1c73      	adds	r3, r6, #1
 800458e:	d0f7      	beq.n	8004580 <SPI_WaitFlagStateUntilTimeout.constprop.0+0x28>
 8004590:	f7fd f88c 	bl	80016ac <HAL_GetTick>
 8004594:	eba0 0008 	sub.w	r0, r0, r8
 8004598:	42a0      	cmp	r0, r4
 800459a:	d329      	bcc.n	80045f0 <SPI_WaitFlagStateUntilTimeout.constprop.0+0x98>
 800459c:	682b      	ldr	r3, [r5, #0]
 800459e:	685a      	ldr	r2, [r3, #4]
 80045a0:	f022 02e0 	bic.w	r2, r2, #224	@ 0xe0
 80045a4:	605a      	str	r2, [r3, #4]
 80045a6:	686a      	ldr	r2, [r5, #4]
 80045a8:	f5b2 7f82 	cmp.w	r2, #260	@ 0x104
 80045ac:	d10a      	bne.n	80045c4 <SPI_WaitFlagStateUntilTimeout.constprop.0+0x6c>
 80045ae:	68aa      	ldr	r2, [r5, #8]
 80045b0:	f5b2 4f00 	cmp.w	r2, #32768	@ 0x8000
 80045b4:	d002      	beq.n	80045bc <SPI_WaitFlagStateUntilTimeout.constprop.0+0x64>
 80045b6:	f5b2 6f80 	cmp.w	r2, #1024	@ 0x400
 80045ba:	d103      	bne.n	80045c4 <SPI_WaitFlagStateUntilTimeout.constprop.0+0x6c>
 80045bc:	681a      	ldr	r2, [r3, #0]
 80045be:	f022 0240 	bic.w	r2, r2, #64	@ 0x40
 80045c2:	601a      	str	r2, [r3, #0]
 80045c4:	6aaa      	ldr	r2, [r5, #40]	@ 0x28
 80045c6:	f5b2 5f00 	cmp.w	r2, #8192	@ 0x2000
 80045ca:	d107      	bne.n	80045dc <SPI_WaitFlagStateUntilTimeout.constprop.0+0x84>
 80045cc:	681a      	ldr	r2, [r3, #0]
 80045ce:	f422 5200 	bic.w	r2, r2, #8192	@ 0x2000
 80045d2:	601a      	str	r2, [r3, #0]
 80045d4:	681a      	ldr	r2, [r3, #0]
 80045d6:	f442 5200 	orr.w	r2, r2, #8192	@ 0x2000
 80045da:	601a      	str	r2, [r3, #0]
 80045dc:	2301      	movs	r3, #1
 80045de:	f885 3051 	strb.w	r3, [r5, #81]	@ 0x51
 80045e2:	2300      	movs	r3, #0
 80045e4:	f885 3050 	strb.w	r3, [r5, #80]	@ 0x50
 80045e8:	2003      	movs	r0, #3
 80045ea:	b002      	add	sp, #8
 80045ec:	e8bd 81f0 	ldmia.w	sp!, {r4, r5, r6, r7, r8, pc}
 80045f0:	9a01      	ldr	r2, [sp, #4]
 80045f2:	9b01      	ldr	r3, [sp, #4]
 80045f4:	2a00      	cmp	r2, #0
 80045f6:	f103 33ff 	add.w	r3, r3, #4294967295
 80045fa:	9301      	str	r3, [sp, #4]
 80045fc:	bf08      	it	eq
 80045fe:	4614      	moveq	r4, r2
 8004600:	e7bd      	b.n	800457e <SPI_WaitFlagStateUntilTimeout.constprop.0+0x26>
 8004602:	bf00      	nop
 8004604:	20000004 	.word	0x20000004

08004608 <SPI_EndRxTxTransaction>:
 8004608:	b537      	push	{r0, r1, r2, r4, r5, lr}
 800460a:	4613      	mov	r3, r2
 800460c:	4a12      	ldr	r2, [pc, #72]	@ (8004658 <SPI_EndRxTxTransaction+0x50>)
 800460e:	6815      	ldr	r5, [r2, #0]
 8004610:	4a12      	ldr	r2, [pc, #72]	@ (800465c <SPI_EndRxTxTransaction+0x54>)
 8004612:	fbb5 f5f2 	udiv	r5, r5, r2
 8004616:	f44f 727a 	mov.w	r2, #1000	@ 0x3e8
 800461a:	4355      	muls	r5, r2
 800461c:	6842      	ldr	r2, [r0, #4]
 800461e:	9501      	str	r5, [sp, #4]
 8004620:	f5b2 7f82 	cmp.w	r2, #260	@ 0x104
 8004624:	4604      	mov	r4, r0
 8004626:	d10b      	bne.n	8004640 <SPI_EndRxTxTransaction+0x38>
 8004628:	460a      	mov	r2, r1
 800462a:	2180      	movs	r1, #128	@ 0x80
 800462c:	f7ff ff94 	bl	8004558 <SPI_WaitFlagStateUntilTimeout.constprop.0>
 8004630:	b178      	cbz	r0, 8004652 <SPI_EndRxTxTransaction+0x4a>
 8004632:	6d63      	ldr	r3, [r4, #84]	@ 0x54
 8004634:	f043 0320 	orr.w	r3, r3, #32
 8004638:	6563      	str	r3, [r4, #84]	@ 0x54
 800463a:	2003      	movs	r0, #3
 800463c:	b003      	add	sp, #12
 800463e:	bd30      	pop	{r4, r5, pc}
 8004640:	9b01      	ldr	r3, [sp, #4]
 8004642:	b133      	cbz	r3, 8004652 <SPI_EndRxTxTransaction+0x4a>
 8004644:	9b01      	ldr	r3, [sp, #4]
 8004646:	3b01      	subs	r3, #1
 8004648:	9301      	str	r3, [sp, #4]
 800464a:	6823      	ldr	r3, [r4, #0]
 800464c:	689b      	ldr	r3, [r3, #8]
 800464e:	061b      	lsls	r3, r3, #24
 8004650:	d4f6      	bmi.n	8004640 <SPI_EndRxTxTransaction+0x38>
 8004652:	2000      	movs	r0, #0
 8004654:	e7f2      	b.n	800463c <SPI_EndRxTxTransaction+0x34>
 8004656:	bf00      	nop
 8004658:	20000004 	.word	0x20000004
 800465c:	016e3600 	.word	0x016e3600

08004660 <HAL_SPI_Init>:
 8004660:	b510      	push	{r4, lr}
 8004662:	4604      	mov	r4, r0
 8004664:	2800      	cmp	r0, #0
 8004666:	f000 8102 	beq.w	800486e <HAL_SPI_Init+0x20e>
 800466a:	6803      	ldr	r3, [r0, #0]
 800466c:	4a81      	ldr	r2, [pc, #516]	@ (8004874 <HAL_SPI_Init+0x214>)
 800466e:	4293      	cmp	r3, r2
 8004670:	d010      	beq.n	8004694 <HAL_SPI_Init+0x34>
 8004672:	f5a2 4278 	sub.w	r2, r2, #63488	@ 0xf800
 8004676:	4293      	cmp	r3, r2
 8004678:	d00c      	beq.n	8004694 <HAL_SPI_Init+0x34>
 800467a:	f502 6280 	add.w	r2, r2, #1024	@ 0x400
 800467e:	4293      	cmp	r3, r2
 8004680:	d008      	beq.n	8004694 <HAL_SPI_Init+0x34>
 8004682:	f502 4278 	add.w	r2, r2, #63488	@ 0xf800
 8004686:	4293      	cmp	r3, r2
 8004688:	d004      	beq.n	8004694 <HAL_SPI_Init+0x34>
 800468a:	487b      	ldr	r0, [pc, #492]	@ (8004878 <HAL_SPI_Init+0x218>)
 800468c:	f44f 71a0 	mov.w	r1, #320	@ 0x140
 8004690:	f7fc fcee 	bl	8001070 <assert_failed>
 8004694:	6863      	ldr	r3, [r4, #4]
 8004696:	b13b      	cbz	r3, 80046a8 <HAL_SPI_Init+0x48>
 8004698:	f5b3 7f82 	cmp.w	r3, #260	@ 0x104
 800469c:	d004      	beq.n	80046a8 <HAL_SPI_Init+0x48>
 800469e:	4876      	ldr	r0, [pc, #472]	@ (8004878 <HAL_SPI_Init+0x218>)
 80046a0:	f240 1141 	movw	r1, #321	@ 0x141
 80046a4:	f7fc fce4 	bl	8001070 <assert_failed>
 80046a8:	68a3      	ldr	r3, [r4, #8]
 80046aa:	f433 6280 	bics.w	r2, r3, #1024	@ 0x400
 80046ae:	d007      	beq.n	80046c0 <HAL_SPI_Init+0x60>
 80046b0:	f5b3 4f00 	cmp.w	r3, #32768	@ 0x8000
 80046b4:	d004      	beq.n	80046c0 <HAL_SPI_Init+0x60>
 80046b6:	4870      	ldr	r0, [pc, #448]	@ (8004878 <HAL_SPI_Init+0x218>)
 80046b8:	f44f 71a1 	mov.w	r1, #322	@ 0x142
 80046bc:	f7fc fcd8 	bl	8001070 <assert_failed>
 80046c0:	68e3      	ldr	r3, [r4, #12]
 80046c2:	f433 6300 	bics.w	r3, r3, #2048	@ 0x800
 80046c6:	d004      	beq.n	80046d2 <HAL_SPI_Init+0x72>
 80046c8:	486b      	ldr	r0, [pc, #428]	@ (8004878 <HAL_SPI_Init+0x218>)
 80046ca:	f240 1143 	movw	r1, #323	@ 0x143
 80046ce:	f7fc fccf 	bl	8001070 <assert_failed>
 80046d2:	69a3      	ldr	r3, [r4, #24]
 80046d4:	f433 7200 	bics.w	r2, r3, #512	@ 0x200
 80046d8:	d007      	beq.n	80046ea <HAL_SPI_Init+0x8a>
 80046da:	f5b3 2f80 	cmp.w	r3, #262144	@ 0x40000
 80046de:	d004      	beq.n	80046ea <HAL_SPI_Init+0x8a>
 80046e0:	4865      	ldr	r0, [pc, #404]	@ (8004878 <HAL_SPI_Init+0x218>)
 80046e2:	f44f 71a2 	mov.w	r1, #324	@ 0x144
 80046e6:	f7fc fcc3 	bl	8001070 <assert_failed>
 80046ea:	69e3      	ldr	r3, [r4, #28]
 80046ec:	b1a3      	cbz	r3, 8004718 <HAL_SPI_Init+0xb8>
 80046ee:	2b18      	cmp	r3, #24
 80046f0:	d809      	bhi.n	8004706 <HAL_SPI_Init+0xa6>
 80046f2:	2b07      	cmp	r3, #7
 80046f4:	d805      	bhi.n	8004702 <HAL_SPI_Init+0xa2>
 80046f6:	4860      	ldr	r0, [pc, #384]	@ (8004878 <HAL_SPI_Init+0x218>)
 80046f8:	f240 1145 	movw	r1, #325	@ 0x145
 80046fc:	f7fc fcb8 	bl	8001070 <assert_failed>
 8004700:	e00a      	b.n	8004718 <HAL_SPI_Init+0xb8>
 8004702:	4a5e      	ldr	r2, [pc, #376]	@ (800487c <HAL_SPI_Init+0x21c>)
 8004704:	e004      	b.n	8004710 <HAL_SPI_Init+0xb0>
 8004706:	3b20      	subs	r3, #32
 8004708:	2b18      	cmp	r3, #24
 800470a:	d8f4      	bhi.n	80046f6 <HAL_SPI_Init+0x96>
 800470c:	f04f 3201 	mov.w	r2, #16843009	@ 0x1010101
 8004710:	fa22 f303 	lsr.w	r3, r2, r3
 8004714:	07d9      	lsls	r1, r3, #31
 8004716:	d5ee      	bpl.n	80046f6 <HAL_SPI_Init+0x96>
 8004718:	6a23      	ldr	r3, [r4, #32]
 800471a:	f033 0380 	bics.w	r3, r3, #128	@ 0x80
 800471e:	d004      	beq.n	800472a <HAL_SPI_Init+0xca>
 8004720:	4855      	ldr	r0, [pc, #340]	@ (8004878 <HAL_SPI_Init+0x218>)
 8004722:	f44f 71a3 	mov.w	r1, #326	@ 0x146
 8004726:	f7fc fca3 	bl	8001070 <assert_failed>
 800472a:	6a63      	ldr	r3, [r4, #36]	@ 0x24
 800472c:	b9db      	cbnz	r3, 8004766 <HAL_SPI_Init+0x106>
 800472e:	6923      	ldr	r3, [r4, #16]
 8004730:	f033 0302 	bics.w	r3, r3, #2
 8004734:	d12e      	bne.n	8004794 <HAL_SPI_Init+0x134>
 8004736:	6963      	ldr	r3, [r4, #20]
 8004738:	2b01      	cmp	r3, #1
 800473a:	d904      	bls.n	8004746 <HAL_SPI_Init+0xe6>
 800473c:	484e      	ldr	r0, [pc, #312]	@ (8004878 <HAL_SPI_Init+0x218>)
 800473e:	f240 114b 	movw	r1, #331	@ 0x14b
 8004742:	f7fc fc95 	bl	8001070 <assert_failed>
 8004746:	6863      	ldr	r3, [r4, #4]
 8004748:	f5b3 7f82 	cmp.w	r3, #260	@ 0x104
 800474c:	d17d      	bne.n	800484a <HAL_SPI_Init+0x1ea>
 800474e:	69e3      	ldr	r3, [r4, #28]
 8004750:	b38b      	cbz	r3, 80047b6 <HAL_SPI_Init+0x156>
 8004752:	2b18      	cmp	r3, #24
 8004754:	d826      	bhi.n	80047a4 <HAL_SPI_Init+0x144>
 8004756:	2b07      	cmp	r3, #7
 8004758:	d822      	bhi.n	80047a0 <HAL_SPI_Init+0x140>
 800475a:	4847      	ldr	r0, [pc, #284]	@ (8004878 <HAL_SPI_Init+0x218>)
 800475c:	f240 114f 	movw	r1, #335	@ 0x14f
 8004760:	f7fc fc86 	bl	8001070 <assert_failed>
 8004764:	e027      	b.n	80047b6 <HAL_SPI_Init+0x156>
 8004766:	2b10      	cmp	r3, #16
 8004768:	d007      	beq.n	800477a <HAL_SPI_Init+0x11a>
 800476a:	4843      	ldr	r0, [pc, #268]	@ (8004878 <HAL_SPI_Init+0x218>)
 800476c:	f240 1147 	movw	r1, #327	@ 0x147
 8004770:	f7fc fc7e 	bl	8001070 <assert_failed>
 8004774:	6a63      	ldr	r3, [r4, #36]	@ 0x24
 8004776:	2b00      	cmp	r3, #0
 8004778:	d0d9      	beq.n	800472e <HAL_SPI_Init+0xce>
 800477a:	69e3      	ldr	r3, [r4, #28]
 800477c:	2b00      	cmp	r3, #0
 800477e:	d072      	beq.n	8004866 <HAL_SPI_Init+0x206>
 8004780:	2b18      	cmp	r3, #24
 8004782:	d867      	bhi.n	8004854 <HAL_SPI_Init+0x1f4>
 8004784:	2b07      	cmp	r3, #7
 8004786:	d863      	bhi.n	8004850 <HAL_SPI_Init+0x1f0>
 8004788:	483b      	ldr	r0, [pc, #236]	@ (8004878 <HAL_SPI_Init+0x218>)
 800478a:	f240 1159 	movw	r1, #345	@ 0x159
 800478e:	f7fc fc6f 	bl	8001070 <assert_failed>
 8004792:	e068      	b.n	8004866 <HAL_SPI_Init+0x206>
 8004794:	4838      	ldr	r0, [pc, #224]	@ (8004878 <HAL_SPI_Init+0x218>)
 8004796:	f44f 71a5 	mov.w	r1, #330	@ 0x14a
 800479a:	f7fc fc69 	bl	8001070 <assert_failed>
 800479e:	e7ca      	b.n	8004736 <HAL_SPI_Init+0xd6>
 80047a0:	4a36      	ldr	r2, [pc, #216]	@ (800487c <HAL_SPI_Init+0x21c>)
 80047a2:	e004      	b.n	80047ae <HAL_SPI_Init+0x14e>
 80047a4:	3b20      	subs	r3, #32
 80047a6:	2b18      	cmp	r3, #24
 80047a8:	d8d7      	bhi.n	800475a <HAL_SPI_Init+0xfa>
 80047aa:	f04f 3201 	mov.w	r2, #16843009	@ 0x1010101
 80047ae:	fa22 f303 	lsr.w	r3, r2, r3
 80047b2:	07da      	lsls	r2, r3, #31
 80047b4:	d5d1      	bpl.n	800475a <HAL_SPI_Init+0xfa>
 80047b6:	2300      	movs	r3, #0
 80047b8:	62a3      	str	r3, [r4, #40]	@ 0x28
 80047ba:	f894 3051 	ldrb.w	r3, [r4, #81]	@ 0x51
 80047be:	f003 02ff 	and.w	r2, r3, #255	@ 0xff
 80047c2:	b923      	cbnz	r3, 80047ce <HAL_SPI_Init+0x16e>
 80047c4:	f884 2050 	strb.w	r2, [r4, #80]	@ 0x50
 80047c8:	4620      	mov	r0, r4
 80047ca:	f7fc fc77 	bl	80010bc <HAL_SPI_MspInit>
 80047ce:	6821      	ldr	r1, [r4, #0]
 80047d0:	68a0      	ldr	r0, [r4, #8]
 80047d2:	69a2      	ldr	r2, [r4, #24]
 80047d4:	2302      	movs	r3, #2
 80047d6:	f884 3051 	strb.w	r3, [r4, #81]	@ 0x51
 80047da:	680b      	ldr	r3, [r1, #0]
 80047dc:	f023 0340 	bic.w	r3, r3, #64	@ 0x40
 80047e0:	600b      	str	r3, [r1, #0]
 80047e2:	6863      	ldr	r3, [r4, #4]
 80047e4:	f400 4004 	and.w	r0, r0, #33792	@ 0x8400
 80047e8:	f403 7382 	and.w	r3, r3, #260	@ 0x104
 80047ec:	4303      	orrs	r3, r0
 80047ee:	68e0      	ldr	r0, [r4, #12]
 80047f0:	f400 6000 	and.w	r0, r0, #2048	@ 0x800
 80047f4:	4303      	orrs	r3, r0
 80047f6:	6920      	ldr	r0, [r4, #16]
 80047f8:	f000 0002 	and.w	r0, r0, #2
 80047fc:	4303      	orrs	r3, r0
 80047fe:	6960      	ldr	r0, [r4, #20]
 8004800:	f000 0001 	and.w	r0, r0, #1
 8004804:	4303      	orrs	r3, r0
 8004806:	f402 7000 	and.w	r0, r2, #512	@ 0x200
 800480a:	4303      	orrs	r3, r0
 800480c:	69e0      	ldr	r0, [r4, #28]
 800480e:	f000 0038 	and.w	r0, r0, #56	@ 0x38
 8004812:	4303      	orrs	r3, r0
 8004814:	6a20      	ldr	r0, [r4, #32]
 8004816:	f000 0080 	and.w	r0, r0, #128	@ 0x80
 800481a:	4303      	orrs	r3, r0
 800481c:	6aa0      	ldr	r0, [r4, #40]	@ 0x28
 800481e:	f400 5000 	and.w	r0, r0, #8192	@ 0x2000
 8004822:	4303      	orrs	r3, r0
 8004824:	600b      	str	r3, [r1, #0]
 8004826:	6a63      	ldr	r3, [r4, #36]	@ 0x24
 8004828:	0c12      	lsrs	r2, r2, #16
 800482a:	f003 0310 	and.w	r3, r3, #16
 800482e:	f002 0204 	and.w	r2, r2, #4
 8004832:	431a      	orrs	r2, r3
 8004834:	604a      	str	r2, [r1, #4]
 8004836:	69cb      	ldr	r3, [r1, #28]
 8004838:	f423 6300 	bic.w	r3, r3, #2048	@ 0x800
 800483c:	61cb      	str	r3, [r1, #28]
 800483e:	2000      	movs	r0, #0
 8004840:	2301      	movs	r3, #1
 8004842:	6560      	str	r0, [r4, #84]	@ 0x54
 8004844:	f884 3051 	strb.w	r3, [r4, #81]	@ 0x51
 8004848:	bd10      	pop	{r4, pc}
 800484a:	2300      	movs	r3, #0
 800484c:	61e3      	str	r3, [r4, #28]
 800484e:	e7b2      	b.n	80047b6 <HAL_SPI_Init+0x156>
 8004850:	4a0a      	ldr	r2, [pc, #40]	@ (800487c <HAL_SPI_Init+0x21c>)
 8004852:	e004      	b.n	800485e <HAL_SPI_Init+0x1fe>
 8004854:	3b20      	subs	r3, #32
 8004856:	2b18      	cmp	r3, #24
 8004858:	d896      	bhi.n	8004788 <HAL_SPI_Init+0x128>
 800485a:	f04f 3201 	mov.w	r2, #16843009	@ 0x1010101
 800485e:	fa22 f303 	lsr.w	r3, r2, r3
 8004862:	07db      	lsls	r3, r3, #31
 8004864:	d590      	bpl.n	8004788 <HAL_SPI_Init+0x128>
 8004866:	2300      	movs	r3, #0
 8004868:	e9c4 3304 	strd	r3, r3, [r4, #16]
 800486c:	e7a3      	b.n	80047b6 <HAL_SPI_Init+0x156>
 800486e:	2001      	movs	r0, #1
 8004870:	e7ea      	b.n	8004848 <HAL_SPI_Init+0x1e8>
 8004872:	bf00      	nop
 8004874:	40013000 	.word	0x40013000
 8004878:	0800aac0 	.word	0x0800aac0
 800487c:	01010100 	.word	0x01010100

08004880 <HAL_SPI_Transmit>:
 8004880:	e92d 43f7 	stmdb	sp!, {r0, r1, r2, r4, r5, r6, r7, r8, r9, lr}
 8004884:	461f      	mov	r7, r3
 8004886:	6883      	ldr	r3, [r0, #8]
 8004888:	f433 4300 	bics.w	r3, r3, #32768	@ 0x8000
 800488c:	4604      	mov	r4, r0
 800488e:	460d      	mov	r5, r1
 8004890:	4690      	mov	r8, r2
 8004892:	d004      	beq.n	800489e <HAL_SPI_Transmit+0x1e>
 8004894:	4855      	ldr	r0, [pc, #340]	@ (80049ec <HAL_SPI_Transmit+0x16c>)
 8004896:	f44f 7142 	mov.w	r1, #776	@ 0x308
 800489a:	f7fc fbe9 	bl	8001070 <assert_failed>
 800489e:	f894 3050 	ldrb.w	r3, [r4, #80]	@ 0x50
 80048a2:	2b01      	cmp	r3, #1
 80048a4:	f000 80a0 	beq.w	80049e8 <HAL_SPI_Transmit+0x168>
 80048a8:	2301      	movs	r3, #1
 80048aa:	f884 3050 	strb.w	r3, [r4, #80]	@ 0x50
 80048ae:	f7fc fefd 	bl	80016ac <HAL_GetTick>
 80048b2:	f894 3051 	ldrb.w	r3, [r4, #81]	@ 0x51
 80048b6:	2b01      	cmp	r3, #1
 80048b8:	4681      	mov	r9, r0
 80048ba:	b2d8      	uxtb	r0, r3
 80048bc:	f040 8092 	bne.w	80049e4 <HAL_SPI_Transmit+0x164>
 80048c0:	2d00      	cmp	r5, #0
 80048c2:	d061      	beq.n	8004988 <HAL_SPI_Transmit+0x108>
 80048c4:	f1b8 0f00 	cmp.w	r8, #0
 80048c8:	d05e      	beq.n	8004988 <HAL_SPI_Transmit+0x108>
 80048ca:	2303      	movs	r3, #3
 80048cc:	f884 3051 	strb.w	r3, [r4, #81]	@ 0x51
 80048d0:	2300      	movs	r3, #0
 80048d2:	6563      	str	r3, [r4, #84]	@ 0x54
 80048d4:	e9c4 3310 	strd	r3, r3, [r4, #64]	@ 0x40
 80048d8:	f8a4 8036 	strh.w	r8, [r4, #54]	@ 0x36
 80048dc:	63a3      	str	r3, [r4, #56]	@ 0x38
 80048de:	87a3      	strh	r3, [r4, #60]	@ 0x3c
 80048e0:	87e3      	strh	r3, [r4, #62]	@ 0x3e
 80048e2:	68a3      	ldr	r3, [r4, #8]
 80048e4:	6826      	ldr	r6, [r4, #0]
 80048e6:	6325      	str	r5, [r4, #48]	@ 0x30
 80048e8:	f5b3 4f00 	cmp.w	r3, #32768	@ 0x8000
 80048ec:	f8a4 8034 	strh.w	r8, [r4, #52]	@ 0x34
 80048f0:	d107      	bne.n	8004902 <HAL_SPI_Transmit+0x82>
 80048f2:	6833      	ldr	r3, [r6, #0]
 80048f4:	f023 0340 	bic.w	r3, r3, #64	@ 0x40
 80048f8:	6033      	str	r3, [r6, #0]
 80048fa:	6833      	ldr	r3, [r6, #0]
 80048fc:	f443 4380 	orr.w	r3, r3, #16384	@ 0x4000
 8004900:	6033      	str	r3, [r6, #0]
 8004902:	6833      	ldr	r3, [r6, #0]
 8004904:	68e2      	ldr	r2, [r4, #12]
 8004906:	065b      	lsls	r3, r3, #25
 8004908:	bf5e      	ittt	pl
 800490a:	6833      	ldrpl	r3, [r6, #0]
 800490c:	f043 0340 	orrpl.w	r3, r3, #64	@ 0x40
 8004910:	6033      	strpl	r3, [r6, #0]
 8004912:	f5b2 6f00 	cmp.w	r2, #2048	@ 0x800
 8004916:	6863      	ldr	r3, [r4, #4]
 8004918:	d13f      	bne.n	800499a <HAL_SPI_Transmit+0x11a>
 800491a:	b113      	cbz	r3, 8004922 <HAL_SPI_Transmit+0xa2>
 800491c:	f1b8 0f01 	cmp.w	r8, #1
 8004920:	d107      	bne.n	8004932 <HAL_SPI_Transmit+0xb2>
 8004922:	f835 3b02 	ldrh.w	r3, [r5], #2
 8004926:	60f3      	str	r3, [r6, #12]
 8004928:	6325      	str	r5, [r4, #48]	@ 0x30
 800492a:	8ee3      	ldrh	r3, [r4, #54]	@ 0x36
 800492c:	3b01      	subs	r3, #1
 800492e:	b29b      	uxth	r3, r3
 8004930:	86e3      	strh	r3, [r4, #54]	@ 0x36
 8004932:	8ee3      	ldrh	r3, [r4, #54]	@ 0x36
 8004934:	b29b      	uxth	r3, r3
 8004936:	b9a3      	cbnz	r3, 8004962 <HAL_SPI_Transmit+0xe2>
 8004938:	464a      	mov	r2, r9
 800493a:	4639      	mov	r1, r7
 800493c:	4620      	mov	r0, r4
 800493e:	f7ff fe63 	bl	8004608 <SPI_EndRxTxTransaction>
 8004942:	2800      	cmp	r0, #0
 8004944:	d14b      	bne.n	80049de <HAL_SPI_Transmit+0x15e>
 8004946:	68a3      	ldr	r3, [r4, #8]
 8004948:	b933      	cbnz	r3, 8004958 <HAL_SPI_Transmit+0xd8>
 800494a:	9301      	str	r3, [sp, #4]
 800494c:	6823      	ldr	r3, [r4, #0]
 800494e:	68da      	ldr	r2, [r3, #12]
 8004950:	9201      	str	r2, [sp, #4]
 8004952:	689b      	ldr	r3, [r3, #8]
 8004954:	9301      	str	r3, [sp, #4]
 8004956:	9b01      	ldr	r3, [sp, #4]
 8004958:	6d60      	ldr	r0, [r4, #84]	@ 0x54
 800495a:	3800      	subs	r0, #0
 800495c:	bf18      	it	ne
 800495e:	2001      	movne	r0, #1
 8004960:	e012      	b.n	8004988 <HAL_SPI_Transmit+0x108>
 8004962:	6822      	ldr	r2, [r4, #0]
 8004964:	6893      	ldr	r3, [r2, #8]
 8004966:	0798      	lsls	r0, r3, #30
 8004968:	d505      	bpl.n	8004976 <HAL_SPI_Transmit+0xf6>
 800496a:	6b23      	ldr	r3, [r4, #48]	@ 0x30
 800496c:	f833 1b02 	ldrh.w	r1, [r3], #2
 8004970:	60d1      	str	r1, [r2, #12]
 8004972:	6323      	str	r3, [r4, #48]	@ 0x30
 8004974:	e7d9      	b.n	800492a <HAL_SPI_Transmit+0xaa>
 8004976:	f7fc fe99 	bl	80016ac <HAL_GetTick>
 800497a:	eba0 0009 	sub.w	r0, r0, r9
 800497e:	42b8      	cmp	r0, r7
 8004980:	d3d7      	bcc.n	8004932 <HAL_SPI_Transmit+0xb2>
 8004982:	1c79      	adds	r1, r7, #1
 8004984:	d0d5      	beq.n	8004932 <HAL_SPI_Transmit+0xb2>
 8004986:	2003      	movs	r0, #3
 8004988:	2301      	movs	r3, #1
 800498a:	f884 3051 	strb.w	r3, [r4, #81]	@ 0x51
 800498e:	2300      	movs	r3, #0
 8004990:	f884 3050 	strb.w	r3, [r4, #80]	@ 0x50
 8004994:	b003      	add	sp, #12
 8004996:	e8bd 83f0 	ldmia.w	sp!, {r4, r5, r6, r7, r8, r9, pc}
 800499a:	b113      	cbz	r3, 80049a2 <HAL_SPI_Transmit+0x122>
 800499c:	f1b8 0f01 	cmp.w	r8, #1
 80049a0:	d108      	bne.n	80049b4 <HAL_SPI_Transmit+0x134>
 80049a2:	782b      	ldrb	r3, [r5, #0]
 80049a4:	7333      	strb	r3, [r6, #12]
 80049a6:	6b23      	ldr	r3, [r4, #48]	@ 0x30
 80049a8:	3301      	adds	r3, #1
 80049aa:	6323      	str	r3, [r4, #48]	@ 0x30
 80049ac:	8ee3      	ldrh	r3, [r4, #54]	@ 0x36
 80049ae:	3b01      	subs	r3, #1
 80049b0:	b29b      	uxth	r3, r3
 80049b2:	86e3      	strh	r3, [r4, #54]	@ 0x36
 80049b4:	8ee3      	ldrh	r3, [r4, #54]	@ 0x36
 80049b6:	b29b      	uxth	r3, r3
 80049b8:	2b00      	cmp	r3, #0
 80049ba:	d0bd      	beq.n	8004938 <HAL_SPI_Transmit+0xb8>
 80049bc:	6823      	ldr	r3, [r4, #0]
 80049be:	689a      	ldr	r2, [r3, #8]
 80049c0:	0792      	lsls	r2, r2, #30
 80049c2:	d503      	bpl.n	80049cc <HAL_SPI_Transmit+0x14c>
 80049c4:	6b22      	ldr	r2, [r4, #48]	@ 0x30
 80049c6:	7812      	ldrb	r2, [r2, #0]
 80049c8:	731a      	strb	r2, [r3, #12]
 80049ca:	e7ec      	b.n	80049a6 <HAL_SPI_Transmit+0x126>
 80049cc:	f7fc fe6e 	bl	80016ac <HAL_GetTick>
 80049d0:	eba0 0009 	sub.w	r0, r0, r9
 80049d4:	42b8      	cmp	r0, r7
 80049d6:	d3ed      	bcc.n	80049b4 <HAL_SPI_Transmit+0x134>
 80049d8:	1c7b      	adds	r3, r7, #1
 80049da:	d0eb      	beq.n	80049b4 <HAL_SPI_Transmit+0x134>
 80049dc:	e7d3      	b.n	8004986 <HAL_SPI_Transmit+0x106>
 80049de:	2320      	movs	r3, #32
 80049e0:	6563      	str	r3, [r4, #84]	@ 0x54
 80049e2:	e7b0      	b.n	8004946 <HAL_SPI_Transmit+0xc6>
 80049e4:	2002      	movs	r0, #2
 80049e6:	e7cf      	b.n	8004988 <HAL_SPI_Transmit+0x108>
 80049e8:	2002      	movs	r0, #2
 80049ea:	e7d3      	b.n	8004994 <HAL_SPI_Transmit+0x114>
 80049ec:	0800aac0 	.word	0x0800aac0

080049f0 <HAL_SPI_GetState>:
 80049f0:	f890 0051 	ldrb.w	r0, [r0, #81]	@ 0x51
 80049f4:	4770      	bx	lr

080049f6 <HAL_TIM_Base_MspInit>:
 80049f6:	4770      	bx	lr

080049f8 <HAL_TIM_Base_Start_IT>:
 80049f8:	6803      	ldr	r3, [r0, #0]
 80049fa:	4a2a      	ldr	r2, [pc, #168]	@ (8004aa4 <HAL_TIM_Base_Start_IT+0xac>)
 80049fc:	4293      	cmp	r3, r2
 80049fe:	b510      	push	{r4, lr}
 8004a00:	4604      	mov	r4, r0
 8004a02:	d01f      	beq.n	8004a44 <HAL_TIM_Base_Start_IT+0x4c>
 8004a04:	f1b3 4f80 	cmp.w	r3, #1073741824	@ 0x40000000
 8004a08:	d01c      	beq.n	8004a44 <HAL_TIM_Base_Start_IT+0x4c>
 8004a0a:	f5a2 427c 	sub.w	r2, r2, #64512	@ 0xfc00
 8004a0e:	4293      	cmp	r3, r2
 8004a10:	d018      	beq.n	8004a44 <HAL_TIM_Base_Start_IT+0x4c>
 8004a12:	f502 6280 	add.w	r2, r2, #1024	@ 0x400
 8004a16:	4293      	cmp	r3, r2
 8004a18:	d014      	beq.n	8004a44 <HAL_TIM_Base_Start_IT+0x4c>
 8004a1a:	f502 6280 	add.w	r2, r2, #1024	@ 0x400
 8004a1e:	4293      	cmp	r3, r2
 8004a20:	d010      	beq.n	8004a44 <HAL_TIM_Base_Start_IT+0x4c>
 8004a22:	f502 329a 	add.w	r2, r2, #78848	@ 0x13400
 8004a26:	4293      	cmp	r3, r2
 8004a28:	d00c      	beq.n	8004a44 <HAL_TIM_Base_Start_IT+0x4c>
 8004a2a:	f502 6280 	add.w	r2, r2, #1024	@ 0x400
 8004a2e:	4293      	cmp	r3, r2
 8004a30:	d008      	beq.n	8004a44 <HAL_TIM_Base_Start_IT+0x4c>
 8004a32:	f502 6280 	add.w	r2, r2, #1024	@ 0x400
 8004a36:	4293      	cmp	r3, r2
 8004a38:	d004      	beq.n	8004a44 <HAL_TIM_Base_Start_IT+0x4c>
 8004a3a:	481b      	ldr	r0, [pc, #108]	@ (8004aa8 <HAL_TIM_Base_Start_IT+0xb0>)
 8004a3c:	f240 11cf 	movw	r1, #463	@ 0x1cf
 8004a40:	f7fc fb16 	bl	8001070 <assert_failed>
 8004a44:	f894 303d 	ldrb.w	r3, [r4, #61]	@ 0x3d
 8004a48:	2b01      	cmp	r3, #1
 8004a4a:	d128      	bne.n	8004a9e <HAL_TIM_Base_Start_IT+0xa6>
 8004a4c:	2302      	movs	r3, #2
 8004a4e:	f884 303d 	strb.w	r3, [r4, #61]	@ 0x3d
 8004a52:	6823      	ldr	r3, [r4, #0]
 8004a54:	68da      	ldr	r2, [r3, #12]
 8004a56:	f042 0201 	orr.w	r2, r2, #1
 8004a5a:	60da      	str	r2, [r3, #12]
 8004a5c:	4a11      	ldr	r2, [pc, #68]	@ (8004aa4 <HAL_TIM_Base_Start_IT+0xac>)
 8004a5e:	4293      	cmp	r3, r2
 8004a60:	d012      	beq.n	8004a88 <HAL_TIM_Base_Start_IT+0x90>
 8004a62:	f1b3 4f80 	cmp.w	r3, #1073741824	@ 0x40000000
 8004a66:	d00f      	beq.n	8004a88 <HAL_TIM_Base_Start_IT+0x90>
 8004a68:	f5a2 427c 	sub.w	r2, r2, #64512	@ 0xfc00
 8004a6c:	4293      	cmp	r3, r2
 8004a6e:	d00b      	beq.n	8004a88 <HAL_TIM_Base_Start_IT+0x90>
 8004a70:	f502 6280 	add.w	r2, r2, #1024	@ 0x400
 8004a74:	4293      	cmp	r3, r2
 8004a76:	d007      	beq.n	8004a88 <HAL_TIM_Base_Start_IT+0x90>
 8004a78:	f502 6280 	add.w	r2, r2, #1024	@ 0x400
 8004a7c:	4293      	cmp	r3, r2
 8004a7e:	d003      	beq.n	8004a88 <HAL_TIM_Base_Start_IT+0x90>
 8004a80:	f502 329a 	add.w	r2, r2, #78848	@ 0x13400
 8004a84:	4293      	cmp	r3, r2
 8004a86:	d104      	bne.n	8004a92 <HAL_TIM_Base_Start_IT+0x9a>
 8004a88:	689a      	ldr	r2, [r3, #8]
 8004a8a:	f002 0207 	and.w	r2, r2, #7
 8004a8e:	2a06      	cmp	r2, #6
 8004a90:	d003      	beq.n	8004a9a <HAL_TIM_Base_Start_IT+0xa2>
 8004a92:	681a      	ldr	r2, [r3, #0]
 8004a94:	f042 0201 	orr.w	r2, r2, #1
 8004a98:	601a      	str	r2, [r3, #0]
 8004a9a:	2000      	movs	r0, #0
 8004a9c:	bd10      	pop	{r4, pc}
 8004a9e:	2001      	movs	r0, #1
 8004aa0:	e7fc      	b.n	8004a9c <HAL_TIM_Base_Start_IT+0xa4>
 8004aa2:	bf00      	nop
 8004aa4:	40010000 	.word	0x40010000
 8004aa8:	0800ab29 	.word	0x0800ab29

08004aac <HAL_TIM_OC_DelayElapsedCallback>:
 8004aac:	4770      	bx	lr

08004aae <HAL_TIM_IC_CaptureCallback>:
 8004aae:	4770      	bx	lr

08004ab0 <HAL_TIM_PWM_PulseFinishedCallback>:
 8004ab0:	4770      	bx	lr

08004ab2 <HAL_TIM_TriggerCallback>:
 8004ab2:	4770      	bx	lr

08004ab4 <HAL_TIM_IRQHandler>:
 8004ab4:	6803      	ldr	r3, [r0, #0]
 8004ab6:	691a      	ldr	r2, [r3, #16]
 8004ab8:	0791      	lsls	r1, r2, #30
 8004aba:	b510      	push	{r4, lr}
 8004abc:	4604      	mov	r4, r0
 8004abe:	d50e      	bpl.n	8004ade <HAL_TIM_IRQHandler+0x2a>
 8004ac0:	68da      	ldr	r2, [r3, #12]
 8004ac2:	0792      	lsls	r2, r2, #30
 8004ac4:	d50b      	bpl.n	8004ade <HAL_TIM_IRQHandler+0x2a>
 8004ac6:	f06f 0202 	mvn.w	r2, #2
 8004aca:	611a      	str	r2, [r3, #16]
 8004acc:	2201      	movs	r2, #1
 8004ace:	7702      	strb	r2, [r0, #28]
 8004ad0:	699b      	ldr	r3, [r3, #24]
 8004ad2:	079b      	lsls	r3, r3, #30
 8004ad4:	d077      	beq.n	8004bc6 <HAL_TIM_IRQHandler+0x112>
 8004ad6:	f7ff ffea 	bl	8004aae <HAL_TIM_IC_CaptureCallback>
 8004ada:	2300      	movs	r3, #0
 8004adc:	7723      	strb	r3, [r4, #28]
 8004ade:	6823      	ldr	r3, [r4, #0]
 8004ae0:	691a      	ldr	r2, [r3, #16]
 8004ae2:	0750      	lsls	r0, r2, #29
 8004ae4:	d510      	bpl.n	8004b08 <HAL_TIM_IRQHandler+0x54>
 8004ae6:	68da      	ldr	r2, [r3, #12]
 8004ae8:	0751      	lsls	r1, r2, #29
 8004aea:	d50d      	bpl.n	8004b08 <HAL_TIM_IRQHandler+0x54>
 8004aec:	f06f 0204 	mvn.w	r2, #4
 8004af0:	611a      	str	r2, [r3, #16]
 8004af2:	2202      	movs	r2, #2
 8004af4:	7722      	strb	r2, [r4, #28]
 8004af6:	699b      	ldr	r3, [r3, #24]
 8004af8:	f413 7f40 	tst.w	r3, #768	@ 0x300
 8004afc:	4620      	mov	r0, r4
 8004afe:	d068      	beq.n	8004bd2 <HAL_TIM_IRQHandler+0x11e>
 8004b00:	f7ff ffd5 	bl	8004aae <HAL_TIM_IC_CaptureCallback>
 8004b04:	2300      	movs	r3, #0
 8004b06:	7723      	strb	r3, [r4, #28]
 8004b08:	6823      	ldr	r3, [r4, #0]
 8004b0a:	691a      	ldr	r2, [r3, #16]
 8004b0c:	0712      	lsls	r2, r2, #28
 8004b0e:	d50f      	bpl.n	8004b30 <HAL_TIM_IRQHandler+0x7c>
 8004b10:	68da      	ldr	r2, [r3, #12]
 8004b12:	0710      	lsls	r0, r2, #28
 8004b14:	d50c      	bpl.n	8004b30 <HAL_TIM_IRQHandler+0x7c>
 8004b16:	f06f 0208 	mvn.w	r2, #8
 8004b1a:	611a      	str	r2, [r3, #16]
 8004b1c:	2204      	movs	r2, #4
 8004b1e:	7722      	strb	r2, [r4, #28]
 8004b20:	69db      	ldr	r3, [r3, #28]
 8004b22:	0799      	lsls	r1, r3, #30
 8004b24:	4620      	mov	r0, r4
 8004b26:	d05a      	beq.n	8004bde <HAL_TIM_IRQHandler+0x12a>
 8004b28:	f7ff ffc1 	bl	8004aae <HAL_TIM_IC_CaptureCallback>
 8004b2c:	2300      	movs	r3, #0
 8004b2e:	7723      	strb	r3, [r4, #28]
 8004b30:	6823      	ldr	r3, [r4, #0]
 8004b32:	691a      	ldr	r2, [r3, #16]
 8004b34:	06d2      	lsls	r2, r2, #27
 8004b36:	d510      	bpl.n	8004b5a <HAL_TIM_IRQHandler+0xa6>
 8004b38:	68da      	ldr	r2, [r3, #12]
 8004b3a:	06d0      	lsls	r0, r2, #27
 8004b3c:	d50d      	bpl.n	8004b5a <HAL_TIM_IRQHandler+0xa6>
 8004b3e:	f06f 0210 	mvn.w	r2, #16
 8004b42:	611a      	str	r2, [r3, #16]
 8004b44:	2208      	movs	r2, #8
 8004b46:	7722      	strb	r2, [r4, #28]
 8004b48:	69db      	ldr	r3, [r3, #28]
 8004b4a:	f413 7f40 	tst.w	r3, #768	@ 0x300
 8004b4e:	4620      	mov	r0, r4
 8004b50:	d04b      	beq.n	8004bea <HAL_TIM_IRQHandler+0x136>
 8004b52:	f7ff ffac 	bl	8004aae <HAL_TIM_IC_CaptureCallback>
 8004b56:	2300      	movs	r3, #0
 8004b58:	7723      	strb	r3, [r4, #28]
 8004b5a:	6823      	ldr	r3, [r4, #0]
 8004b5c:	691a      	ldr	r2, [r3, #16]
 8004b5e:	07d1      	lsls	r1, r2, #31
 8004b60:	d508      	bpl.n	8004b74 <HAL_TIM_IRQHandler+0xc0>
 8004b62:	68da      	ldr	r2, [r3, #12]
 8004b64:	07d2      	lsls	r2, r2, #31
 8004b66:	d505      	bpl.n	8004b74 <HAL_TIM_IRQHandler+0xc0>
 8004b68:	f06f 0201 	mvn.w	r2, #1
 8004b6c:	611a      	str	r2, [r3, #16]
 8004b6e:	4620      	mov	r0, r4
 8004b70:	f7fc fa72 	bl	8001058 <HAL_TIM_PeriodElapsedCallback>
 8004b74:	6823      	ldr	r3, [r4, #0]
 8004b76:	691a      	ldr	r2, [r3, #16]
 8004b78:	0610      	lsls	r0, r2, #24
 8004b7a:	d508      	bpl.n	8004b8e <HAL_TIM_IRQHandler+0xda>
 8004b7c:	68da      	ldr	r2, [r3, #12]
 8004b7e:	0611      	lsls	r1, r2, #24
 8004b80:	d505      	bpl.n	8004b8e <HAL_TIM_IRQHandler+0xda>
 8004b82:	f06f 0280 	mvn.w	r2, #128	@ 0x80
 8004b86:	611a      	str	r2, [r3, #16]
 8004b88:	4620      	mov	r0, r4
 8004b8a:	f000 f8ec 	bl	8004d66 <HAL_TIMEx_BreakCallback>
 8004b8e:	6823      	ldr	r3, [r4, #0]
 8004b90:	691a      	ldr	r2, [r3, #16]
 8004b92:	0652      	lsls	r2, r2, #25
 8004b94:	d508      	bpl.n	8004ba8 <HAL_TIM_IRQHandler+0xf4>
 8004b96:	68da      	ldr	r2, [r3, #12]
 8004b98:	0650      	lsls	r0, r2, #25
 8004b9a:	d505      	bpl.n	8004ba8 <HAL_TIM_IRQHandler+0xf4>
 8004b9c:	f06f 0240 	mvn.w	r2, #64	@ 0x40
 8004ba0:	611a      	str	r2, [r3, #16]
 8004ba2:	4620      	mov	r0, r4
 8004ba4:	f7ff ff85 	bl	8004ab2 <HAL_TIM_TriggerCallback>
 8004ba8:	6823      	ldr	r3, [r4, #0]
 8004baa:	691a      	ldr	r2, [r3, #16]
 8004bac:	0691      	lsls	r1, r2, #26
 8004bae:	d522      	bpl.n	8004bf6 <HAL_TIM_IRQHandler+0x142>
 8004bb0:	68da      	ldr	r2, [r3, #12]
 8004bb2:	0692      	lsls	r2, r2, #26
 8004bb4:	d51f      	bpl.n	8004bf6 <HAL_TIM_IRQHandler+0x142>
 8004bb6:	f06f 0220 	mvn.w	r2, #32
 8004bba:	4620      	mov	r0, r4
 8004bbc:	611a      	str	r2, [r3, #16]
 8004bbe:	e8bd 4010 	ldmia.w	sp!, {r4, lr}
 8004bc2:	f000 b8cf 	b.w	8004d64 <HAL_TIMEx_CommutCallback>
 8004bc6:	f7ff ff71 	bl	8004aac <HAL_TIM_OC_DelayElapsedCallback>
 8004bca:	4620      	mov	r0, r4
 8004bcc:	f7ff ff70 	bl	8004ab0 <HAL_TIM_PWM_PulseFinishedCallback>
 8004bd0:	e783      	b.n	8004ada <HAL_TIM_IRQHandler+0x26>
 8004bd2:	f7ff ff6b 	bl	8004aac <HAL_TIM_OC_DelayElapsedCallback>
 8004bd6:	4620      	mov	r0, r4
 8004bd8:	f7ff ff6a 	bl	8004ab0 <HAL_TIM_PWM_PulseFinishedCallback>
 8004bdc:	e792      	b.n	8004b04 <HAL_TIM_IRQHandler+0x50>
 8004bde:	f7ff ff65 	bl	8004aac <HAL_TIM_OC_DelayElapsedCallback>
 8004be2:	4620      	mov	r0, r4
 8004be4:	f7ff ff64 	bl	8004ab0 <HAL_TIM_PWM_PulseFinishedCallback>
 8004be8:	e7a0      	b.n	8004b2c <HAL_TIM_IRQHandler+0x78>
 8004bea:	f7ff ff5f 	bl	8004aac <HAL_TIM_OC_DelayElapsedCallback>
 8004bee:	4620      	mov	r0, r4
 8004bf0:	f7ff ff5e 	bl	8004ab0 <HAL_TIM_PWM_PulseFinishedCallback>
 8004bf4:	e7af      	b.n	8004b56 <HAL_TIM_IRQHandler+0xa2>
 8004bf6:	bd10      	pop	{r4, pc}

08004bf8 <TIM_Base_SetConfig>:
 8004bf8:	4a1b      	ldr	r2, [pc, #108]	@ (8004c68 <TIM_Base_SetConfig+0x70>)
 8004bfa:	6803      	ldr	r3, [r0, #0]
 8004bfc:	4290      	cmp	r0, r2
 8004bfe:	d00e      	beq.n	8004c1e <TIM_Base_SetConfig+0x26>
 8004c00:	f1b0 4f80 	cmp.w	r0, #1073741824	@ 0x40000000
 8004c04:	d00b      	beq.n	8004c1e <TIM_Base_SetConfig+0x26>
 8004c06:	f5a2 427c 	sub.w	r2, r2, #64512	@ 0xfc00
 8004c0a:	4290      	cmp	r0, r2
 8004c0c:	d007      	beq.n	8004c1e <TIM_Base_SetConfig+0x26>
 8004c0e:	f502 6280 	add.w	r2, r2, #1024	@ 0x400
 8004c12:	4290      	cmp	r0, r2
 8004c14:	d003      	beq.n	8004c1e <TIM_Base_SetConfig+0x26>
 8004c16:	f502 6280 	add.w	r2, r2, #1024	@ 0x400
 8004c1a:	4290      	cmp	r0, r2
 8004c1c:	d108      	bne.n	8004c30 <TIM_Base_SetConfig+0x38>
 8004c1e:	684a      	ldr	r2, [r1, #4]
 8004c20:	f023 0370 	bic.w	r3, r3, #112	@ 0x70
 8004c24:	4313      	orrs	r3, r2
 8004c26:	68ca      	ldr	r2, [r1, #12]
 8004c28:	f423 7340 	bic.w	r3, r3, #768	@ 0x300
 8004c2c:	4313      	orrs	r3, r2
 8004c2e:	e00a      	b.n	8004c46 <TIM_Base_SetConfig+0x4e>
 8004c30:	4a0e      	ldr	r2, [pc, #56]	@ (8004c6c <TIM_Base_SetConfig+0x74>)
 8004c32:	4290      	cmp	r0, r2
 8004c34:	d0f7      	beq.n	8004c26 <TIM_Base_SetConfig+0x2e>
 8004c36:	f502 6280 	add.w	r2, r2, #1024	@ 0x400
 8004c3a:	4290      	cmp	r0, r2
 8004c3c:	d0f3      	beq.n	8004c26 <TIM_Base_SetConfig+0x2e>
 8004c3e:	f502 6280 	add.w	r2, r2, #1024	@ 0x400
 8004c42:	4290      	cmp	r0, r2
 8004c44:	d0ef      	beq.n	8004c26 <TIM_Base_SetConfig+0x2e>
 8004c46:	694a      	ldr	r2, [r1, #20]
 8004c48:	f023 0380 	bic.w	r3, r3, #128	@ 0x80
 8004c4c:	4313      	orrs	r3, r2
 8004c4e:	6003      	str	r3, [r0, #0]
 8004c50:	688b      	ldr	r3, [r1, #8]
 8004c52:	62c3      	str	r3, [r0, #44]	@ 0x2c
 8004c54:	680b      	ldr	r3, [r1, #0]
 8004c56:	6283      	str	r3, [r0, #40]	@ 0x28
 8004c58:	4b03      	ldr	r3, [pc, #12]	@ (8004c68 <TIM_Base_SetConfig+0x70>)
 8004c5a:	4298      	cmp	r0, r3
 8004c5c:	bf04      	itt	eq
 8004c5e:	690b      	ldreq	r3, [r1, #16]
 8004c60:	6303      	streq	r3, [r0, #48]	@ 0x30
 8004c62:	2301      	movs	r3, #1
 8004c64:	6143      	str	r3, [r0, #20]
 8004c66:	4770      	bx	lr
 8004c68:	40010000 	.word	0x40010000
 8004c6c:	40014000 	.word	0x40014000

08004c70 <HAL_TIM_Base_Init>:
 8004c70:	b510      	push	{r4, lr}
 8004c72:	4604      	mov	r4, r0
 8004c74:	2800      	cmp	r0, #0
 8004c76:	d06f      	beq.n	8004d58 <HAL_TIM_Base_Init+0xe8>
 8004c78:	6803      	ldr	r3, [r0, #0]
 8004c7a:	4a38      	ldr	r2, [pc, #224]	@ (8004d5c <HAL_TIM_Base_Init+0xec>)
 8004c7c:	4293      	cmp	r3, r2
 8004c7e:	d01f      	beq.n	8004cc0 <HAL_TIM_Base_Init+0x50>
 8004c80:	f1b3 4f80 	cmp.w	r3, #1073741824	@ 0x40000000
 8004c84:	d01c      	beq.n	8004cc0 <HAL_TIM_Base_Init+0x50>
 8004c86:	f5a2 427c 	sub.w	r2, r2, #64512	@ 0xfc00
 8004c8a:	4293      	cmp	r3, r2
 8004c8c:	d018      	beq.n	8004cc0 <HAL_TIM_Base_Init+0x50>
 8004c8e:	f502 6280 	add.w	r2, r2, #1024	@ 0x400
 8004c92:	4293      	cmp	r3, r2
 8004c94:	d014      	beq.n	8004cc0 <HAL_TIM_Base_Init+0x50>
 8004c96:	f502 6280 	add.w	r2, r2, #1024	@ 0x400
 8004c9a:	4293      	cmp	r3, r2
 8004c9c:	d010      	beq.n	8004cc0 <HAL_TIM_Base_Init+0x50>
 8004c9e:	f502 329a 	add.w	r2, r2, #78848	@ 0x13400
 8004ca2:	4293      	cmp	r3, r2
 8004ca4:	d00c      	beq.n	8004cc0 <HAL_TIM_Base_Init+0x50>
 8004ca6:	f502 6280 	add.w	r2, r2, #1024	@ 0x400
 8004caa:	4293      	cmp	r3, r2
 8004cac:	d008      	beq.n	8004cc0 <HAL_TIM_Base_Init+0x50>
 8004cae:	f502 6280 	add.w	r2, r2, #1024	@ 0x400
 8004cb2:	4293      	cmp	r3, r2
 8004cb4:	d004      	beq.n	8004cc0 <HAL_TIM_Base_Init+0x50>
 8004cb6:	482a      	ldr	r0, [pc, #168]	@ (8004d60 <HAL_TIM_Base_Init+0xf0>)
 8004cb8:	f240 1113 	movw	r1, #275	@ 0x113
 8004cbc:	f7fc f9d8 	bl	8001070 <assert_failed>
 8004cc0:	68a3      	ldr	r3, [r4, #8]
 8004cc2:	f033 0210 	bics.w	r2, r3, #16
 8004cc6:	d00a      	beq.n	8004cde <HAL_TIM_Base_Init+0x6e>
 8004cc8:	f023 0240 	bic.w	r2, r3, #64	@ 0x40
 8004ccc:	2a20      	cmp	r2, #32
 8004cce:	d006      	beq.n	8004cde <HAL_TIM_Base_Init+0x6e>
 8004cd0:	2b40      	cmp	r3, #64	@ 0x40
 8004cd2:	d004      	beq.n	8004cde <HAL_TIM_Base_Init+0x6e>
 8004cd4:	4822      	ldr	r0, [pc, #136]	@ (8004d60 <HAL_TIM_Base_Init+0xf0>)
 8004cd6:	f44f 718a 	mov.w	r1, #276	@ 0x114
 8004cda:	f7fc f9c9 	bl	8001070 <assert_failed>
 8004cde:	6923      	ldr	r3, [r4, #16]
 8004ce0:	f433 7280 	bics.w	r2, r3, #256	@ 0x100
 8004ce4:	d007      	beq.n	8004cf6 <HAL_TIM_Base_Init+0x86>
 8004ce6:	f5b3 7f00 	cmp.w	r3, #512	@ 0x200
 8004cea:	d004      	beq.n	8004cf6 <HAL_TIM_Base_Init+0x86>
 8004cec:	481c      	ldr	r0, [pc, #112]	@ (8004d60 <HAL_TIM_Base_Init+0xf0>)
 8004cee:	f240 1115 	movw	r1, #277	@ 0x115
 8004cf2:	f7fc f9bd 	bl	8001070 <assert_failed>
 8004cf6:	69a3      	ldr	r3, [r4, #24]
 8004cf8:	f033 0380 	bics.w	r3, r3, #128	@ 0x80
 8004cfc:	d004      	beq.n	8004d08 <HAL_TIM_Base_Init+0x98>
 8004cfe:	4818      	ldr	r0, [pc, #96]	@ (8004d60 <HAL_TIM_Base_Init+0xf0>)
 8004d00:	f44f 718b 	mov.w	r1, #278	@ 0x116
 8004d04:	f7fc f9b4 	bl	8001070 <assert_failed>
 8004d08:	f894 303d 	ldrb.w	r3, [r4, #61]	@ 0x3d
 8004d0c:	f003 02ff 	and.w	r2, r3, #255	@ 0xff
 8004d10:	b923      	cbnz	r3, 8004d1c <HAL_TIM_Base_Init+0xac>
 8004d12:	f884 203c 	strb.w	r2, [r4, #60]	@ 0x3c
 8004d16:	4620      	mov	r0, r4
 8004d18:	f7ff fe6d 	bl	80049f6 <HAL_TIM_Base_MspInit>
 8004d1c:	2302      	movs	r3, #2
 8004d1e:	6820      	ldr	r0, [r4, #0]
 8004d20:	f884 303d 	strb.w	r3, [r4, #61]	@ 0x3d
 8004d24:	1d21      	adds	r1, r4, #4
 8004d26:	f7ff ff67 	bl	8004bf8 <TIM_Base_SetConfig>
 8004d2a:	2301      	movs	r3, #1
 8004d2c:	f884 3046 	strb.w	r3, [r4, #70]	@ 0x46
 8004d30:	2000      	movs	r0, #0
 8004d32:	f884 303e 	strb.w	r3, [r4, #62]	@ 0x3e
 8004d36:	f884 303f 	strb.w	r3, [r4, #63]	@ 0x3f
 8004d3a:	f884 3040 	strb.w	r3, [r4, #64]	@ 0x40
 8004d3e:	f884 3041 	strb.w	r3, [r4, #65]	@ 0x41
 8004d42:	f884 3042 	strb.w	r3, [r4, #66]	@ 0x42
 8004d46:	f884 3043 	strb.w	r3, [r4, #67]	@ 0x43
 8004d4a:	f884 3044 	strb.w	r3, [r4, #68]	@ 0x44
 8004d4e:	f884 3045 	strb.w	r3, [r4, #69]	@ 0x45
 8004d52:	f884 303d 	strb.w	r3, [r4, #61]	@ 0x3d
 8004d56:	bd10      	pop	{r4, pc}
 8004d58:	2001      	movs	r0, #1
 8004d5a:	e7fc      	b.n	8004d56 <HAL_TIM_Base_Init+0xe6>
 8004d5c:	40010000 	.word	0x40010000
 8004d60:	0800ab29 	.word	0x0800ab29

08004d64 <HAL_TIMEx_CommutCallback>:
 8004d64:	4770      	bx	lr

08004d66 <HAL_TIMEx_BreakCallback>:
 8004d66:	4770      	bx	lr

08004d68 <UART_EndRxTransfer>:
 8004d68:	6802      	ldr	r2, [r0, #0]
 8004d6a:	f102 030c 	add.w	r3, r2, #12
 8004d6e:	e853 3f00 	ldrex	r3, [r3]
 8004d72:	f423 7390 	bic.w	r3, r3, #288	@ 0x120
 8004d76:	320c      	adds	r2, #12
 8004d78:	e842 3100 	strex	r1, r3, [r2]
 8004d7c:	6802      	ldr	r2, [r0, #0]
 8004d7e:	2900      	cmp	r1, #0
 8004d80:	d1f2      	bne.n	8004d68 <UART_EndRxTransfer>
 8004d82:	f102 0314 	add.w	r3, r2, #20
 8004d86:	e853 3f00 	ldrex	r3, [r3]
 8004d8a:	f023 0301 	bic.w	r3, r3, #1
 8004d8e:	f102 0c14 	add.w	ip, r2, #20
 8004d92:	e84c 3100 	strex	r1, r3, [ip]
 8004d96:	2900      	cmp	r1, #0
 8004d98:	d1f3      	bne.n	8004d82 <UART_EndRxTransfer+0x1a>
 8004d9a:	6b03      	ldr	r3, [r0, #48]	@ 0x30
 8004d9c:	2b01      	cmp	r3, #1
 8004d9e:	d10b      	bne.n	8004db8 <UART_EndRxTransfer+0x50>
 8004da0:	f102 030c 	add.w	r3, r2, #12
 8004da4:	e853 3f00 	ldrex	r3, [r3]
 8004da8:	f023 0310 	bic.w	r3, r3, #16
 8004dac:	f102 0c0c 	add.w	ip, r2, #12
 8004db0:	e84c 3100 	strex	r1, r3, [ip]
 8004db4:	2900      	cmp	r1, #0
 8004db6:	d1f3      	bne.n	8004da0 <UART_EndRxTransfer+0x38>
 8004db8:	2320      	movs	r3, #32
 8004dba:	f880 303e 	strb.w	r3, [r0, #62]	@ 0x3e
 8004dbe:	2300      	movs	r3, #0
 8004dc0:	6303      	str	r3, [r0, #48]	@ 0x30
 8004dc2:	4770      	bx	lr

08004dc4 <UART_SetConfig>:
 8004dc4:	b538      	push	{r3, r4, r5, lr}
 8004dc6:	6842      	ldr	r2, [r0, #4]
 8004dc8:	4b41      	ldr	r3, [pc, #260]	@ (8004ed0 <UART_SetConfig+0x10c>)
 8004dca:	429a      	cmp	r2, r3
 8004dcc:	4605      	mov	r5, r0
 8004dce:	d904      	bls.n	8004dda <UART_SetConfig+0x16>
 8004dd0:	4840      	ldr	r0, [pc, #256]	@ (8004ed4 <UART_SetConfig+0x110>)
 8004dd2:	f640 6161 	movw	r1, #3681	@ 0xe61
 8004dd6:	f7fc f94b 	bl	8001070 <assert_failed>
 8004dda:	68eb      	ldr	r3, [r5, #12]
 8004ddc:	f433 5300 	bics.w	r3, r3, #8192	@ 0x2000
 8004de0:	d004      	beq.n	8004dec <UART_SetConfig+0x28>
 8004de2:	483c      	ldr	r0, [pc, #240]	@ (8004ed4 <UART_SetConfig+0x110>)
 8004de4:	f640 6162 	movw	r1, #3682	@ 0xe62
 8004de8:	f7fc f942 	bl	8001070 <assert_failed>
 8004dec:	692b      	ldr	r3, [r5, #16]
 8004dee:	f433 6280 	bics.w	r2, r3, #1024	@ 0x400
 8004df2:	d007      	beq.n	8004e04 <UART_SetConfig+0x40>
 8004df4:	f5b3 6fc0 	cmp.w	r3, #1536	@ 0x600
 8004df8:	d004      	beq.n	8004e04 <UART_SetConfig+0x40>
 8004dfa:	4836      	ldr	r0, [pc, #216]	@ (8004ed4 <UART_SetConfig+0x110>)
 8004dfc:	f640 6163 	movw	r1, #3683	@ 0xe63
 8004e00:	f7fc f936 	bl	8001070 <assert_failed>
 8004e04:	696b      	ldr	r3, [r5, #20]
 8004e06:	f64f 72f3 	movw	r2, #65523	@ 0xfff3
 8004e0a:	4213      	tst	r3, r2
 8004e0c:	d100      	bne.n	8004e10 <UART_SetConfig+0x4c>
 8004e0e:	b923      	cbnz	r3, 8004e1a <UART_SetConfig+0x56>
 8004e10:	4830      	ldr	r0, [pc, #192]	@ (8004ed4 <UART_SetConfig+0x110>)
 8004e12:	f640 6164 	movw	r1, #3684	@ 0xe64
 8004e16:	f7fc f92b 	bl	8001070 <assert_failed>
 8004e1a:	682a      	ldr	r2, [r5, #0]
 8004e1c:	68e9      	ldr	r1, [r5, #12]
 8004e1e:	6913      	ldr	r3, [r2, #16]
 8004e20:	6928      	ldr	r0, [r5, #16]
 8004e22:	f423 5340 	bic.w	r3, r3, #12288	@ 0x3000
 8004e26:	430b      	orrs	r3, r1
 8004e28:	6113      	str	r3, [r2, #16]
 8004e2a:	68ab      	ldr	r3, [r5, #8]
 8004e2c:	68d1      	ldr	r1, [r2, #12]
 8004e2e:	4303      	orrs	r3, r0
 8004e30:	6968      	ldr	r0, [r5, #20]
 8004e32:	4303      	orrs	r3, r0
 8004e34:	69e8      	ldr	r0, [r5, #28]
 8004e36:	f421 4116 	bic.w	r1, r1, #38400	@ 0x9600
 8004e3a:	f021 010c 	bic.w	r1, r1, #12
 8004e3e:	4303      	orrs	r3, r0
 8004e40:	430b      	orrs	r3, r1
 8004e42:	60d3      	str	r3, [r2, #12]
 8004e44:	6953      	ldr	r3, [r2, #20]
 8004e46:	69a9      	ldr	r1, [r5, #24]
 8004e48:	f423 7340 	bic.w	r3, r3, #768	@ 0x300
 8004e4c:	430b      	orrs	r3, r1
 8004e4e:	6153      	str	r3, [r2, #20]
 8004e50:	4b21      	ldr	r3, [pc, #132]	@ (8004ed8 <UART_SetConfig+0x114>)
 8004e52:	429a      	cmp	r2, r3
 8004e54:	d003      	beq.n	8004e5e <UART_SetConfig+0x9a>
 8004e56:	f503 6380 	add.w	r3, r3, #1024	@ 0x400
 8004e5a:	429a      	cmp	r2, r3
 8004e5c:	d124      	bne.n	8004ea8 <UART_SetConfig+0xe4>
 8004e5e:	f7ff fb4d 	bl	80044fc <HAL_RCC_GetPCLK2Freq>
 8004e62:	69ea      	ldr	r2, [r5, #28]
 8004e64:	2119      	movs	r1, #25
 8004e66:	f5b2 4f00 	cmp.w	r2, #32768	@ 0x8000
 8004e6a:	e9d5 4300 	ldrd	r4, r3, [r5]
 8004e6e:	fba0 0101 	umull	r0, r1, r0, r1
 8004e72:	d11c      	bne.n	8004eae <UART_SetConfig+0xea>
 8004e74:	18da      	adds	r2, r3, r3
 8004e76:	f04f 0500 	mov.w	r5, #0
 8004e7a:	eb45 0305 	adc.w	r3, r5, r5
 8004e7e:	f7fb fa07 	bl	8000290 <__aeabi_uldivmod>
 8004e82:	2264      	movs	r2, #100	@ 0x64
 8004e84:	fbb0 f1f2 	udiv	r1, r0, r2
 8004e88:	fb02 0311 	mls	r3, r2, r1, r0
 8004e8c:	00db      	lsls	r3, r3, #3
 8004e8e:	3332      	adds	r3, #50	@ 0x32
 8004e90:	fbb3 f3f2 	udiv	r3, r3, r2
 8004e94:	f003 0207 	and.w	r2, r3, #7
 8004e98:	005b      	lsls	r3, r3, #1
 8004e9a:	eb02 1201 	add.w	r2, r2, r1, lsl #4
 8004e9e:	f403 73f8 	and.w	r3, r3, #496	@ 0x1f0
 8004ea2:	4413      	add	r3, r2
 8004ea4:	60a3      	str	r3, [r4, #8]
 8004ea6:	bd38      	pop	{r3, r4, r5, pc}
 8004ea8:	f7ff fb18 	bl	80044dc <HAL_RCC_GetPCLK1Freq>
 8004eac:	e7d9      	b.n	8004e62 <UART_SetConfig+0x9e>
 8004eae:	009a      	lsls	r2, r3, #2
 8004eb0:	0f9b      	lsrs	r3, r3, #30
 8004eb2:	f7fb f9ed 	bl	8000290 <__aeabi_uldivmod>
 8004eb6:	2264      	movs	r2, #100	@ 0x64
 8004eb8:	fbb0 f1f2 	udiv	r1, r0, r2
 8004ebc:	fb02 0311 	mls	r3, r2, r1, r0
 8004ec0:	011b      	lsls	r3, r3, #4
 8004ec2:	3332      	adds	r3, #50	@ 0x32
 8004ec4:	fbb3 f3f2 	udiv	r3, r3, r2
 8004ec8:	eb03 1301 	add.w	r3, r3, r1, lsl #4
 8004ecc:	e7ea      	b.n	8004ea4 <UART_SetConfig+0xe0>
 8004ece:	bf00      	nop
 8004ed0:	00a037a0 	.word	0x00a037a0
 8004ed4:	0800ab92 	.word	0x0800ab92
 8004ed8:	40011000 	.word	0x40011000

08004edc <HAL_UART_Init>:
 8004edc:	b510      	push	{r4, lr}
 8004ede:	4604      	mov	r4, r0
 8004ee0:	2800      	cmp	r0, #0
 8004ee2:	d064      	beq.n	8004fae <HAL_UART_Init+0xd2>
 8004ee4:	6981      	ldr	r1, [r0, #24]
 8004ee6:	6803      	ldr	r3, [r0, #0]
 8004ee8:	4a32      	ldr	r2, [pc, #200]	@ (8004fb4 <HAL_UART_Init+0xd8>)
 8004eea:	2900      	cmp	r1, #0
 8004eec:	d053      	beq.n	8004f96 <HAL_UART_Init+0xba>
 8004eee:	4293      	cmp	r3, r2
 8004ef0:	d00c      	beq.n	8004f0c <HAL_UART_Init+0x30>
 8004ef2:	f5a2 424c 	sub.w	r2, r2, #52224	@ 0xcc00
 8004ef6:	4293      	cmp	r3, r2
 8004ef8:	d008      	beq.n	8004f0c <HAL_UART_Init+0x30>
 8004efa:	f502 4250 	add.w	r2, r2, #53248	@ 0xd000
 8004efe:	4293      	cmp	r3, r2
 8004f00:	d004      	beq.n	8004f0c <HAL_UART_Init+0x30>
 8004f02:	482d      	ldr	r0, [pc, #180]	@ (8004fb8 <HAL_UART_Init+0xdc>)
 8004f04:	f240 1173 	movw	r1, #371	@ 0x173
 8004f08:	f7fc f8b2 	bl	8001070 <assert_failed>
 8004f0c:	69a3      	ldr	r3, [r4, #24]
 8004f0e:	f433 7340 	bics.w	r3, r3, #768	@ 0x300
 8004f12:	d004      	beq.n	8004f1e <HAL_UART_Init+0x42>
 8004f14:	f44f 71ba 	mov.w	r1, #372	@ 0x174
 8004f18:	4827      	ldr	r0, [pc, #156]	@ (8004fb8 <HAL_UART_Init+0xdc>)
 8004f1a:	f7fc f8a9 	bl	8001070 <assert_failed>
 8004f1e:	68a3      	ldr	r3, [r4, #8]
 8004f20:	f433 5380 	bics.w	r3, r3, #4096	@ 0x1000
 8004f24:	d004      	beq.n	8004f30 <HAL_UART_Init+0x54>
 8004f26:	4824      	ldr	r0, [pc, #144]	@ (8004fb8 <HAL_UART_Init+0xdc>)
 8004f28:	f44f 71bd 	mov.w	r1, #378	@ 0x17a
 8004f2c:	f7fc f8a0 	bl	8001070 <assert_failed>
 8004f30:	69e3      	ldr	r3, [r4, #28]
 8004f32:	f433 4300 	bics.w	r3, r3, #32768	@ 0x8000
 8004f36:	d004      	beq.n	8004f42 <HAL_UART_Init+0x66>
 8004f38:	481f      	ldr	r0, [pc, #124]	@ (8004fb8 <HAL_UART_Init+0xdc>)
 8004f3a:	f240 117b 	movw	r1, #379	@ 0x17b
 8004f3e:	f7fc f897 	bl	8001070 <assert_failed>
 8004f42:	f894 303d 	ldrb.w	r3, [r4, #61]	@ 0x3d
 8004f46:	f003 02ff 	and.w	r2, r3, #255	@ 0xff
 8004f4a:	b923      	cbnz	r3, 8004f56 <HAL_UART_Init+0x7a>
 8004f4c:	f884 203c 	strb.w	r2, [r4, #60]	@ 0x3c
 8004f50:	4620      	mov	r0, r4
 8004f52:	f7fc f9e5 	bl	8001320 <HAL_UART_MspInit>
 8004f56:	6822      	ldr	r2, [r4, #0]
 8004f58:	2324      	movs	r3, #36	@ 0x24
 8004f5a:	f884 303d 	strb.w	r3, [r4, #61]	@ 0x3d
 8004f5e:	68d3      	ldr	r3, [r2, #12]
 8004f60:	f423 5300 	bic.w	r3, r3, #8192	@ 0x2000
 8004f64:	60d3      	str	r3, [r2, #12]
 8004f66:	4620      	mov	r0, r4
 8004f68:	f7ff ff2c 	bl	8004dc4 <UART_SetConfig>
 8004f6c:	6823      	ldr	r3, [r4, #0]
 8004f6e:	691a      	ldr	r2, [r3, #16]
 8004f70:	f422 4290 	bic.w	r2, r2, #18432	@ 0x4800
 8004f74:	611a      	str	r2, [r3, #16]
 8004f76:	695a      	ldr	r2, [r3, #20]
 8004f78:	f022 022a 	bic.w	r2, r2, #42	@ 0x2a
 8004f7c:	615a      	str	r2, [r3, #20]
 8004f7e:	68da      	ldr	r2, [r3, #12]
 8004f80:	f442 5200 	orr.w	r2, r2, #8192	@ 0x2000
 8004f84:	60da      	str	r2, [r3, #12]
 8004f86:	2000      	movs	r0, #0
 8004f88:	2320      	movs	r3, #32
 8004f8a:	6420      	str	r0, [r4, #64]	@ 0x40
 8004f8c:	f884 303d 	strb.w	r3, [r4, #61]	@ 0x3d
 8004f90:	f884 303e 	strb.w	r3, [r4, #62]	@ 0x3e
 8004f94:	bd10      	pop	{r4, pc}
 8004f96:	4293      	cmp	r3, r2
 8004f98:	d0c1      	beq.n	8004f1e <HAL_UART_Init+0x42>
 8004f9a:	4a08      	ldr	r2, [pc, #32]	@ (8004fbc <HAL_UART_Init+0xe0>)
 8004f9c:	4293      	cmp	r3, r2
 8004f9e:	d0be      	beq.n	8004f1e <HAL_UART_Init+0x42>
 8004fa0:	f502 4250 	add.w	r2, r2, #53248	@ 0xd000
 8004fa4:	4293      	cmp	r3, r2
 8004fa6:	d0ba      	beq.n	8004f1e <HAL_UART_Init+0x42>
 8004fa8:	f44f 71bc 	mov.w	r1, #376	@ 0x178
 8004fac:	e7b4      	b.n	8004f18 <HAL_UART_Init+0x3c>
 8004fae:	2001      	movs	r0, #1
 8004fb0:	e7f0      	b.n	8004f94 <HAL_UART_Init+0xb8>
 8004fb2:	bf00      	nop
 8004fb4:	40011000 	.word	0x40011000
 8004fb8:	0800ab92 	.word	0x0800ab92
 8004fbc:	40004400 	.word	0x40004400

08004fc0 <HAL_UART_DeInit>:
 8004fc0:	b510      	push	{r4, lr}
 8004fc2:	4604      	mov	r4, r0
 8004fc4:	b328      	cbz	r0, 8005012 <HAL_UART_DeInit+0x52>
 8004fc6:	6803      	ldr	r3, [r0, #0]
 8004fc8:	4a13      	ldr	r2, [pc, #76]	@ (8005018 <HAL_UART_DeInit+0x58>)
 8004fca:	4293      	cmp	r3, r2
 8004fcc:	d00c      	beq.n	8004fe8 <HAL_UART_DeInit+0x28>
 8004fce:	f5a2 424c 	sub.w	r2, r2, #52224	@ 0xcc00
 8004fd2:	4293      	cmp	r3, r2
 8004fd4:	d008      	beq.n	8004fe8 <HAL_UART_DeInit+0x28>
 8004fd6:	f502 4250 	add.w	r2, r2, #53248	@ 0xd000
 8004fda:	4293      	cmp	r3, r2
 8004fdc:	d004      	beq.n	8004fe8 <HAL_UART_DeInit+0x28>
 8004fde:	480f      	ldr	r0, [pc, #60]	@ (800501c <HAL_UART_DeInit+0x5c>)
 8004fe0:	f240 21a2 	movw	r1, #674	@ 0x2a2
 8004fe4:	f7fc f844 	bl	8001070 <assert_failed>
 8004fe8:	6822      	ldr	r2, [r4, #0]
 8004fea:	2324      	movs	r3, #36	@ 0x24
 8004fec:	f884 303d 	strb.w	r3, [r4, #61]	@ 0x3d
 8004ff0:	68d3      	ldr	r3, [r2, #12]
 8004ff2:	f423 5300 	bic.w	r3, r3, #8192	@ 0x2000
 8004ff6:	4620      	mov	r0, r4
 8004ff8:	60d3      	str	r3, [r2, #12]
 8004ffa:	f7fc fa0d 	bl	8001418 <HAL_UART_MspDeInit>
 8004ffe:	2000      	movs	r0, #0
 8005000:	6420      	str	r0, [r4, #64]	@ 0x40
 8005002:	f884 003c 	strb.w	r0, [r4, #60]	@ 0x3c
 8005006:	f884 003d 	strb.w	r0, [r4, #61]	@ 0x3d
 800500a:	f884 003e 	strb.w	r0, [r4, #62]	@ 0x3e
 800500e:	6320      	str	r0, [r4, #48]	@ 0x30
 8005010:	bd10      	pop	{r4, pc}
 8005012:	2001      	movs	r0, #1
 8005014:	e7fc      	b.n	8005010 <HAL_UART_DeInit+0x50>
 8005016:	bf00      	nop
 8005018:	40011000 	.word	0x40011000
 800501c:	0800ab92 	.word	0x0800ab92

08005020 <HAL_UART_Transmit_DMA>:
 8005020:	b538      	push	{r3, r4, r5, lr}
 8005022:	4604      	mov	r4, r0
 8005024:	4613      	mov	r3, r2
 8005026:	f894 203d 	ldrb.w	r2, [r4, #61]	@ 0x3d
 800502a:	2a20      	cmp	r2, #32
 800502c:	d132      	bne.n	8005094 <HAL_UART_Transmit_DMA+0x74>
 800502e:	b379      	cbz	r1, 8005090 <HAL_UART_Transmit_DMA+0x70>
 8005030:	b373      	cbz	r3, 8005090 <HAL_UART_Transmit_DMA+0x70>
 8005032:	f894 203c 	ldrb.w	r2, [r4, #60]	@ 0x3c
 8005036:	2a01      	cmp	r2, #1
 8005038:	d02c      	beq.n	8005094 <HAL_UART_Transmit_DMA+0x74>
 800503a:	2201      	movs	r2, #1
 800503c:	f884 203c 	strb.w	r2, [r4, #60]	@ 0x3c
 8005040:	6b60      	ldr	r0, [r4, #52]	@ 0x34
 8005042:	84e3      	strh	r3, [r4, #38]	@ 0x26
 8005044:	2500      	movs	r5, #0
 8005046:	2221      	movs	r2, #33	@ 0x21
 8005048:	6425      	str	r5, [r4, #64]	@ 0x40
 800504a:	f884 203d 	strb.w	r2, [r4, #61]	@ 0x3d
 800504e:	4a12      	ldr	r2, [pc, #72]	@ (8005098 <HAL_UART_Transmit_DMA+0x78>)
 8005050:	84a3      	strh	r3, [r4, #36]	@ 0x24
 8005052:	6221      	str	r1, [r4, #32]
 8005054:	63c2      	str	r2, [r0, #60]	@ 0x3c
 8005056:	4a11      	ldr	r2, [pc, #68]	@ (800509c <HAL_UART_Transmit_DMA+0x7c>)
 8005058:	6402      	str	r2, [r0, #64]	@ 0x40
 800505a:	4a11      	ldr	r2, [pc, #68]	@ (80050a0 <HAL_UART_Transmit_DMA+0x80>)
 800505c:	e9c0 2513 	strd	r2, r5, [r0, #76]	@ 0x4c
 8005060:	6822      	ldr	r2, [r4, #0]
 8005062:	3204      	adds	r2, #4
 8005064:	f7fc ff70 	bl	8001f48 <HAL_DMA_Start_IT>
 8005068:	6823      	ldr	r3, [r4, #0]
 800506a:	f06f 0240 	mvn.w	r2, #64	@ 0x40
 800506e:	601a      	str	r2, [r3, #0]
 8005070:	6822      	ldr	r2, [r4, #0]
 8005072:	f884 503c 	strb.w	r5, [r4, #60]	@ 0x3c
 8005076:	f102 0314 	add.w	r3, r2, #20
 800507a:	e853 3f00 	ldrex	r3, [r3]
 800507e:	f043 0380 	orr.w	r3, r3, #128	@ 0x80
 8005082:	f102 0114 	add.w	r1, r2, #20
 8005086:	e841 3000 	strex	r0, r3, [r1]
 800508a:	2800      	cmp	r0, #0
 800508c:	d1f3      	bne.n	8005076 <HAL_UART_Transmit_DMA+0x56>
 800508e:	bd38      	pop	{r3, r4, r5, pc}
 8005090:	2001      	movs	r0, #1
 8005092:	e7fc      	b.n	800508e <HAL_UART_Transmit_DMA+0x6e>
 8005094:	2002      	movs	r0, #2
 8005096:	e7fa      	b.n	800508e <HAL_UART_Transmit_DMA+0x6e>
 8005098:	08005131 	.word	0x08005131
 800509c:	0800517f 	.word	0x0800517f
 80050a0:	0800518f 	.word	0x0800518f

080050a4 <HAL_UART_DMAStop>:
 80050a4:	b510      	push	{r4, lr}
 80050a6:	6802      	ldr	r2, [r0, #0]
 80050a8:	6953      	ldr	r3, [r2, #20]
 80050aa:	f890 103d 	ldrb.w	r1, [r0, #61]	@ 0x3d
 80050ae:	2921      	cmp	r1, #33	@ 0x21
 80050b0:	4604      	mov	r4, r0
 80050b2:	d120      	bne.n	80050f6 <HAL_UART_DMAStop+0x52>
 80050b4:	0619      	lsls	r1, r3, #24
 80050b6:	d51e      	bpl.n	80050f6 <HAL_UART_DMAStop+0x52>
 80050b8:	f102 0314 	add.w	r3, r2, #20
 80050bc:	e853 3f00 	ldrex	r3, [r3]
 80050c0:	f023 0380 	bic.w	r3, r3, #128	@ 0x80
 80050c4:	f102 0014 	add.w	r0, r2, #20
 80050c8:	e840 3100 	strex	r1, r3, [r0]
 80050cc:	2900      	cmp	r1, #0
 80050ce:	d1f3      	bne.n	80050b8 <HAL_UART_DMAStop+0x14>
 80050d0:	6b60      	ldr	r0, [r4, #52]	@ 0x34
 80050d2:	b108      	cbz	r0, 80050d8 <HAL_UART_DMAStop+0x34>
 80050d4:	f7fc ff86 	bl	8001fe4 <HAL_DMA_Abort>
 80050d8:	6822      	ldr	r2, [r4, #0]
 80050da:	f102 030c 	add.w	r3, r2, #12
 80050de:	e853 3f00 	ldrex	r3, [r3]
 80050e2:	f023 03c0 	bic.w	r3, r3, #192	@ 0xc0
 80050e6:	320c      	adds	r2, #12
 80050e8:	e842 3100 	strex	r1, r3, [r2]
 80050ec:	2900      	cmp	r1, #0
 80050ee:	d1f3      	bne.n	80050d8 <HAL_UART_DMAStop+0x34>
 80050f0:	2320      	movs	r3, #32
 80050f2:	f884 303d 	strb.w	r3, [r4, #61]	@ 0x3d
 80050f6:	6822      	ldr	r2, [r4, #0]
 80050f8:	6953      	ldr	r3, [r2, #20]
 80050fa:	f894 103e 	ldrb.w	r1, [r4, #62]	@ 0x3e
 80050fe:	2922      	cmp	r1, #34	@ 0x22
 8005100:	d114      	bne.n	800512c <HAL_UART_DMAStop+0x88>
 8005102:	065b      	lsls	r3, r3, #25
 8005104:	d512      	bpl.n	800512c <HAL_UART_DMAStop+0x88>
 8005106:	f102 0314 	add.w	r3, r2, #20
 800510a:	e853 3f00 	ldrex	r3, [r3]
 800510e:	f023 0340 	bic.w	r3, r3, #64	@ 0x40
 8005112:	f102 0014 	add.w	r0, r2, #20
 8005116:	e840 3100 	strex	r1, r3, [r0]
 800511a:	2900      	cmp	r1, #0
 800511c:	d1f3      	bne.n	8005106 <HAL_UART_DMAStop+0x62>
 800511e:	6ba0      	ldr	r0, [r4, #56]	@ 0x38
 8005120:	b108      	cbz	r0, 8005126 <HAL_UART_DMAStop+0x82>
 8005122:	f7fc ff5f 	bl	8001fe4 <HAL_DMA_Abort>
 8005126:	4620      	mov	r0, r4
 8005128:	f7ff fe1e 	bl	8004d68 <UART_EndRxTransfer>
 800512c:	2000      	movs	r0, #0
 800512e:	bd10      	pop	{r4, pc}

08005130 <UART_DMATransmitCplt>:
 8005130:	b508      	push	{r3, lr}
 8005132:	4603      	mov	r3, r0
 8005134:	6b80      	ldr	r0, [r0, #56]	@ 0x38
 8005136:	681b      	ldr	r3, [r3, #0]
 8005138:	681b      	ldr	r3, [r3, #0]
 800513a:	f413 7380 	ands.w	r3, r3, #256	@ 0x100
 800513e:	d11a      	bne.n	8005176 <UART_DMATransmitCplt+0x46>
 8005140:	84c3      	strh	r3, [r0, #38]	@ 0x26
 8005142:	6802      	ldr	r2, [r0, #0]
 8005144:	f102 0314 	add.w	r3, r2, #20
 8005148:	e853 3f00 	ldrex	r3, [r3]
 800514c:	f023 0380 	bic.w	r3, r3, #128	@ 0x80
 8005150:	3214      	adds	r2, #20
 8005152:	e842 3100 	strex	r1, r3, [r2]
 8005156:	6802      	ldr	r2, [r0, #0]
 8005158:	2900      	cmp	r1, #0
 800515a:	d1f2      	bne.n	8005142 <UART_DMATransmitCplt+0x12>
 800515c:	f102 030c 	add.w	r3, r2, #12
 8005160:	e853 3f00 	ldrex	r3, [r3]
 8005164:	f043 0340 	orr.w	r3, r3, #64	@ 0x40
 8005168:	f102 000c 	add.w	r0, r2, #12
 800516c:	e840 3100 	strex	r1, r3, [r0]
 8005170:	2900      	cmp	r1, #0
 8005172:	d1f3      	bne.n	800515c <UART_DMATransmitCplt+0x2c>
 8005174:	bd08      	pop	{r3, pc}
 8005176:	f7fc f9d5 	bl	8001524 <HAL_UART_TxCpltCallback>
 800517a:	e7fb      	b.n	8005174 <UART_DMATransmitCplt+0x44>

0800517c <HAL_UART_TxHalfCpltCallback>:
 800517c:	4770      	bx	lr

0800517e <UART_DMATxHalfCplt>:
 800517e:	b508      	push	{r3, lr}
 8005180:	6b80      	ldr	r0, [r0, #56]	@ 0x38
 8005182:	f7ff fffb 	bl	800517c <HAL_UART_TxHalfCpltCallback>
 8005186:	bd08      	pop	{r3, pc}

08005188 <HAL_UART_RxCpltCallback>:
 8005188:	4770      	bx	lr

0800518a <HAL_UART_RxHalfCpltCallback>:
 800518a:	4770      	bx	lr

0800518c <HAL_UART_ErrorCallback>:
 800518c:	4770      	bx	lr

0800518e <UART_DMAError>:
 800518e:	b508      	push	{r3, lr}
 8005190:	6b80      	ldr	r0, [r0, #56]	@ 0x38
 8005192:	6803      	ldr	r3, [r0, #0]
 8005194:	695a      	ldr	r2, [r3, #20]
 8005196:	f890 103d 	ldrb.w	r1, [r0, #61]	@ 0x3d
 800519a:	2921      	cmp	r1, #33	@ 0x21
 800519c:	d112      	bne.n	80051c4 <UART_DMAError+0x36>
 800519e:	0612      	lsls	r2, r2, #24
 80051a0:	d510      	bpl.n	80051c4 <UART_DMAError+0x36>
 80051a2:	2200      	movs	r2, #0
 80051a4:	84c2      	strh	r2, [r0, #38]	@ 0x26
 80051a6:	f103 020c 	add.w	r2, r3, #12
 80051aa:	e852 2f00 	ldrex	r2, [r2]
 80051ae:	f022 02c0 	bic.w	r2, r2, #192	@ 0xc0
 80051b2:	f103 0c0c 	add.w	ip, r3, #12
 80051b6:	e84c 2100 	strex	r1, r2, [ip]
 80051ba:	2900      	cmp	r1, #0
 80051bc:	d1f3      	bne.n	80051a6 <UART_DMAError+0x18>
 80051be:	2220      	movs	r2, #32
 80051c0:	f880 203d 	strb.w	r2, [r0, #61]	@ 0x3d
 80051c4:	695b      	ldr	r3, [r3, #20]
 80051c6:	f890 203e 	ldrb.w	r2, [r0, #62]	@ 0x3e
 80051ca:	2a22      	cmp	r2, #34	@ 0x22
 80051cc:	d105      	bne.n	80051da <UART_DMAError+0x4c>
 80051ce:	065b      	lsls	r3, r3, #25
 80051d0:	d503      	bpl.n	80051da <UART_DMAError+0x4c>
 80051d2:	2300      	movs	r3, #0
 80051d4:	85c3      	strh	r3, [r0, #46]	@ 0x2e
 80051d6:	f7ff fdc7 	bl	8004d68 <UART_EndRxTransfer>
 80051da:	6c03      	ldr	r3, [r0, #64]	@ 0x40
 80051dc:	f043 0310 	orr.w	r3, r3, #16
 80051e0:	6403      	str	r3, [r0, #64]	@ 0x40
 80051e2:	f7ff ffd3 	bl	800518c <HAL_UART_ErrorCallback>
 80051e6:	bd08      	pop	{r3, pc}

080051e8 <UART_DMAAbortOnError>:
 80051e8:	b508      	push	{r3, lr}
 80051ea:	6b80      	ldr	r0, [r0, #56]	@ 0x38
 80051ec:	2300      	movs	r3, #0
 80051ee:	85c3      	strh	r3, [r0, #46]	@ 0x2e
 80051f0:	84c3      	strh	r3, [r0, #38]	@ 0x26
 80051f2:	f7ff ffcb 	bl	800518c <HAL_UART_ErrorCallback>
 80051f6:	bd08      	pop	{r3, pc}

080051f8 <UART_DMARxHalfCplt>:
 80051f8:	6b80      	ldr	r0, [r0, #56]	@ 0x38
 80051fa:	b508      	push	{r3, lr}
 80051fc:	6b03      	ldr	r3, [r0, #48]	@ 0x30
 80051fe:	2b01      	cmp	r3, #1
 8005200:	d104      	bne.n	800520c <UART_DMARxHalfCplt+0x14>
 8005202:	8d81      	ldrh	r1, [r0, #44]	@ 0x2c
 8005204:	0849      	lsrs	r1, r1, #1
 8005206:	f7fc f941 	bl	800148c <HAL_UARTEx_RxEventCallback>
 800520a:	bd08      	pop	{r3, pc}
 800520c:	f7ff ffbd 	bl	800518a <HAL_UART_RxHalfCpltCallback>
 8005210:	e7fb      	b.n	800520a <UART_DMARxHalfCplt+0x12>

08005212 <UART_DMAReceiveCplt>:
 8005212:	b508      	push	{r3, lr}
 8005214:	4603      	mov	r3, r0
 8005216:	6b80      	ldr	r0, [r0, #56]	@ 0x38
 8005218:	681b      	ldr	r3, [r3, #0]
 800521a:	681b      	ldr	r3, [r3, #0]
 800521c:	f413 7380 	ands.w	r3, r3, #256	@ 0x100
 8005220:	d137      	bne.n	8005292 <UART_DMAReceiveCplt+0x80>
 8005222:	85c3      	strh	r3, [r0, #46]	@ 0x2e
 8005224:	6802      	ldr	r2, [r0, #0]
 8005226:	f102 030c 	add.w	r3, r2, #12
 800522a:	e853 3f00 	ldrex	r3, [r3]
 800522e:	f423 7380 	bic.w	r3, r3, #256	@ 0x100
 8005232:	320c      	adds	r2, #12
 8005234:	e842 3100 	strex	r1, r3, [r2]
 8005238:	6803      	ldr	r3, [r0, #0]
 800523a:	2900      	cmp	r1, #0
 800523c:	d1f2      	bne.n	8005224 <UART_DMAReceiveCplt+0x12>
 800523e:	f103 0214 	add.w	r2, r3, #20
 8005242:	e852 2f00 	ldrex	r2, [r2]
 8005246:	f022 0201 	bic.w	r2, r2, #1
 800524a:	f103 0c14 	add.w	ip, r3, #20
 800524e:	e84c 2100 	strex	r1, r2, [ip]
 8005252:	2900      	cmp	r1, #0
 8005254:	d1f3      	bne.n	800523e <UART_DMAReceiveCplt+0x2c>
 8005256:	f103 0214 	add.w	r2, r3, #20
 800525a:	e852 2f00 	ldrex	r2, [r2]
 800525e:	f022 0240 	bic.w	r2, r2, #64	@ 0x40
 8005262:	f103 0c14 	add.w	ip, r3, #20
 8005266:	e84c 2100 	strex	r1, r2, [ip]
 800526a:	2900      	cmp	r1, #0
 800526c:	d1f3      	bne.n	8005256 <UART_DMAReceiveCplt+0x44>
 800526e:	2220      	movs	r2, #32
 8005270:	f880 203e 	strb.w	r2, [r0, #62]	@ 0x3e
 8005274:	6b02      	ldr	r2, [r0, #48]	@ 0x30
 8005276:	2a01      	cmp	r2, #1
 8005278:	d10b      	bne.n	8005292 <UART_DMAReceiveCplt+0x80>
 800527a:	f103 020c 	add.w	r2, r3, #12
 800527e:	e852 2f00 	ldrex	r2, [r2]
 8005282:	f022 0210 	bic.w	r2, r2, #16
 8005286:	f103 0c0c 	add.w	ip, r3, #12
 800528a:	e84c 2100 	strex	r1, r2, [ip]
 800528e:	2900      	cmp	r1, #0
 8005290:	d1f3      	bne.n	800527a <UART_DMAReceiveCplt+0x68>
 8005292:	6b03      	ldr	r3, [r0, #48]	@ 0x30
 8005294:	2b01      	cmp	r3, #1
 8005296:	d103      	bne.n	80052a0 <UART_DMAReceiveCplt+0x8e>
 8005298:	8d81      	ldrh	r1, [r0, #44]	@ 0x2c
 800529a:	f7fc f8f7 	bl	800148c <HAL_UARTEx_RxEventCallback>
 800529e:	bd08      	pop	{r3, pc}
 80052a0:	f7ff ff72 	bl	8005188 <HAL_UART_RxCpltCallback>
 80052a4:	e7fb      	b.n	800529e <UART_DMAReceiveCplt+0x8c>

080052a6 <UART_Receive_IT.isra.0>:
 80052a6:	f890 303e 	ldrb.w	r3, [r0, #62]	@ 0x3e
 80052aa:	2b22      	cmp	r3, #34	@ 0x22
 80052ac:	b507      	push	{r0, r1, r2, lr}
 80052ae:	d141      	bne.n	8005334 <UART_Receive_IT.isra.0+0x8e>
 80052b0:	6881      	ldr	r1, [r0, #8]
 80052b2:	6802      	ldr	r2, [r0, #0]
 80052b4:	6a83      	ldr	r3, [r0, #40]	@ 0x28
 80052b6:	f5b1 5f80 	cmp.w	r1, #4096	@ 0x1000
 80052ba:	d13e      	bne.n	800533a <UART_Receive_IT.isra.0+0x94>
 80052bc:	6901      	ldr	r1, [r0, #16]
 80052be:	2900      	cmp	r1, #0
 80052c0:	d13e      	bne.n	8005340 <UART_Receive_IT.isra.0+0x9a>
 80052c2:	6852      	ldr	r2, [r2, #4]
 80052c4:	f3c2 0208 	ubfx	r2, r2, #0, #9
 80052c8:	f823 2b02 	strh.w	r2, [r3], #2
 80052cc:	6283      	str	r3, [r0, #40]	@ 0x28
 80052ce:	8dc3      	ldrh	r3, [r0, #46]	@ 0x2e
 80052d0:	3b01      	subs	r3, #1
 80052d2:	b29b      	uxth	r3, r3
 80052d4:	85c3      	strh	r3, [r0, #46]	@ 0x2e
 80052d6:	2b00      	cmp	r3, #0
 80052d8:	d12c      	bne.n	8005334 <UART_Receive_IT.isra.0+0x8e>
 80052da:	6802      	ldr	r2, [r0, #0]
 80052dc:	68d1      	ldr	r1, [r2, #12]
 80052de:	f021 0120 	bic.w	r1, r1, #32
 80052e2:	60d1      	str	r1, [r2, #12]
 80052e4:	68d1      	ldr	r1, [r2, #12]
 80052e6:	f421 7180 	bic.w	r1, r1, #256	@ 0x100
 80052ea:	60d1      	str	r1, [r2, #12]
 80052ec:	6951      	ldr	r1, [r2, #20]
 80052ee:	f021 0101 	bic.w	r1, r1, #1
 80052f2:	6151      	str	r1, [r2, #20]
 80052f4:	2220      	movs	r2, #32
 80052f6:	f880 203e 	strb.w	r2, [r0, #62]	@ 0x3e
 80052fa:	6b02      	ldr	r2, [r0, #48]	@ 0x30
 80052fc:	2a01      	cmp	r2, #1
 80052fe:	6802      	ldr	r2, [r0, #0]
 8005300:	d128      	bne.n	8005354 <UART_Receive_IT.isra.0+0xae>
 8005302:	6303      	str	r3, [r0, #48]	@ 0x30
 8005304:	f102 030c 	add.w	r3, r2, #12
 8005308:	e853 3f00 	ldrex	r3, [r3]
 800530c:	f023 0310 	bic.w	r3, r3, #16
 8005310:	f102 0c0c 	add.w	ip, r2, #12
 8005314:	e84c 3100 	strex	r1, r3, [ip]
 8005318:	2900      	cmp	r1, #0
 800531a:	d1f3      	bne.n	8005304 <UART_Receive_IT.isra.0+0x5e>
 800531c:	6813      	ldr	r3, [r2, #0]
 800531e:	06db      	lsls	r3, r3, #27
 8005320:	d505      	bpl.n	800532e <UART_Receive_IT.isra.0+0x88>
 8005322:	9101      	str	r1, [sp, #4]
 8005324:	6813      	ldr	r3, [r2, #0]
 8005326:	9301      	str	r3, [sp, #4]
 8005328:	6853      	ldr	r3, [r2, #4]
 800532a:	9301      	str	r3, [sp, #4]
 800532c:	9b01      	ldr	r3, [sp, #4]
 800532e:	8d81      	ldrh	r1, [r0, #44]	@ 0x2c
 8005330:	f7fc f8ac 	bl	800148c <HAL_UARTEx_RxEventCallback>
 8005334:	b003      	add	sp, #12
 8005336:	f85d fb04 	ldr.w	pc, [sp], #4
 800533a:	b939      	cbnz	r1, 800534c <UART_Receive_IT.isra.0+0xa6>
 800533c:	6901      	ldr	r1, [r0, #16]
 800533e:	b929      	cbnz	r1, 800534c <UART_Receive_IT.isra.0+0xa6>
 8005340:	6852      	ldr	r2, [r2, #4]
 8005342:	b2d2      	uxtb	r2, r2
 8005344:	701a      	strb	r2, [r3, #0]
 8005346:	6a83      	ldr	r3, [r0, #40]	@ 0x28
 8005348:	3301      	adds	r3, #1
 800534a:	e7bf      	b.n	80052cc <UART_Receive_IT.isra.0+0x26>
 800534c:	6852      	ldr	r2, [r2, #4]
 800534e:	f002 027f 	and.w	r2, r2, #127	@ 0x7f
 8005352:	e7f7      	b.n	8005344 <UART_Receive_IT.isra.0+0x9e>
 8005354:	f7ff ff18 	bl	8005188 <HAL_UART_RxCpltCallback>
 8005358:	e7ec      	b.n	8005334 <UART_Receive_IT.isra.0+0x8e>
	...

0800535c <HAL_UART_IRQHandler>:
 800535c:	6803      	ldr	r3, [r0, #0]
 800535e:	681a      	ldr	r2, [r3, #0]
 8005360:	b573      	push	{r0, r1, r4, r5, r6, lr}
 8005362:	0716      	lsls	r6, r2, #28
 8005364:	68d9      	ldr	r1, [r3, #12]
 8005366:	695d      	ldr	r5, [r3, #20]
 8005368:	4604      	mov	r4, r0
 800536a:	d108      	bne.n	800537e <HAL_UART_IRQHandler+0x22>
 800536c:	0696      	lsls	r6, r2, #26
 800536e:	d568      	bpl.n	8005442 <HAL_UART_IRQHandler+0xe6>
 8005370:	068d      	lsls	r5, r1, #26
 8005372:	d566      	bpl.n	8005442 <HAL_UART_IRQHandler+0xe6>
 8005374:	b002      	add	sp, #8
 8005376:	e8bd 4070 	ldmia.w	sp!, {r4, r5, r6, lr}
 800537a:	f7ff bf94 	b.w	80052a6 <UART_Receive_IT.isra.0>
 800537e:	f005 0001 	and.w	r0, r5, #1
 8005382:	f401 7590 	and.w	r5, r1, #288	@ 0x120
 8005386:	4305      	orrs	r5, r0
 8005388:	d05b      	beq.n	8005442 <HAL_UART_IRQHandler+0xe6>
 800538a:	07d6      	lsls	r6, r2, #31
 800538c:	d505      	bpl.n	800539a <HAL_UART_IRQHandler+0x3e>
 800538e:	05cd      	lsls	r5, r1, #23
 8005390:	bf42      	ittt	mi
 8005392:	6c23      	ldrmi	r3, [r4, #64]	@ 0x40
 8005394:	f043 0301 	orrmi.w	r3, r3, #1
 8005398:	6423      	strmi	r3, [r4, #64]	@ 0x40
 800539a:	0753      	lsls	r3, r2, #29
 800539c:	d504      	bpl.n	80053a8 <HAL_UART_IRQHandler+0x4c>
 800539e:	b118      	cbz	r0, 80053a8 <HAL_UART_IRQHandler+0x4c>
 80053a0:	6c23      	ldr	r3, [r4, #64]	@ 0x40
 80053a2:	f043 0302 	orr.w	r3, r3, #2
 80053a6:	6423      	str	r3, [r4, #64]	@ 0x40
 80053a8:	0796      	lsls	r6, r2, #30
 80053aa:	d504      	bpl.n	80053b6 <HAL_UART_IRQHandler+0x5a>
 80053ac:	b118      	cbz	r0, 80053b6 <HAL_UART_IRQHandler+0x5a>
 80053ae:	6c23      	ldr	r3, [r4, #64]	@ 0x40
 80053b0:	f043 0304 	orr.w	r3, r3, #4
 80053b4:	6423      	str	r3, [r4, #64]	@ 0x40
 80053b6:	0715      	lsls	r5, r2, #28
 80053b8:	d507      	bpl.n	80053ca <HAL_UART_IRQHandler+0x6e>
 80053ba:	f001 0320 	and.w	r3, r1, #32
 80053be:	4303      	orrs	r3, r0
 80053c0:	bf1e      	ittt	ne
 80053c2:	6c23      	ldrne	r3, [r4, #64]	@ 0x40
 80053c4:	f043 0308 	orrne.w	r3, r3, #8
 80053c8:	6423      	strne	r3, [r4, #64]	@ 0x40
 80053ca:	6c23      	ldr	r3, [r4, #64]	@ 0x40
 80053cc:	2b00      	cmp	r3, #0
 80053ce:	d032      	beq.n	8005436 <HAL_UART_IRQHandler+0xda>
 80053d0:	0692      	lsls	r2, r2, #26
 80053d2:	d504      	bpl.n	80053de <HAL_UART_IRQHandler+0x82>
 80053d4:	068b      	lsls	r3, r1, #26
 80053d6:	d502      	bpl.n	80053de <HAL_UART_IRQHandler+0x82>
 80053d8:	4620      	mov	r0, r4
 80053da:	f7ff ff64 	bl	80052a6 <UART_Receive_IT.isra.0>
 80053de:	6826      	ldr	r6, [r4, #0]
 80053e0:	6973      	ldr	r3, [r6, #20]
 80053e2:	6c22      	ldr	r2, [r4, #64]	@ 0x40
 80053e4:	f003 0340 	and.w	r3, r3, #64	@ 0x40
 80053e8:	f002 0208 	and.w	r2, r2, #8
 80053ec:	ea53 0502 	orrs.w	r5, r3, r2
 80053f0:	4620      	mov	r0, r4
 80053f2:	d022      	beq.n	800543a <HAL_UART_IRQHandler+0xde>
 80053f4:	f7ff fcb8 	bl	8004d68 <UART_EndRxTransfer>
 80053f8:	6973      	ldr	r3, [r6, #20]
 80053fa:	065e      	lsls	r6, r3, #25
 80053fc:	d518      	bpl.n	8005430 <HAL_UART_IRQHandler+0xd4>
 80053fe:	6822      	ldr	r2, [r4, #0]
 8005400:	f102 0314 	add.w	r3, r2, #20
 8005404:	e853 3f00 	ldrex	r3, [r3]
 8005408:	f023 0340 	bic.w	r3, r3, #64	@ 0x40
 800540c:	3214      	adds	r2, #20
 800540e:	e842 3100 	strex	r1, r3, [r2]
 8005412:	2900      	cmp	r1, #0
 8005414:	d1f3      	bne.n	80053fe <HAL_UART_IRQHandler+0xa2>
 8005416:	6ba0      	ldr	r0, [r4, #56]	@ 0x38
 8005418:	b150      	cbz	r0, 8005430 <HAL_UART_IRQHandler+0xd4>
 800541a:	4b72      	ldr	r3, [pc, #456]	@ (80055e4 <HAL_UART_IRQHandler+0x288>)
 800541c:	6503      	str	r3, [r0, #80]	@ 0x50
 800541e:	f7fc fe1f 	bl	8002060 <HAL_DMA_Abort_IT>
 8005422:	b140      	cbz	r0, 8005436 <HAL_UART_IRQHandler+0xda>
 8005424:	6ba0      	ldr	r0, [r4, #56]	@ 0x38
 8005426:	6d03      	ldr	r3, [r0, #80]	@ 0x50
 8005428:	b002      	add	sp, #8
 800542a:	e8bd 4070 	ldmia.w	sp!, {r4, r5, r6, lr}
 800542e:	4718      	bx	r3
 8005430:	4620      	mov	r0, r4
 8005432:	f7ff feab 	bl	800518c <HAL_UART_ErrorCallback>
 8005436:	b002      	add	sp, #8
 8005438:	bd70      	pop	{r4, r5, r6, pc}
 800543a:	f7ff fea7 	bl	800518c <HAL_UART_ErrorCallback>
 800543e:	6425      	str	r5, [r4, #64]	@ 0x40
 8005440:	e7f9      	b.n	8005436 <HAL_UART_IRQHandler+0xda>
 8005442:	6b20      	ldr	r0, [r4, #48]	@ 0x30
 8005444:	2801      	cmp	r0, #1
 8005446:	f040 8091 	bne.w	800556c <HAL_UART_IRQHandler+0x210>
 800544a:	06d5      	lsls	r5, r2, #27
 800544c:	f140 808e 	bpl.w	800556c <HAL_UART_IRQHandler+0x210>
 8005450:	06c8      	lsls	r0, r1, #27
 8005452:	f140 808b 	bpl.w	800556c <HAL_UART_IRQHandler+0x210>
 8005456:	2200      	movs	r2, #0
 8005458:	9201      	str	r2, [sp, #4]
 800545a:	681a      	ldr	r2, [r3, #0]
 800545c:	9201      	str	r2, [sp, #4]
 800545e:	685a      	ldr	r2, [r3, #4]
 8005460:	9201      	str	r2, [sp, #4]
 8005462:	9a01      	ldr	r2, [sp, #4]
 8005464:	695a      	ldr	r2, [r3, #20]
 8005466:	0652      	lsls	r2, r2, #25
 8005468:	d54c      	bpl.n	8005504 <HAL_UART_IRQHandler+0x1a8>
 800546a:	6ba1      	ldr	r1, [r4, #56]	@ 0x38
 800546c:	680a      	ldr	r2, [r1, #0]
 800546e:	6852      	ldr	r2, [r2, #4]
 8005470:	b292      	uxth	r2, r2
 8005472:	2a00      	cmp	r2, #0
 8005474:	d0df      	beq.n	8005436 <HAL_UART_IRQHandler+0xda>
 8005476:	8da0      	ldrh	r0, [r4, #44]	@ 0x2c
 8005478:	4290      	cmp	r0, r2
 800547a:	d9dc      	bls.n	8005436 <HAL_UART_IRQHandler+0xda>
 800547c:	85e2      	strh	r2, [r4, #46]	@ 0x2e
 800547e:	69ca      	ldr	r2, [r1, #28]
 8005480:	f5b2 7f80 	cmp.w	r2, #256	@ 0x100
 8005484:	d036      	beq.n	80054f4 <HAL_UART_IRQHandler+0x198>
 8005486:	f103 020c 	add.w	r2, r3, #12
 800548a:	e852 2f00 	ldrex	r2, [r2]
 800548e:	f422 7280 	bic.w	r2, r2, #256	@ 0x100
 8005492:	f103 000c 	add.w	r0, r3, #12
 8005496:	e840 2100 	strex	r1, r2, [r0]
 800549a:	2900      	cmp	r1, #0
 800549c:	d1f3      	bne.n	8005486 <HAL_UART_IRQHandler+0x12a>
 800549e:	f103 0214 	add.w	r2, r3, #20
 80054a2:	e852 2f00 	ldrex	r2, [r2]
 80054a6:	f022 0201 	bic.w	r2, r2, #1
 80054aa:	f103 0014 	add.w	r0, r3, #20
 80054ae:	e840 2100 	strex	r1, r2, [r0]
 80054b2:	2900      	cmp	r1, #0
 80054b4:	d1f3      	bne.n	800549e <HAL_UART_IRQHandler+0x142>
 80054b6:	f103 0214 	add.w	r2, r3, #20
 80054ba:	e852 2f00 	ldrex	r2, [r2]
 80054be:	f022 0240 	bic.w	r2, r2, #64	@ 0x40
 80054c2:	f103 0014 	add.w	r0, r3, #20
 80054c6:	e840 2100 	strex	r1, r2, [r0]
 80054ca:	2900      	cmp	r1, #0
 80054cc:	d1f3      	bne.n	80054b6 <HAL_UART_IRQHandler+0x15a>
 80054ce:	2220      	movs	r2, #32
 80054d0:	f884 203e 	strb.w	r2, [r4, #62]	@ 0x3e
 80054d4:	6321      	str	r1, [r4, #48]	@ 0x30
 80054d6:	f103 020c 	add.w	r2, r3, #12
 80054da:	e852 2f00 	ldrex	r2, [r2]
 80054de:	f022 0210 	bic.w	r2, r2, #16
 80054e2:	f103 000c 	add.w	r0, r3, #12
 80054e6:	e840 2100 	strex	r1, r2, [r0]
 80054ea:	2900      	cmp	r1, #0
 80054ec:	d1f3      	bne.n	80054d6 <HAL_UART_IRQHandler+0x17a>
 80054ee:	6ba0      	ldr	r0, [r4, #56]	@ 0x38
 80054f0:	f7fc fd78 	bl	8001fe4 <HAL_DMA_Abort>
 80054f4:	8de3      	ldrh	r3, [r4, #46]	@ 0x2e
 80054f6:	8da1      	ldrh	r1, [r4, #44]	@ 0x2c
 80054f8:	1ac9      	subs	r1, r1, r3
 80054fa:	b289      	uxth	r1, r1
 80054fc:	4620      	mov	r0, r4
 80054fe:	f7fb ffc5 	bl	800148c <HAL_UARTEx_RxEventCallback>
 8005502:	e798      	b.n	8005436 <HAL_UART_IRQHandler+0xda>
 8005504:	8de2      	ldrh	r2, [r4, #46]	@ 0x2e
 8005506:	8de0      	ldrh	r0, [r4, #46]	@ 0x2e
 8005508:	8da1      	ldrh	r1, [r4, #44]	@ 0x2c
 800550a:	b280      	uxth	r0, r0
 800550c:	b292      	uxth	r2, r2
 800550e:	2800      	cmp	r0, #0
 8005510:	d091      	beq.n	8005436 <HAL_UART_IRQHandler+0xda>
 8005512:	1a89      	subs	r1, r1, r2
 8005514:	b289      	uxth	r1, r1
 8005516:	2900      	cmp	r1, #0
 8005518:	d08d      	beq.n	8005436 <HAL_UART_IRQHandler+0xda>
 800551a:	f103 020c 	add.w	r2, r3, #12
 800551e:	e852 2f00 	ldrex	r2, [r2]
 8005522:	f422 7290 	bic.w	r2, r2, #288	@ 0x120
 8005526:	f103 050c 	add.w	r5, r3, #12
 800552a:	e845 2000 	strex	r0, r2, [r5]
 800552e:	2800      	cmp	r0, #0
 8005530:	d1f3      	bne.n	800551a <HAL_UART_IRQHandler+0x1be>
 8005532:	f103 0214 	add.w	r2, r3, #20
 8005536:	e852 2f00 	ldrex	r2, [r2]
 800553a:	f022 0201 	bic.w	r2, r2, #1
 800553e:	f103 0514 	add.w	r5, r3, #20
 8005542:	e845 2000 	strex	r0, r2, [r5]
 8005546:	2800      	cmp	r0, #0
 8005548:	d1f3      	bne.n	8005532 <HAL_UART_IRQHandler+0x1d6>
 800554a:	2220      	movs	r2, #32
 800554c:	f884 203e 	strb.w	r2, [r4, #62]	@ 0x3e
 8005550:	6320      	str	r0, [r4, #48]	@ 0x30
 8005552:	f103 020c 	add.w	r2, r3, #12
 8005556:	e852 2f00 	ldrex	r2, [r2]
 800555a:	f022 0210 	bic.w	r2, r2, #16
 800555e:	f103 050c 	add.w	r5, r3, #12
 8005562:	e845 2000 	strex	r0, r2, [r5]
 8005566:	2800      	cmp	r0, #0
 8005568:	d1f3      	bne.n	8005552 <HAL_UART_IRQHandler+0x1f6>
 800556a:	e7c7      	b.n	80054fc <HAL_UART_IRQHandler+0x1a0>
 800556c:	0616      	lsls	r6, r2, #24
 800556e:	d528      	bpl.n	80055c2 <HAL_UART_IRQHandler+0x266>
 8005570:	060d      	lsls	r5, r1, #24
 8005572:	d526      	bpl.n	80055c2 <HAL_UART_IRQHandler+0x266>
 8005574:	f894 203d 	ldrb.w	r2, [r4, #61]	@ 0x3d
 8005578:	2a21      	cmp	r2, #33	@ 0x21
 800557a:	f47f af5c 	bne.w	8005436 <HAL_UART_IRQHandler+0xda>
 800557e:	68a1      	ldr	r1, [r4, #8]
 8005580:	6a22      	ldr	r2, [r4, #32]
 8005582:	f5b1 5f80 	cmp.w	r1, #4096	@ 0x1000
 8005586:	d117      	bne.n	80055b8 <HAL_UART_IRQHandler+0x25c>
 8005588:	6921      	ldr	r1, [r4, #16]
 800558a:	b9a9      	cbnz	r1, 80055b8 <HAL_UART_IRQHandler+0x25c>
 800558c:	f832 1b02 	ldrh.w	r1, [r2], #2
 8005590:	f3c1 0108 	ubfx	r1, r1, #0, #9
 8005594:	6059      	str	r1, [r3, #4]
 8005596:	6222      	str	r2, [r4, #32]
 8005598:	8ce2      	ldrh	r2, [r4, #38]	@ 0x26
 800559a:	3a01      	subs	r2, #1
 800559c:	b292      	uxth	r2, r2
 800559e:	84e2      	strh	r2, [r4, #38]	@ 0x26
 80055a0:	2a00      	cmp	r2, #0
 80055a2:	f47f af48 	bne.w	8005436 <HAL_UART_IRQHandler+0xda>
 80055a6:	68da      	ldr	r2, [r3, #12]
 80055a8:	f022 0280 	bic.w	r2, r2, #128	@ 0x80
 80055ac:	60da      	str	r2, [r3, #12]
 80055ae:	68da      	ldr	r2, [r3, #12]
 80055b0:	f042 0240 	orr.w	r2, r2, #64	@ 0x40
 80055b4:	60da      	str	r2, [r3, #12]
 80055b6:	e73e      	b.n	8005436 <HAL_UART_IRQHandler+0xda>
 80055b8:	1c51      	adds	r1, r2, #1
 80055ba:	6221      	str	r1, [r4, #32]
 80055bc:	7812      	ldrb	r2, [r2, #0]
 80055be:	605a      	str	r2, [r3, #4]
 80055c0:	e7ea      	b.n	8005598 <HAL_UART_IRQHandler+0x23c>
 80055c2:	0650      	lsls	r0, r2, #25
 80055c4:	f57f af37 	bpl.w	8005436 <HAL_UART_IRQHandler+0xda>
 80055c8:	064a      	lsls	r2, r1, #25
 80055ca:	f57f af34 	bpl.w	8005436 <HAL_UART_IRQHandler+0xda>
 80055ce:	68da      	ldr	r2, [r3, #12]
 80055d0:	f022 0240 	bic.w	r2, r2, #64	@ 0x40
 80055d4:	60da      	str	r2, [r3, #12]
 80055d6:	2320      	movs	r3, #32
 80055d8:	f884 303d 	strb.w	r3, [r4, #61]	@ 0x3d
 80055dc:	4620      	mov	r0, r4
 80055de:	f7fb ffa1 	bl	8001524 <HAL_UART_TxCpltCallback>
 80055e2:	e728      	b.n	8005436 <HAL_UART_IRQHandler+0xda>
 80055e4:	080051e9 	.word	0x080051e9

080055e8 <UART_Start_Receive_DMA>:
 80055e8:	b573      	push	{r0, r1, r4, r5, r6, lr}
 80055ea:	4613      	mov	r3, r2
 80055ec:	2500      	movs	r5, #0
 80055ee:	8582      	strh	r2, [r0, #44]	@ 0x2c
 80055f0:	2222      	movs	r2, #34	@ 0x22
 80055f2:	4604      	mov	r4, r0
 80055f4:	6405      	str	r5, [r0, #64]	@ 0x40
 80055f6:	6281      	str	r1, [r0, #40]	@ 0x28
 80055f8:	f880 203e 	strb.w	r2, [r0, #62]	@ 0x3e
 80055fc:	6b80      	ldr	r0, [r0, #56]	@ 0x38
 80055fe:	4a1e      	ldr	r2, [pc, #120]	@ (8005678 <UART_Start_Receive_DMA+0x90>)
 8005600:	63c2      	str	r2, [r0, #60]	@ 0x3c
 8005602:	4a1e      	ldr	r2, [pc, #120]	@ (800567c <UART_Start_Receive_DMA+0x94>)
 8005604:	6826      	ldr	r6, [r4, #0]
 8005606:	6402      	str	r2, [r0, #64]	@ 0x40
 8005608:	4a1d      	ldr	r2, [pc, #116]	@ (8005680 <UART_Start_Receive_DMA+0x98>)
 800560a:	e9c0 2513 	strd	r2, r5, [r0, #76]	@ 0x4c
 800560e:	460a      	mov	r2, r1
 8005610:	1d31      	adds	r1, r6, #4
 8005612:	f7fc fc99 	bl	8001f48 <HAL_DMA_Start_IT>
 8005616:	6823      	ldr	r3, [r4, #0]
 8005618:	9501      	str	r5, [sp, #4]
 800561a:	681a      	ldr	r2, [r3, #0]
 800561c:	9201      	str	r2, [sp, #4]
 800561e:	685a      	ldr	r2, [r3, #4]
 8005620:	9201      	str	r2, [sp, #4]
 8005622:	9a01      	ldr	r2, [sp, #4]
 8005624:	6922      	ldr	r2, [r4, #16]
 8005626:	f884 503c 	strb.w	r5, [r4, #60]	@ 0x3c
 800562a:	b15a      	cbz	r2, 8005644 <UART_Start_Receive_DMA+0x5c>
 800562c:	f103 020c 	add.w	r2, r3, #12
 8005630:	e852 2f00 	ldrex	r2, [r2]
 8005634:	f442 7280 	orr.w	r2, r2, #256	@ 0x100
 8005638:	f103 000c 	add.w	r0, r3, #12
 800563c:	e840 2100 	strex	r1, r2, [r0]
 8005640:	2900      	cmp	r1, #0
 8005642:	d1f3      	bne.n	800562c <UART_Start_Receive_DMA+0x44>
 8005644:	f103 0214 	add.w	r2, r3, #20
 8005648:	e852 2f00 	ldrex	r2, [r2]
 800564c:	f042 0201 	orr.w	r2, r2, #1
 8005650:	f103 0014 	add.w	r0, r3, #20
 8005654:	e840 2100 	strex	r1, r2, [r0]
 8005658:	2900      	cmp	r1, #0
 800565a:	d1f3      	bne.n	8005644 <UART_Start_Receive_DMA+0x5c>
 800565c:	f103 0214 	add.w	r2, r3, #20
 8005660:	e852 2f00 	ldrex	r2, [r2]
 8005664:	f042 0240 	orr.w	r2, r2, #64	@ 0x40
 8005668:	f103 0114 	add.w	r1, r3, #20
 800566c:	e841 2000 	strex	r0, r2, [r1]
 8005670:	2800      	cmp	r0, #0
 8005672:	d1f3      	bne.n	800565c <UART_Start_Receive_DMA+0x74>
 8005674:	b002      	add	sp, #8
 8005676:	bd70      	pop	{r4, r5, r6, pc}
 8005678:	08005213 	.word	0x08005213
 800567c:	080051f9 	.word	0x080051f9
 8005680:	0800518f 	.word	0x0800518f

08005684 <HAL_UARTEx_ReceiveToIdle_DMA>:
 8005684:	b573      	push	{r0, r1, r4, r5, r6, lr}
 8005686:	f890 603e 	ldrb.w	r6, [r0, #62]	@ 0x3e
 800568a:	2e20      	cmp	r6, #32
 800568c:	4604      	mov	r4, r0
 800568e:	d128      	bne.n	80056e2 <HAL_UARTEx_ReceiveToIdle_DMA+0x5e>
 8005690:	b911      	cbnz	r1, 8005698 <HAL_UARTEx_ReceiveToIdle_DMA+0x14>
 8005692:	2001      	movs	r0, #1
 8005694:	b002      	add	sp, #8
 8005696:	bd70      	pop	{r4, r5, r6, pc}
 8005698:	2a00      	cmp	r2, #0
 800569a:	d0fa      	beq.n	8005692 <HAL_UARTEx_ReceiveToIdle_DMA+0xe>
 800569c:	f890 303c 	ldrb.w	r3, [r0, #60]	@ 0x3c
 80056a0:	2b01      	cmp	r3, #1
 80056a2:	d01e      	beq.n	80056e2 <HAL_UARTEx_ReceiveToIdle_DMA+0x5e>
 80056a4:	2301      	movs	r3, #1
 80056a6:	f880 303c 	strb.w	r3, [r0, #60]	@ 0x3c
 80056aa:	6303      	str	r3, [r0, #48]	@ 0x30
 80056ac:	f7ff ff9c 	bl	80055e8 <UART_Start_Receive_DMA>
 80056b0:	2800      	cmp	r0, #0
 80056b2:	d1ef      	bne.n	8005694 <HAL_UARTEx_ReceiveToIdle_DMA+0x10>
 80056b4:	6b23      	ldr	r3, [r4, #48]	@ 0x30
 80056b6:	2b01      	cmp	r3, #1
 80056b8:	d1eb      	bne.n	8005692 <HAL_UARTEx_ReceiveToIdle_DMA+0xe>
 80056ba:	6822      	ldr	r2, [r4, #0]
 80056bc:	9001      	str	r0, [sp, #4]
 80056be:	6813      	ldr	r3, [r2, #0]
 80056c0:	9301      	str	r3, [sp, #4]
 80056c2:	6853      	ldr	r3, [r2, #4]
 80056c4:	9301      	str	r3, [sp, #4]
 80056c6:	9b01      	ldr	r3, [sp, #4]
 80056c8:	f102 030c 	add.w	r3, r2, #12
 80056cc:	e853 3f00 	ldrex	r3, [r3]
 80056d0:	f043 0310 	orr.w	r3, r3, #16
 80056d4:	f102 040c 	add.w	r4, r2, #12
 80056d8:	e844 3100 	strex	r1, r3, [r4]
 80056dc:	2900      	cmp	r1, #0
 80056de:	d1f3      	bne.n	80056c8 <HAL_UARTEx_ReceiveToIdle_DMA+0x44>
 80056e0:	e7d8      	b.n	8005694 <HAL_UARTEx_ReceiveToIdle_DMA+0x10>
 80056e2:	2002      	movs	r0, #2
 80056e4:	e7d6      	b.n	8005694 <HAL_UARTEx_ReceiveToIdle_DMA+0x10>
	...

080056e8 <USB_CoreReset>:
 80056e8:	b082      	sub	sp, #8
 80056ea:	2300      	movs	r3, #0
 80056ec:	4910      	ldr	r1, [pc, #64]	@ (8005730 <USB_CoreReset+0x48>)
 80056ee:	9301      	str	r3, [sp, #4]
 80056f0:	4602      	mov	r2, r0
 80056f2:	9b01      	ldr	r3, [sp, #4]
 80056f4:	3301      	adds	r3, #1
 80056f6:	9301      	str	r3, [sp, #4]
 80056f8:	9b01      	ldr	r3, [sp, #4]
 80056fa:	428b      	cmp	r3, r1
 80056fc:	d815      	bhi.n	800572a <USB_CoreReset+0x42>
 80056fe:	6913      	ldr	r3, [r2, #16]
 8005700:	2b00      	cmp	r3, #0
 8005702:	daf6      	bge.n	80056f2 <USB_CoreReset+0xa>
 8005704:	2300      	movs	r3, #0
 8005706:	9301      	str	r3, [sp, #4]
 8005708:	6913      	ldr	r3, [r2, #16]
 800570a:	4909      	ldr	r1, [pc, #36]	@ (8005730 <USB_CoreReset+0x48>)
 800570c:	f043 0301 	orr.w	r3, r3, #1
 8005710:	6113      	str	r3, [r2, #16]
 8005712:	9b01      	ldr	r3, [sp, #4]
 8005714:	3301      	adds	r3, #1
 8005716:	9301      	str	r3, [sp, #4]
 8005718:	9b01      	ldr	r3, [sp, #4]
 800571a:	428b      	cmp	r3, r1
 800571c:	d805      	bhi.n	800572a <USB_CoreReset+0x42>
 800571e:	6910      	ldr	r0, [r2, #16]
 8005720:	f010 0001 	ands.w	r0, r0, #1
 8005724:	d1f5      	bne.n	8005712 <USB_CoreReset+0x2a>
 8005726:	b002      	add	sp, #8
 8005728:	4770      	bx	lr
 800572a:	2003      	movs	r0, #3
 800572c:	e7fb      	b.n	8005726 <USB_CoreReset+0x3e>
 800572e:	bf00      	nop
 8005730:	00030d40 	.word	0x00030d40

08005734 <USB_CoreInit>:
 8005734:	b084      	sub	sp, #16
 8005736:	b538      	push	{r3, r4, r5, lr}
 8005738:	ad05      	add	r5, sp, #20
 800573a:	e885 000e 	stmia.w	r5, {r1, r2, r3}
 800573e:	9b0a      	ldr	r3, [sp, #40]	@ 0x28
 8005740:	2b01      	cmp	r3, #1
 8005742:	4604      	mov	r4, r0
 8005744:	d125      	bne.n	8005792 <USB_CoreInit+0x5e>
 8005746:	6b83      	ldr	r3, [r0, #56]	@ 0x38
 8005748:	f423 3380 	bic.w	r3, r3, #65536	@ 0x10000
 800574c:	6383      	str	r3, [r0, #56]	@ 0x38
 800574e:	68c3      	ldr	r3, [r0, #12]
 8005750:	f423 0384 	bic.w	r3, r3, #4325376	@ 0x420000
 8005754:	f023 0340 	bic.w	r3, r3, #64	@ 0x40
 8005758:	60c3      	str	r3, [r0, #12]
 800575a:	68c3      	ldr	r3, [r0, #12]
 800575c:	f423 1340 	bic.w	r3, r3, #3145728	@ 0x300000
 8005760:	60c3      	str	r3, [r0, #12]
 8005762:	9b11      	ldr	r3, [sp, #68]	@ 0x44
 8005764:	2b01      	cmp	r3, #1
 8005766:	bf02      	ittt	eq
 8005768:	68c3      	ldreq	r3, [r0, #12]
 800576a:	f443 1380 	orreq.w	r3, r3, #1048576	@ 0x100000
 800576e:	60c3      	streq	r3, [r0, #12]
 8005770:	f7ff ffba 	bl	80056e8 <USB_CoreReset>
 8005774:	9b08      	ldr	r3, [sp, #32]
 8005776:	2b01      	cmp	r3, #1
 8005778:	d107      	bne.n	800578a <USB_CoreInit+0x56>
 800577a:	68a3      	ldr	r3, [r4, #8]
 800577c:	f043 0306 	orr.w	r3, r3, #6
 8005780:	60a3      	str	r3, [r4, #8]
 8005782:	68a3      	ldr	r3, [r4, #8]
 8005784:	f043 0320 	orr.w	r3, r3, #32
 8005788:	60a3      	str	r3, [r4, #8]
 800578a:	e8bd 4038 	ldmia.w	sp!, {r3, r4, r5, lr}
 800578e:	b004      	add	sp, #16
 8005790:	4770      	bx	lr
 8005792:	68c3      	ldr	r3, [r0, #12]
 8005794:	f043 0340 	orr.w	r3, r3, #64	@ 0x40
 8005798:	60c3      	str	r3, [r0, #12]
 800579a:	f7ff ffa5 	bl	80056e8 <USB_CoreReset>
 800579e:	9b0e      	ldr	r3, [sp, #56]	@ 0x38
 80057a0:	b923      	cbnz	r3, 80057ac <USB_CoreInit+0x78>
 80057a2:	6ba3      	ldr	r3, [r4, #56]	@ 0x38
 80057a4:	f443 3380 	orr.w	r3, r3, #65536	@ 0x10000
 80057a8:	63a3      	str	r3, [r4, #56]	@ 0x38
 80057aa:	e7e3      	b.n	8005774 <USB_CoreInit+0x40>
 80057ac:	6ba3      	ldr	r3, [r4, #56]	@ 0x38
 80057ae:	f423 3380 	bic.w	r3, r3, #65536	@ 0x10000
 80057b2:	e7f9      	b.n	80057a8 <USB_CoreInit+0x74>

080057b4 <USB_SetTurnaroundTime>:
 80057b4:	2a02      	cmp	r2, #2
 80057b6:	d14a      	bne.n	800584e <USB_SetTurnaroundTime+0x9a>
 80057b8:	4b27      	ldr	r3, [pc, #156]	@ (8005858 <USB_SetTurnaroundTime+0xa4>)
 80057ba:	4a28      	ldr	r2, [pc, #160]	@ (800585c <USB_SetTurnaroundTime+0xa8>)
 80057bc:	440b      	add	r3, r1
 80057be:	4293      	cmp	r3, r2
 80057c0:	d939      	bls.n	8005836 <USB_SetTurnaroundTime+0x82>
 80057c2:	4b27      	ldr	r3, [pc, #156]	@ (8005860 <USB_SetTurnaroundTime+0xac>)
 80057c4:	4a27      	ldr	r2, [pc, #156]	@ (8005864 <USB_SetTurnaroundTime+0xb0>)
 80057c6:	440b      	add	r3, r1
 80057c8:	4293      	cmp	r3, r2
 80057ca:	d936      	bls.n	800583a <USB_SetTurnaroundTime+0x86>
 80057cc:	4a26      	ldr	r2, [pc, #152]	@ (8005868 <USB_SetTurnaroundTime+0xb4>)
 80057ce:	f5a1 0374 	sub.w	r3, r1, #15990784	@ 0xf40000
 80057d2:	f5a3 5310 	sub.w	r3, r3, #9216	@ 0x2400
 80057d6:	4293      	cmp	r3, r2
 80057d8:	d931      	bls.n	800583e <USB_SetTurnaroundTime+0x8a>
 80057da:	4a24      	ldr	r2, [pc, #144]	@ (800586c <USB_SetTurnaroundTime+0xb8>)
 80057dc:	f1a1 7383 	sub.w	r3, r1, #17170432	@ 0x1060000
 80057e0:	f5a3 43e7 	sub.w	r3, r3, #29568	@ 0x7380
 80057e4:	4293      	cmp	r3, r2
 80057e6:	d32c      	bcc.n	8005842 <USB_SetTurnaroundTime+0x8e>
 80057e8:	4b21      	ldr	r3, [pc, #132]	@ (8005870 <USB_SetTurnaroundTime+0xbc>)
 80057ea:	4a22      	ldr	r2, [pc, #136]	@ (8005874 <USB_SetTurnaroundTime+0xc0>)
 80057ec:	440b      	add	r3, r1
 80057ee:	4293      	cmp	r3, r2
 80057f0:	d929      	bls.n	8005846 <USB_SetTurnaroundTime+0x92>
 80057f2:	4b21      	ldr	r3, [pc, #132]	@ (8005878 <USB_SetTurnaroundTime+0xc4>)
 80057f4:	4a21      	ldr	r2, [pc, #132]	@ (800587c <USB_SetTurnaroundTime+0xc8>)
 80057f6:	440b      	add	r3, r1
 80057f8:	4293      	cmp	r3, r2
 80057fa:	d326      	bcc.n	800584a <USB_SetTurnaroundTime+0x96>
 80057fc:	4b20      	ldr	r3, [pc, #128]	@ (8005880 <USB_SetTurnaroundTime+0xcc>)
 80057fe:	4a21      	ldr	r2, [pc, #132]	@ (8005884 <USB_SetTurnaroundTime+0xd0>)
 8005800:	440b      	add	r3, r1
 8005802:	4293      	cmp	r3, r2
 8005804:	d323      	bcc.n	800584e <USB_SetTurnaroundTime+0x9a>
 8005806:	4a20      	ldr	r2, [pc, #128]	@ (8005888 <USB_SetTurnaroundTime+0xd4>)
 8005808:	f1a1 73b7 	sub.w	r3, r1, #23986176	@ 0x16e0000
 800580c:	f5a3 5358 	sub.w	r3, r3, #13824	@ 0x3600
 8005810:	4293      	cmp	r3, r2
 8005812:	d31e      	bcc.n	8005852 <USB_SetTurnaroundTime+0x9e>
 8005814:	4b1d      	ldr	r3, [pc, #116]	@ (800588c <USB_SetTurnaroundTime+0xd8>)
 8005816:	4a1e      	ldr	r2, [pc, #120]	@ (8005890 <USB_SetTurnaroundTime+0xdc>)
 8005818:	440b      	add	r3, r1
 800581a:	4293      	cmp	r3, r2
 800581c:	bf2c      	ite	cs
 800581e:	2306      	movcs	r3, #6
 8005820:	2307      	movcc	r3, #7
 8005822:	68c2      	ldr	r2, [r0, #12]
 8005824:	f422 5270 	bic.w	r2, r2, #15360	@ 0x3c00
 8005828:	60c2      	str	r2, [r0, #12]
 800582a:	68c2      	ldr	r2, [r0, #12]
 800582c:	ea42 2383 	orr.w	r3, r2, r3, lsl #10
 8005830:	60c3      	str	r3, [r0, #12]
 8005832:	2000      	movs	r0, #0
 8005834:	4770      	bx	lr
 8005836:	230f      	movs	r3, #15
 8005838:	e7f3      	b.n	8005822 <USB_SetTurnaroundTime+0x6e>
 800583a:	230e      	movs	r3, #14
 800583c:	e7f1      	b.n	8005822 <USB_SetTurnaroundTime+0x6e>
 800583e:	230d      	movs	r3, #13
 8005840:	e7ef      	b.n	8005822 <USB_SetTurnaroundTime+0x6e>
 8005842:	230c      	movs	r3, #12
 8005844:	e7ed      	b.n	8005822 <USB_SetTurnaroundTime+0x6e>
 8005846:	230b      	movs	r3, #11
 8005848:	e7eb      	b.n	8005822 <USB_SetTurnaroundTime+0x6e>
 800584a:	230a      	movs	r3, #10
 800584c:	e7e9      	b.n	8005822 <USB_SetTurnaroundTime+0x6e>
 800584e:	2309      	movs	r3, #9
 8005850:	e7e7      	b.n	8005822 <USB_SetTurnaroundTime+0x6e>
 8005852:	2308      	movs	r3, #8
 8005854:	e7e5      	b.n	8005822 <USB_SetTurnaroundTime+0x6e>
 8005856:	bf00      	nop
 8005858:	ff275340 	.word	0xff275340
 800585c:	000c34ff 	.word	0x000c34ff
 8005860:	ff1b1e40 	.word	0xff1b1e40
 8005864:	000f423f 	.word	0x000f423f
 8005868:	00124f7f 	.word	0x00124f7f
 800586c:	0013d620 	.word	0x0013d620
 8005870:	fee5b660 	.word	0xfee5b660
 8005874:	0016e35f 	.word	0x0016e35f
 8005878:	feced300 	.word	0xfeced300
 800587c:	001b7740 	.word	0x001b7740
 8005880:	feb35bc0 	.word	0xfeb35bc0
 8005884:	002191c0 	.word	0x002191c0
 8005888:	00387520 	.word	0x00387520
 800588c:	fe5954e0 	.word	0xfe5954e0
 8005890:	00419ce0 	.word	0x00419ce0

08005894 <USB_EnableGlobalInt>:
 8005894:	6883      	ldr	r3, [r0, #8]
 8005896:	f043 0301 	orr.w	r3, r3, #1
 800589a:	6083      	str	r3, [r0, #8]
 800589c:	2000      	movs	r0, #0
 800589e:	4770      	bx	lr

080058a0 <USB_DisableGlobalInt>:
 80058a0:	6883      	ldr	r3, [r0, #8]
 80058a2:	f023 0301 	bic.w	r3, r3, #1
 80058a6:	6083      	str	r3, [r0, #8]
 80058a8:	2000      	movs	r0, #0
 80058aa:	4770      	bx	lr

080058ac <USB_SetCurrentMode>:
 80058ac:	b538      	push	{r3, r4, r5, lr}
 80058ae:	68c3      	ldr	r3, [r0, #12]
 80058b0:	2901      	cmp	r1, #1
 80058b2:	f023 43c0 	bic.w	r3, r3, #1610612736	@ 0x60000000
 80058b6:	4605      	mov	r5, r0
 80058b8:	460c      	mov	r4, r1
 80058ba:	60c3      	str	r3, [r0, #12]
 80058bc:	d114      	bne.n	80058e8 <USB_SetCurrentMode+0x3c>
 80058be:	68c3      	ldr	r3, [r0, #12]
 80058c0:	f043 5300 	orr.w	r3, r3, #536870912	@ 0x20000000
 80058c4:	60c3      	str	r3, [r0, #12]
 80058c6:	2400      	movs	r4, #0
 80058c8:	2001      	movs	r0, #1
 80058ca:	f7fb fef5 	bl	80016b8 <HAL_Delay>
 80058ce:	696b      	ldr	r3, [r5, #20]
 80058d0:	07d9      	lsls	r1, r3, #31
 80058d2:	f104 0401 	add.w	r4, r4, #1
 80058d6:	d402      	bmi.n	80058de <USB_SetCurrentMode+0x32>
 80058d8:	2c32      	cmp	r4, #50	@ 0x32
 80058da:	d1f5      	bne.n	80058c8 <USB_SetCurrentMode+0x1c>
 80058dc:	2432      	movs	r4, #50	@ 0x32
 80058de:	f1a4 0332 	sub.w	r3, r4, #50	@ 0x32
 80058e2:	4258      	negs	r0, r3
 80058e4:	4158      	adcs	r0, r3
 80058e6:	bd38      	pop	{r3, r4, r5, pc}
 80058e8:	b971      	cbnz	r1, 8005908 <USB_SetCurrentMode+0x5c>
 80058ea:	68c3      	ldr	r3, [r0, #12]
 80058ec:	f043 4380 	orr.w	r3, r3, #1073741824	@ 0x40000000
 80058f0:	60c3      	str	r3, [r0, #12]
 80058f2:	2001      	movs	r0, #1
 80058f4:	f7fb fee0 	bl	80016b8 <HAL_Delay>
 80058f8:	696b      	ldr	r3, [r5, #20]
 80058fa:	07da      	lsls	r2, r3, #31
 80058fc:	f104 0401 	add.w	r4, r4, #1
 8005900:	d5ed      	bpl.n	80058de <USB_SetCurrentMode+0x32>
 8005902:	2c32      	cmp	r4, #50	@ 0x32
 8005904:	d1f5      	bne.n	80058f2 <USB_SetCurrentMode+0x46>
 8005906:	e7e9      	b.n	80058dc <USB_SetCurrentMode+0x30>
 8005908:	2001      	movs	r0, #1
 800590a:	e7ec      	b.n	80058e6 <USB_SetCurrentMode+0x3a>

0800590c <USB_FlushTxFifo>:
 800590c:	b082      	sub	sp, #8
 800590e:	4602      	mov	r2, r0
 8005910:	2300      	movs	r3, #0
 8005912:	4810      	ldr	r0, [pc, #64]	@ (8005954 <USB_FlushTxFifo+0x48>)
 8005914:	9301      	str	r3, [sp, #4]
 8005916:	9b01      	ldr	r3, [sp, #4]
 8005918:	3301      	adds	r3, #1
 800591a:	9301      	str	r3, [sp, #4]
 800591c:	9b01      	ldr	r3, [sp, #4]
 800591e:	4283      	cmp	r3, r0
 8005920:	d815      	bhi.n	800594e <USB_FlushTxFifo+0x42>
 8005922:	6913      	ldr	r3, [r2, #16]
 8005924:	2b00      	cmp	r3, #0
 8005926:	daf6      	bge.n	8005916 <USB_FlushTxFifo+0xa>
 8005928:	0189      	lsls	r1, r1, #6
 800592a:	f041 0120 	orr.w	r1, r1, #32
 800592e:	2300      	movs	r3, #0
 8005930:	9301      	str	r3, [sp, #4]
 8005932:	6111      	str	r1, [r2, #16]
 8005934:	4907      	ldr	r1, [pc, #28]	@ (8005954 <USB_FlushTxFifo+0x48>)
 8005936:	9b01      	ldr	r3, [sp, #4]
 8005938:	3301      	adds	r3, #1
 800593a:	9301      	str	r3, [sp, #4]
 800593c:	9b01      	ldr	r3, [sp, #4]
 800593e:	428b      	cmp	r3, r1
 8005940:	d805      	bhi.n	800594e <USB_FlushTxFifo+0x42>
 8005942:	6910      	ldr	r0, [r2, #16]
 8005944:	f010 0020 	ands.w	r0, r0, #32
 8005948:	d1f5      	bne.n	8005936 <USB_FlushTxFifo+0x2a>
 800594a:	b002      	add	sp, #8
 800594c:	4770      	bx	lr
 800594e:	2003      	movs	r0, #3
 8005950:	e7fb      	b.n	800594a <USB_FlushTxFifo+0x3e>
 8005952:	bf00      	nop
 8005954:	00030d40 	.word	0x00030d40

08005958 <USB_FlushRxFifo>:
 8005958:	b082      	sub	sp, #8
 800595a:	2300      	movs	r3, #0
 800595c:	490f      	ldr	r1, [pc, #60]	@ (800599c <USB_FlushRxFifo+0x44>)
 800595e:	9301      	str	r3, [sp, #4]
 8005960:	4602      	mov	r2, r0
 8005962:	9b01      	ldr	r3, [sp, #4]
 8005964:	3301      	adds	r3, #1
 8005966:	9301      	str	r3, [sp, #4]
 8005968:	9b01      	ldr	r3, [sp, #4]
 800596a:	428b      	cmp	r3, r1
 800596c:	d813      	bhi.n	8005996 <USB_FlushRxFifo+0x3e>
 800596e:	6913      	ldr	r3, [r2, #16]
 8005970:	2b00      	cmp	r3, #0
 8005972:	daf6      	bge.n	8005962 <USB_FlushRxFifo+0xa>
 8005974:	2300      	movs	r3, #0
 8005976:	9301      	str	r3, [sp, #4]
 8005978:	4908      	ldr	r1, [pc, #32]	@ (800599c <USB_FlushRxFifo+0x44>)
 800597a:	2310      	movs	r3, #16
 800597c:	6113      	str	r3, [r2, #16]
 800597e:	9b01      	ldr	r3, [sp, #4]
 8005980:	3301      	adds	r3, #1
 8005982:	9301      	str	r3, [sp, #4]
 8005984:	9b01      	ldr	r3, [sp, #4]
 8005986:	428b      	cmp	r3, r1
 8005988:	d805      	bhi.n	8005996 <USB_FlushRxFifo+0x3e>
 800598a:	6910      	ldr	r0, [r2, #16]
 800598c:	f010 0010 	ands.w	r0, r0, #16
 8005990:	d1f5      	bne.n	800597e <USB_FlushRxFifo+0x26>
 8005992:	b002      	add	sp, #8
 8005994:	4770      	bx	lr
 8005996:	2003      	movs	r0, #3
 8005998:	e7fb      	b.n	8005992 <USB_FlushRxFifo+0x3a>
 800599a:	bf00      	nop
 800599c:	00030d40 	.word	0x00030d40

080059a0 <USB_SetDevSpeed>:
 80059a0:	f8d0 3800 	ldr.w	r3, [r0, #2048]	@ 0x800
 80059a4:	4319      	orrs	r1, r3
 80059a6:	f8c0 1800 	str.w	r1, [r0, #2048]	@ 0x800
 80059aa:	2000      	movs	r0, #0
 80059ac:	4770      	bx	lr
	...

080059b0 <USB_DevInit>:
 80059b0:	b084      	sub	sp, #16
 80059b2:	e92d 43f8 	stmdb	sp!, {r3, r4, r5, r6, r7, r8, r9, lr}
 80059b6:	4604      	mov	r4, r0
 80059b8:	a809      	add	r0, sp, #36	@ 0x24
 80059ba:	e880 000e 	stmia.w	r0, {r1, r2, r3}
 80059be:	9e13      	ldr	r6, [sp, #76]	@ 0x4c
 80059c0:	2300      	movs	r3, #0
 80059c2:	460f      	mov	r7, r1
 80059c4:	4619      	mov	r1, r3
 80059c6:	f103 0240 	add.w	r2, r3, #64	@ 0x40
 80059ca:	eb04 0282 	add.w	r2, r4, r2, lsl #2
 80059ce:	3301      	adds	r3, #1
 80059d0:	2b0f      	cmp	r3, #15
 80059d2:	6051      	str	r1, [r2, #4]
 80059d4:	d1f7      	bne.n	80059c6 <USB_DevInit+0x16>
 80059d6:	f504 6800 	add.w	r8, r4, #2048	@ 0x800
 80059da:	2e00      	cmp	r6, #0
 80059dc:	d173      	bne.n	8005ac6 <USB_DevInit+0x116>
 80059de:	f8d8 3004 	ldr.w	r3, [r8, #4]
 80059e2:	f043 0302 	orr.w	r3, r3, #2
 80059e6:	f8c8 3004 	str.w	r3, [r8, #4]
 80059ea:	6ba3      	ldr	r3, [r4, #56]	@ 0x38
 80059ec:	f443 1300 	orr.w	r3, r3, #2097152	@ 0x200000
 80059f0:	63a3      	str	r3, [r4, #56]	@ 0x38
 80059f2:	6ba3      	ldr	r3, [r4, #56]	@ 0x38
 80059f4:	f423 2300 	bic.w	r3, r3, #524288	@ 0x80000
 80059f8:	63a3      	str	r3, [r4, #56]	@ 0x38
 80059fa:	6ba3      	ldr	r3, [r4, #56]	@ 0x38
 80059fc:	f423 2380 	bic.w	r3, r3, #262144	@ 0x40000
 8005a00:	63a3      	str	r3, [r4, #56]	@ 0x38
 8005a02:	2300      	movs	r3, #0
 8005a04:	f8c4 3e00 	str.w	r3, [r4, #3584]	@ 0xe00
 8005a08:	f8d4 3800 	ldr.w	r3, [r4, #2048]	@ 0x800
 8005a0c:	f8c4 3800 	str.w	r3, [r4, #2048]	@ 0x800
 8005a10:	9b0e      	ldr	r3, [sp, #56]	@ 0x38
 8005a12:	2b01      	cmp	r3, #1
 8005a14:	d161      	bne.n	8005ada <USB_DevInit+0x12a>
 8005a16:	990b      	ldr	r1, [sp, #44]	@ 0x2c
 8005a18:	2900      	cmp	r1, #0
 8005a1a:	d15c      	bne.n	8005ad6 <USB_DevInit+0x126>
 8005a1c:	4620      	mov	r0, r4
 8005a1e:	f7ff ffbf 	bl	80059a0 <USB_SetDevSpeed>
 8005a22:	2110      	movs	r1, #16
 8005a24:	4620      	mov	r0, r4
 8005a26:	f7ff ff71 	bl	800590c <USB_FlushTxFifo>
 8005a2a:	4605      	mov	r5, r0
 8005a2c:	4620      	mov	r0, r4
 8005a2e:	f7ff ff93 	bl	8005958 <USB_FlushRxFifo>
 8005a32:	4328      	orrs	r0, r5
 8005a34:	b2c0      	uxtb	r0, r0
 8005a36:	2300      	movs	r3, #0
 8005a38:	3800      	subs	r0, #0
 8005a3a:	f8c8 3010 	str.w	r3, [r8, #16]
 8005a3e:	bf18      	it	ne
 8005a40:	2001      	movne	r0, #1
 8005a42:	f8c8 3014 	str.w	r3, [r8, #20]
 8005a46:	f504 6210 	add.w	r2, r4, #2304	@ 0x900
 8005a4a:	f8c8 301c 	str.w	r3, [r8, #28]
 8005a4e:	4619      	mov	r1, r3
 8005a50:	f04f 4590 	mov.w	r5, #1207959552	@ 0x48000000
 8005a54:	f04f 6c00 	mov.w	ip, #134217728	@ 0x8000000
 8005a58:	f64f 3e7f 	movw	lr, #64383	@ 0xfb7f
 8005a5c:	42bb      	cmp	r3, r7
 8005a5e:	d13e      	bne.n	8005ade <USB_DevInit+0x12e>
 8005a60:	2200      	movs	r2, #0
 8005a62:	f504 6330 	add.w	r3, r4, #2816	@ 0xb00
 8005a66:	4611      	mov	r1, r2
 8005a68:	f04f 4590 	mov.w	r5, #1207959552	@ 0x48000000
 8005a6c:	f04f 6c00 	mov.w	ip, #134217728	@ 0x8000000
 8005a70:	f64f 3e7f 	movw	lr, #64383	@ 0xfb7f
 8005a74:	42ba      	cmp	r2, r7
 8005a76:	d144      	bne.n	8005b02 <USB_DevInit+0x152>
 8005a78:	f8d8 3010 	ldr.w	r3, [r8, #16]
 8005a7c:	f423 7380 	bic.w	r3, r3, #256	@ 0x100
 8005a80:	f8c8 3010 	str.w	r3, [r8, #16]
 8005a84:	2300      	movs	r3, #0
 8005a86:	61a3      	str	r3, [r4, #24]
 8005a88:	f06f 4380 	mvn.w	r3, #1073741824	@ 0x40000000
 8005a8c:	6163      	str	r3, [r4, #20]
 8005a8e:	9b0c      	ldr	r3, [sp, #48]	@ 0x30
 8005a90:	b91b      	cbnz	r3, 8005a9a <USB_DevInit+0xea>
 8005a92:	69a3      	ldr	r3, [r4, #24]
 8005a94:	f043 0310 	orr.w	r3, r3, #16
 8005a98:	61a3      	str	r3, [r4, #24]
 8005a9a:	69a2      	ldr	r2, [r4, #24]
 8005a9c:	4b22      	ldr	r3, [pc, #136]	@ (8005b28 <USB_DevInit+0x178>)
 8005a9e:	4313      	orrs	r3, r2
 8005aa0:	61a3      	str	r3, [r4, #24]
 8005aa2:	9b0f      	ldr	r3, [sp, #60]	@ 0x3c
 8005aa4:	b11b      	cbz	r3, 8005aae <USB_DevInit+0xfe>
 8005aa6:	69a3      	ldr	r3, [r4, #24]
 8005aa8:	f043 0308 	orr.w	r3, r3, #8
 8005aac:	61a3      	str	r3, [r4, #24]
 8005aae:	2e01      	cmp	r6, #1
 8005ab0:	bf01      	itttt	eq
 8005ab2:	69a3      	ldreq	r3, [r4, #24]
 8005ab4:	f043 4380 	orreq.w	r3, r3, #1073741824	@ 0x40000000
 8005ab8:	f043 0304 	orreq.w	r3, r3, #4
 8005abc:	61a3      	streq	r3, [r4, #24]
 8005abe:	e8bd 43f8 	ldmia.w	sp!, {r3, r4, r5, r6, r7, r8, r9, lr}
 8005ac2:	b004      	add	sp, #16
 8005ac4:	4770      	bx	lr
 8005ac6:	6ba3      	ldr	r3, [r4, #56]	@ 0x38
 8005ac8:	f423 1300 	bic.w	r3, r3, #2097152	@ 0x200000
 8005acc:	63a3      	str	r3, [r4, #56]	@ 0x38
 8005ace:	6ba3      	ldr	r3, [r4, #56]	@ 0x38
 8005ad0:	f443 2300 	orr.w	r3, r3, #524288	@ 0x80000
 8005ad4:	e794      	b.n	8005a00 <USB_DevInit+0x50>
 8005ad6:	4619      	mov	r1, r3
 8005ad8:	e7a0      	b.n	8005a1c <USB_DevInit+0x6c>
 8005ada:	2103      	movs	r1, #3
 8005adc:	e79e      	b.n	8005a1c <USB_DevInit+0x6c>
 8005ade:	f8d2 9000 	ldr.w	r9, [r2]
 8005ae2:	f1b9 0f00 	cmp.w	r9, #0
 8005ae6:	da0a      	bge.n	8005afe <USB_DevInit+0x14e>
 8005ae8:	b93b      	cbnz	r3, 8005afa <USB_DevInit+0x14a>
 8005aea:	f8c2 c000 	str.w	ip, [r2]
 8005aee:	6111      	str	r1, [r2, #16]
 8005af0:	3301      	adds	r3, #1
 8005af2:	f8c2 e008 	str.w	lr, [r2, #8]
 8005af6:	3220      	adds	r2, #32
 8005af8:	e7b0      	b.n	8005a5c <USB_DevInit+0xac>
 8005afa:	6015      	str	r5, [r2, #0]
 8005afc:	e7f7      	b.n	8005aee <USB_DevInit+0x13e>
 8005afe:	6011      	str	r1, [r2, #0]
 8005b00:	e7f5      	b.n	8005aee <USB_DevInit+0x13e>
 8005b02:	f8d3 9000 	ldr.w	r9, [r3]
 8005b06:	f1b9 0f00 	cmp.w	r9, #0
 8005b0a:	da0a      	bge.n	8005b22 <USB_DevInit+0x172>
 8005b0c:	b93a      	cbnz	r2, 8005b1e <USB_DevInit+0x16e>
 8005b0e:	f8c3 c000 	str.w	ip, [r3]
 8005b12:	6119      	str	r1, [r3, #16]
 8005b14:	3201      	adds	r2, #1
 8005b16:	f8c3 e008 	str.w	lr, [r3, #8]
 8005b1a:	3320      	adds	r3, #32
 8005b1c:	e7aa      	b.n	8005a74 <USB_DevInit+0xc4>
 8005b1e:	601d      	str	r5, [r3, #0]
 8005b20:	e7f7      	b.n	8005b12 <USB_DevInit+0x162>
 8005b22:	6019      	str	r1, [r3, #0]
 8005b24:	e7f5      	b.n	8005b12 <USB_DevInit+0x162>
 8005b26:	bf00      	nop
 8005b28:	803c3800 	.word	0x803c3800

08005b2c <USB_GetDevSpeed>:
 8005b2c:	f8d0 3808 	ldr.w	r3, [r0, #2056]	@ 0x808
 8005b30:	f013 0006 	ands.w	r0, r3, #6
 8005b34:	d004      	beq.n	8005b40 <USB_GetDevSpeed+0x14>
 8005b36:	f013 0f02 	tst.w	r3, #2
 8005b3a:	bf14      	ite	ne
 8005b3c:	2002      	movne	r0, #2
 8005b3e:	200f      	moveq	r0, #15
 8005b40:	4770      	bx	lr

08005b42 <USB_ActivateEndpoint>:
 8005b42:	b530      	push	{r4, r5, lr}
 8005b44:	780c      	ldrb	r4, [r1, #0]
 8005b46:	2201      	movs	r2, #1
 8005b48:	f004 050f 	and.w	r5, r4, #15
 8005b4c:	40aa      	lsls	r2, r5
 8005b4e:	784d      	ldrb	r5, [r1, #1]
 8005b50:	2d01      	cmp	r5, #1
 8005b52:	f500 6300 	add.w	r3, r0, #2048	@ 0x800
 8005b56:	eb00 1044 	add.w	r0, r0, r4, lsl #5
 8005b5a:	d119      	bne.n	8005b90 <USB_ActivateEndpoint+0x4e>
 8005b5c:	69dd      	ldr	r5, [r3, #28]
 8005b5e:	432a      	orrs	r2, r5
 8005b60:	61da      	str	r2, [r3, #28]
 8005b62:	f8d0 3900 	ldr.w	r3, [r0, #2304]	@ 0x900
 8005b66:	041a      	lsls	r2, r3, #16
 8005b68:	d410      	bmi.n	8005b8c <USB_ActivateEndpoint+0x4a>
 8005b6a:	68ca      	ldr	r2, [r1, #12]
 8005b6c:	f8d0 5900 	ldr.w	r5, [r0, #2304]	@ 0x900
 8005b70:	f3c2 030a 	ubfx	r3, r2, #0, #11
 8005b74:	790a      	ldrb	r2, [r1, #4]
 8005b76:	432b      	orrs	r3, r5
 8005b78:	ea43 4382 	orr.w	r3, r3, r2, lsl #18
 8005b7c:	ea43 5384 	orr.w	r3, r3, r4, lsl #22
 8005b80:	f043 5380 	orr.w	r3, r3, #268435456	@ 0x10000000
 8005b84:	f443 4300 	orr.w	r3, r3, #32768	@ 0x8000
 8005b88:	f8c0 3900 	str.w	r3, [r0, #2304]	@ 0x900
 8005b8c:	2000      	movs	r0, #0
 8005b8e:	bd30      	pop	{r4, r5, pc}
 8005b90:	69dc      	ldr	r4, [r3, #28]
 8005b92:	ea44 4202 	orr.w	r2, r4, r2, lsl #16
 8005b96:	61da      	str	r2, [r3, #28]
 8005b98:	f8d0 3b00 	ldr.w	r3, [r0, #2816]	@ 0xb00
 8005b9c:	041b      	lsls	r3, r3, #16
 8005b9e:	d4f5      	bmi.n	8005b8c <USB_ActivateEndpoint+0x4a>
 8005ba0:	68cb      	ldr	r3, [r1, #12]
 8005ba2:	f8d0 2b00 	ldr.w	r2, [r0, #2816]	@ 0xb00
 8005ba6:	f3c3 030a 	ubfx	r3, r3, #0, #11
 8005baa:	4313      	orrs	r3, r2
 8005bac:	790a      	ldrb	r2, [r1, #4]
 8005bae:	ea43 4382 	orr.w	r3, r3, r2, lsl #18
 8005bb2:	f043 5380 	orr.w	r3, r3, #268435456	@ 0x10000000
 8005bb6:	f443 4300 	orr.w	r3, r3, #32768	@ 0x8000
 8005bba:	f8c0 3b00 	str.w	r3, [r0, #2816]	@ 0xb00
 8005bbe:	e7e5      	b.n	8005b8c <USB_ActivateEndpoint+0x4a>

08005bc0 <USB_DeactivateEndpoint>:
 8005bc0:	b510      	push	{r4, lr}
 8005bc2:	780a      	ldrb	r2, [r1, #0]
 8005bc4:	7849      	ldrb	r1, [r1, #1]
 8005bc6:	2901      	cmp	r1, #1
 8005bc8:	eb00 1342 	add.w	r3, r0, r2, lsl #5
 8005bcc:	f500 6000 	add.w	r0, r0, #2048	@ 0x800
 8005bd0:	f002 020f 	and.w	r2, r2, #15
 8005bd4:	d122      	bne.n	8005c1c <USB_DeactivateEndpoint+0x5c>
 8005bd6:	f8d3 1900 	ldr.w	r1, [r3, #2304]	@ 0x900
 8005bda:	2900      	cmp	r1, #0
 8005bdc:	da0b      	bge.n	8005bf6 <USB_DeactivateEndpoint+0x36>
 8005bde:	f8d3 1900 	ldr.w	r1, [r3, #2304]	@ 0x900
 8005be2:	f041 6100 	orr.w	r1, r1, #134217728	@ 0x8000000
 8005be6:	f8c3 1900 	str.w	r1, [r3, #2304]	@ 0x900
 8005bea:	f8d3 1900 	ldr.w	r1, [r3, #2304]	@ 0x900
 8005bee:	f041 4180 	orr.w	r1, r1, #1073741824	@ 0x40000000
 8005bf2:	f8c3 1900 	str.w	r1, [r3, #2304]	@ 0x900
 8005bf6:	6bc4      	ldr	r4, [r0, #60]	@ 0x3c
 8005bf8:	2101      	movs	r1, #1
 8005bfa:	fa01 f202 	lsl.w	r2, r1, r2
 8005bfe:	ea24 0402 	bic.w	r4, r4, r2
 8005c02:	63c4      	str	r4, [r0, #60]	@ 0x3c
 8005c04:	69c1      	ldr	r1, [r0, #28]
 8005c06:	ea21 0202 	bic.w	r2, r1, r2
 8005c0a:	61c2      	str	r2, [r0, #28]
 8005c0c:	f8d3 1900 	ldr.w	r1, [r3, #2304]	@ 0x900
 8005c10:	4a14      	ldr	r2, [pc, #80]	@ (8005c64 <USB_DeactivateEndpoint+0xa4>)
 8005c12:	400a      	ands	r2, r1
 8005c14:	f8c3 2900 	str.w	r2, [r3, #2304]	@ 0x900
 8005c18:	2000      	movs	r0, #0
 8005c1a:	bd10      	pop	{r4, pc}
 8005c1c:	f8d3 1b00 	ldr.w	r1, [r3, #2816]	@ 0xb00
 8005c20:	2900      	cmp	r1, #0
 8005c22:	da0b      	bge.n	8005c3c <USB_DeactivateEndpoint+0x7c>
 8005c24:	f8d3 1b00 	ldr.w	r1, [r3, #2816]	@ 0xb00
 8005c28:	f041 6100 	orr.w	r1, r1, #134217728	@ 0x8000000
 8005c2c:	f8c3 1b00 	str.w	r1, [r3, #2816]	@ 0xb00
 8005c30:	f8d3 1b00 	ldr.w	r1, [r3, #2816]	@ 0xb00
 8005c34:	f041 4180 	orr.w	r1, r1, #1073741824	@ 0x40000000
 8005c38:	f8c3 1b00 	str.w	r1, [r3, #2816]	@ 0xb00
 8005c3c:	6bc4      	ldr	r4, [r0, #60]	@ 0x3c
 8005c3e:	f44f 3180 	mov.w	r1, #65536	@ 0x10000
 8005c42:	fa01 f202 	lsl.w	r2, r1, r2
 8005c46:	ea24 0402 	bic.w	r4, r4, r2
 8005c4a:	63c4      	str	r4, [r0, #60]	@ 0x3c
 8005c4c:	69c1      	ldr	r1, [r0, #28]
 8005c4e:	ea21 0202 	bic.w	r2, r1, r2
 8005c52:	61c2      	str	r2, [r0, #28]
 8005c54:	f8d3 1b00 	ldr.w	r1, [r3, #2816]	@ 0xb00
 8005c58:	4a03      	ldr	r2, [pc, #12]	@ (8005c68 <USB_DeactivateEndpoint+0xa8>)
 8005c5a:	400a      	ands	r2, r1
 8005c5c:	f8c3 2b00 	str.w	r2, [r3, #2816]	@ 0xb00
 8005c60:	e7da      	b.n	8005c18 <USB_DeactivateEndpoint+0x58>
 8005c62:	bf00      	nop
 8005c64:	ec337800 	.word	0xec337800
 8005c68:	eff37800 	.word	0xeff37800

08005c6c <USB_EP0StartXfer>:
 8005c6c:	784b      	ldrb	r3, [r1, #1]
 8005c6e:	f8df c0f0 	ldr.w	ip, [pc, #240]	@ 8005d60 <USB_EP0StartXfer+0xf4>
 8005c72:	b5f0      	push	{r4, r5, r6, r7, lr}
 8005c74:	780e      	ldrb	r6, [r1, #0]
 8005c76:	698d      	ldr	r5, [r1, #24]
 8005c78:	4f38      	ldr	r7, [pc, #224]	@ (8005d5c <USB_EP0StartXfer+0xf0>)
 8005c7a:	2b01      	cmp	r3, #1
 8005c7c:	eb00 1446 	add.w	r4, r0, r6, lsl #5
 8005c80:	d146      	bne.n	8005d10 <USB_EP0StartXfer+0xa4>
 8005c82:	f504 6310 	add.w	r3, r4, #2304	@ 0x900
 8005c86:	b9bd      	cbnz	r5, 8005cb8 <USB_EP0StartXfer+0x4c>
 8005c88:	691d      	ldr	r5, [r3, #16]
 8005c8a:	403d      	ands	r5, r7
 8005c8c:	611d      	str	r5, [r3, #16]
 8005c8e:	691d      	ldr	r5, [r3, #16]
 8005c90:	f445 2500 	orr.w	r5, r5, #524288	@ 0x80000
 8005c94:	611d      	str	r5, [r3, #16]
 8005c96:	691d      	ldr	r5, [r3, #16]
 8005c98:	ea05 050c 	and.w	r5, r5, ip
 8005c9c:	2a01      	cmp	r2, #1
 8005c9e:	611d      	str	r5, [r3, #16]
 8005ca0:	d123      	bne.n	8005cea <USB_EP0StartXfer+0x7e>
 8005ca2:	694a      	ldr	r2, [r1, #20]
 8005ca4:	b102      	cbz	r2, 8005ca8 <USB_EP0StartXfer+0x3c>
 8005ca6:	615a      	str	r2, [r3, #20]
 8005ca8:	f8d4 3900 	ldr.w	r3, [r4, #2304]	@ 0x900
 8005cac:	f043 4304 	orr.w	r3, r3, #2214592512	@ 0x84000000
 8005cb0:	f8c4 3900 	str.w	r3, [r4, #2304]	@ 0x900
 8005cb4:	2000      	movs	r0, #0
 8005cb6:	bdf0      	pop	{r4, r5, r6, r7, pc}
 8005cb8:	f8d3 e010 	ldr.w	lr, [r3, #16]
 8005cbc:	ea0e 0c0c 	and.w	ip, lr, ip
 8005cc0:	f8c3 c010 	str.w	ip, [r3, #16]
 8005cc4:	f8d3 c010 	ldr.w	ip, [r3, #16]
 8005cc8:	ea0c 0707 	and.w	r7, ip, r7
 8005ccc:	611f      	str	r7, [r3, #16]
 8005cce:	68cf      	ldr	r7, [r1, #12]
 8005cd0:	42af      	cmp	r7, r5
 8005cd2:	691d      	ldr	r5, [r3, #16]
 8005cd4:	bf38      	it	cc
 8005cd6:	618f      	strcc	r7, [r1, #24]
 8005cd8:	f445 2500 	orr.w	r5, r5, #524288	@ 0x80000
 8005cdc:	611d      	str	r5, [r3, #16]
 8005cde:	698d      	ldr	r5, [r1, #24]
 8005ce0:	691f      	ldr	r7, [r3, #16]
 8005ce2:	f3c5 0512 	ubfx	r5, r5, #0, #19
 8005ce6:	433d      	orrs	r5, r7
 8005ce8:	e7d8      	b.n	8005c9c <USB_EP0StartXfer+0x30>
 8005cea:	f8d4 3900 	ldr.w	r3, [r4, #2304]	@ 0x900
 8005cee:	f043 4304 	orr.w	r3, r3, #2214592512	@ 0x84000000
 8005cf2:	f8c4 3900 	str.w	r3, [r4, #2304]	@ 0x900
 8005cf6:	698b      	ldr	r3, [r1, #24]
 8005cf8:	2b00      	cmp	r3, #0
 8005cfa:	d0db      	beq.n	8005cb4 <USB_EP0StartXfer+0x48>
 8005cfc:	f8d0 2834 	ldr.w	r2, [r0, #2100]	@ 0x834
 8005d00:	f006 060f 	and.w	r6, r6, #15
 8005d04:	2301      	movs	r3, #1
 8005d06:	40b3      	lsls	r3, r6
 8005d08:	4313      	orrs	r3, r2
 8005d0a:	f8c0 3834 	str.w	r3, [r0, #2100]	@ 0x834
 8005d0e:	e7d1      	b.n	8005cb4 <USB_EP0StartXfer+0x48>
 8005d10:	f8d4 0b10 	ldr.w	r0, [r4, #2832]	@ 0xb10
 8005d14:	ea00 000c 	and.w	r0, r0, ip
 8005d18:	f8c4 0b10 	str.w	r0, [r4, #2832]	@ 0xb10
 8005d1c:	f8d4 0b10 	ldr.w	r0, [r4, #2832]	@ 0xb10
 8005d20:	4038      	ands	r0, r7
 8005d22:	f504 6330 	add.w	r3, r4, #2816	@ 0xb00
 8005d26:	6118      	str	r0, [r3, #16]
 8005d28:	68c8      	ldr	r0, [r1, #12]
 8005d2a:	b105      	cbz	r5, 8005d2e <USB_EP0StartXfer+0xc2>
 8005d2c:	6188      	str	r0, [r1, #24]
 8005d2e:	691d      	ldr	r5, [r3, #16]
 8005d30:	61c8      	str	r0, [r1, #28]
 8005d32:	f445 2500 	orr.w	r5, r5, #524288	@ 0x80000
 8005d36:	611d      	str	r5, [r3, #16]
 8005d38:	691d      	ldr	r5, [r3, #16]
 8005d3a:	f3c0 0012 	ubfx	r0, r0, #0, #19
 8005d3e:	4328      	orrs	r0, r5
 8005d40:	2a01      	cmp	r2, #1
 8005d42:	6118      	str	r0, [r3, #16]
 8005d44:	d102      	bne.n	8005d4c <USB_EP0StartXfer+0xe0>
 8005d46:	690a      	ldr	r2, [r1, #16]
 8005d48:	b102      	cbz	r2, 8005d4c <USB_EP0StartXfer+0xe0>
 8005d4a:	615a      	str	r2, [r3, #20]
 8005d4c:	f8d4 3b00 	ldr.w	r3, [r4, #2816]	@ 0xb00
 8005d50:	f043 4304 	orr.w	r3, r3, #2214592512	@ 0x84000000
 8005d54:	f8c4 3b00 	str.w	r3, [r4, #2816]	@ 0xb00
 8005d58:	e7ac      	b.n	8005cb4 <USB_EP0StartXfer+0x48>
 8005d5a:	bf00      	nop
 8005d5c:	e007ffff 	.word	0xe007ffff
 8005d60:	fff80000 	.word	0xfff80000

08005d64 <USB_EPStopXfer>:
 8005d64:	b082      	sub	sp, #8
 8005d66:	2300      	movs	r3, #0
 8005d68:	784a      	ldrb	r2, [r1, #1]
 8005d6a:	9301      	str	r3, [sp, #4]
 8005d6c:	780b      	ldrb	r3, [r1, #0]
 8005d6e:	2a01      	cmp	r2, #1
 8005d70:	ea4f 1343 	mov.w	r3, r3, lsl #5
 8005d74:	d11e      	bne.n	8005db4 <USB_EPStopXfer+0x50>
 8005d76:	f500 6010 	add.w	r0, r0, #2304	@ 0x900
 8005d7a:	18c1      	adds	r1, r0, r3
 8005d7c:	58c2      	ldr	r2, [r0, r3]
 8005d7e:	2a00      	cmp	r2, #0
 8005d80:	db02      	blt.n	8005d88 <USB_EPStopXfer+0x24>
 8005d82:	2000      	movs	r0, #0
 8005d84:	b002      	add	sp, #8
 8005d86:	4770      	bx	lr
 8005d88:	58c2      	ldr	r2, [r0, r3]
 8005d8a:	f042 6200 	orr.w	r2, r2, #134217728	@ 0x8000000
 8005d8e:	50c2      	str	r2, [r0, r3]
 8005d90:	58c2      	ldr	r2, [r0, r3]
 8005d92:	f042 4280 	orr.w	r2, r2, #1073741824	@ 0x40000000
 8005d96:	50c2      	str	r2, [r0, r3]
 8005d98:	f242 7210 	movw	r2, #10000	@ 0x2710
 8005d9c:	9b01      	ldr	r3, [sp, #4]
 8005d9e:	3301      	adds	r3, #1
 8005da0:	9301      	str	r3, [sp, #4]
 8005da2:	9b01      	ldr	r3, [sp, #4]
 8005da4:	4293      	cmp	r3, r2
 8005da6:	d901      	bls.n	8005dac <USB_EPStopXfer+0x48>
 8005da8:	2001      	movs	r0, #1
 8005daa:	e7eb      	b.n	8005d84 <USB_EPStopXfer+0x20>
 8005dac:	680b      	ldr	r3, [r1, #0]
 8005dae:	2b00      	cmp	r3, #0
 8005db0:	dbf4      	blt.n	8005d9c <USB_EPStopXfer+0x38>
 8005db2:	e7e6      	b.n	8005d82 <USB_EPStopXfer+0x1e>
 8005db4:	f500 6030 	add.w	r0, r0, #2816	@ 0xb00
 8005db8:	18c1      	adds	r1, r0, r3
 8005dba:	58c2      	ldr	r2, [r0, r3]
 8005dbc:	2a00      	cmp	r2, #0
 8005dbe:	dae0      	bge.n	8005d82 <USB_EPStopXfer+0x1e>
 8005dc0:	58c2      	ldr	r2, [r0, r3]
 8005dc2:	f042 6200 	orr.w	r2, r2, #134217728	@ 0x8000000
 8005dc6:	50c2      	str	r2, [r0, r3]
 8005dc8:	58c2      	ldr	r2, [r0, r3]
 8005dca:	f042 4280 	orr.w	r2, r2, #1073741824	@ 0x40000000
 8005dce:	50c2      	str	r2, [r0, r3]
 8005dd0:	f242 7210 	movw	r2, #10000	@ 0x2710
 8005dd4:	9b01      	ldr	r3, [sp, #4]
 8005dd6:	3301      	adds	r3, #1
 8005dd8:	9301      	str	r3, [sp, #4]
 8005dda:	9b01      	ldr	r3, [sp, #4]
 8005ddc:	4293      	cmp	r3, r2
 8005dde:	d8e3      	bhi.n	8005da8 <USB_EPStopXfer+0x44>
 8005de0:	680b      	ldr	r3, [r1, #0]
 8005de2:	2b00      	cmp	r3, #0
 8005de4:	dbf6      	blt.n	8005dd4 <USB_EPStopXfer+0x70>
 8005de6:	e7cc      	b.n	8005d82 <USB_EPStopXfer+0x1e>

08005de8 <USB_WritePacket>:
 8005de8:	b510      	push	{r4, lr}
 8005dea:	f89d 4008 	ldrb.w	r4, [sp, #8]
 8005dee:	b944      	cbnz	r4, 8005e02 <USB_WritePacket+0x1a>
 8005df0:	3303      	adds	r3, #3
 8005df2:	3201      	adds	r2, #1
 8005df4:	089b      	lsrs	r3, r3, #2
 8005df6:	eb00 3002 	add.w	r0, r0, r2, lsl #12
 8005dfa:	eb01 0383 	add.w	r3, r1, r3, lsl #2
 8005dfe:	4299      	cmp	r1, r3
 8005e00:	d101      	bne.n	8005e06 <USB_WritePacket+0x1e>
 8005e02:	2000      	movs	r0, #0
 8005e04:	bd10      	pop	{r4, pc}
 8005e06:	f851 2b04 	ldr.w	r2, [r1], #4
 8005e0a:	6002      	str	r2, [r0, #0]
 8005e0c:	e7f7      	b.n	8005dfe <USB_WritePacket+0x16>
	...

08005e10 <USB_EPStartXfer>:
 8005e10:	e92d 41f3 	stmdb	sp!, {r0, r1, r4, r5, r6, r7, r8, lr}
 8005e14:	784d      	ldrb	r5, [r1, #1]
 8005e16:	698b      	ldr	r3, [r1, #24]
 8005e18:	790f      	ldrb	r7, [r1, #4]
 8005e1a:	f8df c1bc 	ldr.w	ip, [pc, #444]	@ 8005fd8 <USB_EPStartXfer+0x1c8>
 8005e1e:	f8df e1bc 	ldr.w	lr, [pc, #444]	@ 8005fdc <USB_EPStartXfer+0x1cc>
 8005e22:	4616      	mov	r6, r2
 8005e24:	780a      	ldrb	r2, [r1, #0]
 8005e26:	2d01      	cmp	r5, #1
 8005e28:	eb00 1442 	add.w	r4, r0, r2, lsl #5
 8005e2c:	f040 808b 	bne.w	8005f46 <USB_EPStartXfer+0x136>
 8005e30:	f504 6510 	add.w	r5, r4, #2304	@ 0x900
 8005e34:	f8d5 8010 	ldr.w	r8, [r5, #16]
 8005e38:	bb6b      	cbnz	r3, 8005e96 <USB_EPStartXfer+0x86>
 8005e3a:	ea08 0c0c 	and.w	ip, r8, ip
 8005e3e:	f8c5 c010 	str.w	ip, [r5, #16]
 8005e42:	f8d5 c010 	ldr.w	ip, [r5, #16]
 8005e46:	f44c 2c00 	orr.w	ip, ip, #524288	@ 0x80000
 8005e4a:	f8c5 c010 	str.w	ip, [r5, #16]
 8005e4e:	f8d5 c010 	ldr.w	ip, [r5, #16]
 8005e52:	ea0c 0c0e 	and.w	ip, ip, lr
 8005e56:	f8c5 c010 	str.w	ip, [r5, #16]
 8005e5a:	2e01      	cmp	r6, #1
 8005e5c:	d14c      	bne.n	8005ef8 <USB_EPStartXfer+0xe8>
 8005e5e:	694b      	ldr	r3, [r1, #20]
 8005e60:	b103      	cbz	r3, 8005e64 <USB_EPStartXfer+0x54>
 8005e62:	616b      	str	r3, [r5, #20]
 8005e64:	2f01      	cmp	r7, #1
 8005e66:	d10c      	bne.n	8005e82 <USB_EPStartXfer+0x72>
 8005e68:	f8d0 3808 	ldr.w	r3, [r0, #2056]	@ 0x808
 8005e6c:	f413 7f80 	tst.w	r3, #256	@ 0x100
 8005e70:	f8d4 3900 	ldr.w	r3, [r4, #2304]	@ 0x900
 8005e74:	bf0c      	ite	eq
 8005e76:	f043 5300 	orreq.w	r3, r3, #536870912	@ 0x20000000
 8005e7a:	f043 5380 	orrne.w	r3, r3, #268435456	@ 0x10000000
 8005e7e:	f8c4 3900 	str.w	r3, [r4, #2304]	@ 0x900
 8005e82:	f8d4 3900 	ldr.w	r3, [r4, #2304]	@ 0x900
 8005e86:	f043 4304 	orr.w	r3, r3, #2214592512	@ 0x84000000
 8005e8a:	f8c4 3900 	str.w	r3, [r4, #2304]	@ 0x900
 8005e8e:	2000      	movs	r0, #0
 8005e90:	b002      	add	sp, #8
 8005e92:	e8bd 81f0 	ldmia.w	sp!, {r4, r5, r6, r7, r8, pc}
 8005e96:	ea08 0e0e 	and.w	lr, r8, lr
 8005e9a:	f8c5 e010 	str.w	lr, [r5, #16]
 8005e9e:	f8d5 e010 	ldr.w	lr, [r5, #16]
 8005ea2:	ea0e 0c0c 	and.w	ip, lr, ip
 8005ea6:	f8c5 c010 	str.w	ip, [r5, #16]
 8005eaa:	f8d1 c00c 	ldr.w	ip, [r1, #12]
 8005eae:	f8d5 8010 	ldr.w	r8, [r5, #16]
 8005eb2:	eb0c 0e03 	add.w	lr, ip, r3
 8005eb6:	f10e 3eff 	add.w	lr, lr, #4294967295
 8005eba:	fbbe fefc 	udiv	lr, lr, ip
 8005ebe:	f8df c120 	ldr.w	ip, [pc, #288]	@ 8005fe0 <USB_EPStartXfer+0x1d0>
 8005ec2:	ea0c 4cce 	and.w	ip, ip, lr, lsl #19
 8005ec6:	ea4c 0c08 	orr.w	ip, ip, r8
 8005eca:	f8c5 c010 	str.w	ip, [r5, #16]
 8005ece:	f8d5 e010 	ldr.w	lr, [r5, #16]
 8005ed2:	f3c3 0c12 	ubfx	ip, r3, #0, #19
 8005ed6:	ea4c 0c0e 	orr.w	ip, ip, lr
 8005eda:	2f01      	cmp	r7, #1
 8005edc:	f8c5 c010 	str.w	ip, [r5, #16]
 8005ee0:	d1bb      	bne.n	8005e5a <USB_EPStartXfer+0x4a>
 8005ee2:	f8d5 c010 	ldr.w	ip, [r5, #16]
 8005ee6:	f02c 4cc0 	bic.w	ip, ip, #1610612736	@ 0x60000000
 8005eea:	f8c5 c010 	str.w	ip, [r5, #16]
 8005eee:	f8d5 c010 	ldr.w	ip, [r5, #16]
 8005ef2:	f04c 5c00 	orr.w	ip, ip, #536870912	@ 0x20000000
 8005ef6:	e7ae      	b.n	8005e56 <USB_EPStartXfer+0x46>
 8005ef8:	f8d4 5900 	ldr.w	r5, [r4, #2304]	@ 0x900
 8005efc:	2f01      	cmp	r7, #1
 8005efe:	f045 4504 	orr.w	r5, r5, #2214592512	@ 0x84000000
 8005f02:	f8c4 5900 	str.w	r5, [r4, #2304]	@ 0x900
 8005f06:	d00b      	beq.n	8005f20 <USB_EPStartXfer+0x110>
 8005f08:	2b00      	cmp	r3, #0
 8005f0a:	d0c0      	beq.n	8005e8e <USB_EPStartXfer+0x7e>
 8005f0c:	f8d0 1834 	ldr.w	r1, [r0, #2100]	@ 0x834
 8005f10:	f002 020f 	and.w	r2, r2, #15
 8005f14:	2301      	movs	r3, #1
 8005f16:	4093      	lsls	r3, r2
 8005f18:	430b      	orrs	r3, r1
 8005f1a:	f8c0 3834 	str.w	r3, [r0, #2100]	@ 0x834
 8005f1e:	e7b6      	b.n	8005e8e <USB_EPStartXfer+0x7e>
 8005f20:	f8d0 5808 	ldr.w	r5, [r0, #2056]	@ 0x808
 8005f24:	f415 7f80 	tst.w	r5, #256	@ 0x100
 8005f28:	f8d4 5900 	ldr.w	r5, [r4, #2304]	@ 0x900
 8005f2c:	bf0c      	ite	eq
 8005f2e:	f045 5500 	orreq.w	r5, r5, #536870912	@ 0x20000000
 8005f32:	f045 5580 	orrne.w	r5, r5, #268435456	@ 0x10000000
 8005f36:	f8c4 5900 	str.w	r5, [r4, #2304]	@ 0x900
 8005f3a:	9600      	str	r6, [sp, #0]
 8005f3c:	6909      	ldr	r1, [r1, #16]
 8005f3e:	b29b      	uxth	r3, r3
 8005f40:	f7ff ff52 	bl	8005de8 <USB_WritePacket>
 8005f44:	e7a3      	b.n	8005e8e <USB_EPStartXfer+0x7e>
 8005f46:	f8d4 5b10 	ldr.w	r5, [r4, #2832]	@ 0xb10
 8005f4a:	ea05 050e 	and.w	r5, r5, lr
 8005f4e:	f8c4 5b10 	str.w	r5, [r4, #2832]	@ 0xb10
 8005f52:	f8d4 5b10 	ldr.w	r5, [r4, #2832]	@ 0xb10
 8005f56:	ea05 050c 	and.w	r5, r5, ip
 8005f5a:	f504 6230 	add.w	r2, r4, #2816	@ 0xb00
 8005f5e:	6115      	str	r5, [r2, #16]
 8005f60:	68cd      	ldr	r5, [r1, #12]
 8005f62:	bb1b      	cbnz	r3, 8005fac <USB_EPStartXfer+0x19c>
 8005f64:	6913      	ldr	r3, [r2, #16]
 8005f66:	f3c5 0512 	ubfx	r5, r5, #0, #19
 8005f6a:	431d      	orrs	r5, r3
 8005f6c:	6115      	str	r5, [r2, #16]
 8005f6e:	6913      	ldr	r3, [r2, #16]
 8005f70:	f443 2300 	orr.w	r3, r3, #524288	@ 0x80000
 8005f74:	6113      	str	r3, [r2, #16]
 8005f76:	2e01      	cmp	r6, #1
 8005f78:	d102      	bne.n	8005f80 <USB_EPStartXfer+0x170>
 8005f7a:	690b      	ldr	r3, [r1, #16]
 8005f7c:	b103      	cbz	r3, 8005f80 <USB_EPStartXfer+0x170>
 8005f7e:	6153      	str	r3, [r2, #20]
 8005f80:	2f01      	cmp	r7, #1
 8005f82:	d10c      	bne.n	8005f9e <USB_EPStartXfer+0x18e>
 8005f84:	f8d0 3808 	ldr.w	r3, [r0, #2056]	@ 0x808
 8005f88:	f413 7f80 	tst.w	r3, #256	@ 0x100
 8005f8c:	f8d4 3b00 	ldr.w	r3, [r4, #2816]	@ 0xb00
 8005f90:	bf0c      	ite	eq
 8005f92:	f043 5300 	orreq.w	r3, r3, #536870912	@ 0x20000000
 8005f96:	f043 5380 	orrne.w	r3, r3, #268435456	@ 0x10000000
 8005f9a:	f8c4 3b00 	str.w	r3, [r4, #2816]	@ 0xb00
 8005f9e:	f8d4 3b00 	ldr.w	r3, [r4, #2816]	@ 0xb00
 8005fa2:	f043 4304 	orr.w	r3, r3, #2214592512	@ 0x84000000
 8005fa6:	f8c4 3b00 	str.w	r3, [r4, #2816]	@ 0xb00
 8005faa:	e770      	b.n	8005e8e <USB_EPStartXfer+0x7e>
 8005fac:	442b      	add	r3, r5
 8005fae:	f8df c030 	ldr.w	ip, [pc, #48]	@ 8005fe0 <USB_EPStartXfer+0x1d0>
 8005fb2:	f8d2 e010 	ldr.w	lr, [r2, #16]
 8005fb6:	3b01      	subs	r3, #1
 8005fb8:	fbb3 f3f5 	udiv	r3, r3, r5
 8005fbc:	b29b      	uxth	r3, r3
 8005fbe:	435d      	muls	r5, r3
 8005fc0:	ea0c 43c3 	and.w	r3, ip, r3, lsl #19
 8005fc4:	ea43 030e 	orr.w	r3, r3, lr
 8005fc8:	61cd      	str	r5, [r1, #28]
 8005fca:	6113      	str	r3, [r2, #16]
 8005fcc:	6913      	ldr	r3, [r2, #16]
 8005fce:	f3c5 0512 	ubfx	r5, r5, #0, #19
 8005fd2:	431d      	orrs	r5, r3
 8005fd4:	6115      	str	r5, [r2, #16]
 8005fd6:	e7ce      	b.n	8005f76 <USB_EPStartXfer+0x166>
 8005fd8:	e007ffff 	.word	0xe007ffff
 8005fdc:	fff80000 	.word	0xfff80000
 8005fe0:	1ff80000 	.word	0x1ff80000

08005fe4 <USB_ReadPacket>:
 8005fe4:	4603      	mov	r3, r0
 8005fe6:	b570      	push	{r4, r5, r6, lr}
 8005fe8:	2000      	movs	r0, #0
 8005fea:	0894      	lsrs	r4, r2, #2
 8005fec:	f503 5580 	add.w	r5, r3, #4096	@ 0x1000
 8005ff0:	f002 0203 	and.w	r2, r2, #3
 8005ff4:	42a0      	cmp	r0, r4
 8005ff6:	d310      	bcc.n	800601a <USB_ReadPacket+0x36>
 8005ff8:	eb01 0084 	add.w	r0, r1, r4, lsl #2
 8005ffc:	b162      	cbz	r2, 8006018 <USB_ReadPacket+0x34>
 8005ffe:	f503 5380 	add.w	r3, r3, #4096	@ 0x1000
 8006002:	681c      	ldr	r4, [r3, #0]
 8006004:	2300      	movs	r3, #0
 8006006:	00d9      	lsls	r1, r3, #3
 8006008:	fa24 f101 	lsr.w	r1, r4, r1
 800600c:	54c1      	strb	r1, [r0, r3]
 800600e:	3301      	adds	r3, #1
 8006010:	b299      	uxth	r1, r3
 8006012:	428a      	cmp	r2, r1
 8006014:	d1f7      	bne.n	8006006 <USB_ReadPacket+0x22>
 8006016:	4410      	add	r0, r2
 8006018:	bd70      	pop	{r4, r5, r6, pc}
 800601a:	682e      	ldr	r6, [r5, #0]
 800601c:	f841 6020 	str.w	r6, [r1, r0, lsl #2]
 8006020:	3001      	adds	r0, #1
 8006022:	e7e7      	b.n	8005ff4 <USB_ReadPacket+0x10>

08006024 <USB_EPSetStall>:
 8006024:	784a      	ldrb	r2, [r1, #1]
 8006026:	780b      	ldrb	r3, [r1, #0]
 8006028:	2a01      	cmp	r2, #1
 800602a:	eb00 1043 	add.w	r0, r0, r3, lsl #5
 800602e:	d112      	bne.n	8006056 <USB_EPSetStall+0x32>
 8006030:	f8d0 2900 	ldr.w	r2, [r0, #2304]	@ 0x900
 8006034:	2a00      	cmp	r2, #0
 8006036:	db06      	blt.n	8006046 <USB_EPSetStall+0x22>
 8006038:	b12b      	cbz	r3, 8006046 <USB_EPSetStall+0x22>
 800603a:	f8d0 3900 	ldr.w	r3, [r0, #2304]	@ 0x900
 800603e:	f023 4380 	bic.w	r3, r3, #1073741824	@ 0x40000000
 8006042:	f8c0 3900 	str.w	r3, [r0, #2304]	@ 0x900
 8006046:	f8d0 3900 	ldr.w	r3, [r0, #2304]	@ 0x900
 800604a:	f443 1300 	orr.w	r3, r3, #2097152	@ 0x200000
 800604e:	f8c0 3900 	str.w	r3, [r0, #2304]	@ 0x900
 8006052:	2000      	movs	r0, #0
 8006054:	4770      	bx	lr
 8006056:	f8d0 2b00 	ldr.w	r2, [r0, #2816]	@ 0xb00
 800605a:	2a00      	cmp	r2, #0
 800605c:	db06      	blt.n	800606c <USB_EPSetStall+0x48>
 800605e:	b12b      	cbz	r3, 800606c <USB_EPSetStall+0x48>
 8006060:	f8d0 3b00 	ldr.w	r3, [r0, #2816]	@ 0xb00
 8006064:	f023 4380 	bic.w	r3, r3, #1073741824	@ 0x40000000
 8006068:	f8c0 3b00 	str.w	r3, [r0, #2816]	@ 0xb00
 800606c:	f8d0 3b00 	ldr.w	r3, [r0, #2816]	@ 0xb00
 8006070:	f443 1300 	orr.w	r3, r3, #2097152	@ 0x200000
 8006074:	f8c0 3b00 	str.w	r3, [r0, #2816]	@ 0xb00
 8006078:	e7eb      	b.n	8006052 <USB_EPSetStall+0x2e>

0800607a <USB_EPClearStall>:
 800607a:	780b      	ldrb	r3, [r1, #0]
 800607c:	784a      	ldrb	r2, [r1, #1]
 800607e:	eb00 1043 	add.w	r0, r0, r3, lsl #5
 8006082:	790b      	ldrb	r3, [r1, #4]
 8006084:	2a01      	cmp	r2, #1
 8006086:	f1a3 0302 	sub.w	r3, r3, #2
 800608a:	b2db      	uxtb	r3, r3
 800608c:	d10f      	bne.n	80060ae <USB_EPClearStall+0x34>
 800608e:	f8d0 2900 	ldr.w	r2, [r0, #2304]	@ 0x900
 8006092:	2b01      	cmp	r3, #1
 8006094:	f422 1200 	bic.w	r2, r2, #2097152	@ 0x200000
 8006098:	f8c0 2900 	str.w	r2, [r0, #2304]	@ 0x900
 800609c:	d805      	bhi.n	80060aa <USB_EPClearStall+0x30>
 800609e:	f8d0 3900 	ldr.w	r3, [r0, #2304]	@ 0x900
 80060a2:	f043 5380 	orr.w	r3, r3, #268435456	@ 0x10000000
 80060a6:	f8c0 3900 	str.w	r3, [r0, #2304]	@ 0x900
 80060aa:	2000      	movs	r0, #0
 80060ac:	4770      	bx	lr
 80060ae:	f8d0 2b00 	ldr.w	r2, [r0, #2816]	@ 0xb00
 80060b2:	f422 1200 	bic.w	r2, r2, #2097152	@ 0x200000
 80060b6:	2b01      	cmp	r3, #1
 80060b8:	f8c0 2b00 	str.w	r2, [r0, #2816]	@ 0xb00
 80060bc:	bf9e      	ittt	ls
 80060be:	f8d0 3b00 	ldrls.w	r3, [r0, #2816]	@ 0xb00
 80060c2:	f043 5380 	orrls.w	r3, r3, #268435456	@ 0x10000000
 80060c6:	f8c0 3b00 	strls.w	r3, [r0, #2816]	@ 0xb00
 80060ca:	e7ee      	b.n	80060aa <USB_EPClearStall+0x30>

080060cc <USB_SetDevAddress>:
 80060cc:	f8d0 3800 	ldr.w	r3, [r0, #2048]	@ 0x800
 80060d0:	f423 63fe 	bic.w	r3, r3, #2032	@ 0x7f0
 80060d4:	f8c0 3800 	str.w	r3, [r0, #2048]	@ 0x800
 80060d8:	f8d0 3800 	ldr.w	r3, [r0, #2048]	@ 0x800
 80060dc:	0109      	lsls	r1, r1, #4
 80060de:	f401 61fe 	and.w	r1, r1, #2032	@ 0x7f0
 80060e2:	4319      	orrs	r1, r3
 80060e4:	f8c0 1800 	str.w	r1, [r0, #2048]	@ 0x800
 80060e8:	2000      	movs	r0, #0
 80060ea:	4770      	bx	lr

080060ec <USB_DevConnect>:
 80060ec:	f8d0 3e00 	ldr.w	r3, [r0, #3584]	@ 0xe00
 80060f0:	f023 0303 	bic.w	r3, r3, #3
 80060f4:	f8c0 3e00 	str.w	r3, [r0, #3584]	@ 0xe00
 80060f8:	f8d0 3804 	ldr.w	r3, [r0, #2052]	@ 0x804
 80060fc:	f023 0302 	bic.w	r3, r3, #2
 8006100:	f8c0 3804 	str.w	r3, [r0, #2052]	@ 0x804
 8006104:	2000      	movs	r0, #0
 8006106:	4770      	bx	lr

08006108 <USB_DevDisconnect>:
 8006108:	f8d0 3e00 	ldr.w	r3, [r0, #3584]	@ 0xe00
 800610c:	f023 0303 	bic.w	r3, r3, #3
 8006110:	f8c0 3e00 	str.w	r3, [r0, #3584]	@ 0xe00
 8006114:	f8d0 3804 	ldr.w	r3, [r0, #2052]	@ 0x804
 8006118:	f043 0302 	orr.w	r3, r3, #2
 800611c:	f8c0 3804 	str.w	r3, [r0, #2052]	@ 0x804
 8006120:	2000      	movs	r0, #0
 8006122:	4770      	bx	lr

08006124 <USB_ReadInterrupts>:
 8006124:	6942      	ldr	r2, [r0, #20]
 8006126:	6980      	ldr	r0, [r0, #24]
 8006128:	4010      	ands	r0, r2
 800612a:	4770      	bx	lr

0800612c <USB_ReadDevAllOutEpInterrupt>:
 800612c:	f8d0 3818 	ldr.w	r3, [r0, #2072]	@ 0x818
 8006130:	f500 6000 	add.w	r0, r0, #2048	@ 0x800
 8006134:	69c0      	ldr	r0, [r0, #28]
 8006136:	4018      	ands	r0, r3
 8006138:	0c00      	lsrs	r0, r0, #16
 800613a:	4770      	bx	lr

0800613c <USB_ReadDevAllInEpInterrupt>:
 800613c:	f8d0 3818 	ldr.w	r3, [r0, #2072]	@ 0x818
 8006140:	f500 6000 	add.w	r0, r0, #2048	@ 0x800
 8006144:	69c0      	ldr	r0, [r0, #28]
 8006146:	4018      	ands	r0, r3
 8006148:	b280      	uxth	r0, r0
 800614a:	4770      	bx	lr

0800614c <USB_ReadDevOutEPInterrupt>:
 800614c:	eb00 1141 	add.w	r1, r0, r1, lsl #5
 8006150:	f500 6000 	add.w	r0, r0, #2048	@ 0x800
 8006154:	f8d1 2b08 	ldr.w	r2, [r1, #2824]	@ 0xb08
 8006158:	6940      	ldr	r0, [r0, #20]
 800615a:	4010      	ands	r0, r2
 800615c:	4770      	bx	lr

0800615e <USB_ReadDevInEPInterrupt>:
 800615e:	f8d0 2810 	ldr.w	r2, [r0, #2064]	@ 0x810
 8006162:	f8d0 3834 	ldr.w	r3, [r0, #2100]	@ 0x834
 8006166:	eb00 1041 	add.w	r0, r0, r1, lsl #5
 800616a:	f001 010f 	and.w	r1, r1, #15
 800616e:	40cb      	lsrs	r3, r1
 8006170:	f500 6010 	add.w	r0, r0, #2304	@ 0x900
 8006174:	01db      	lsls	r3, r3, #7
 8006176:	6880      	ldr	r0, [r0, #8]
 8006178:	b2db      	uxtb	r3, r3
 800617a:	4313      	orrs	r3, r2
 800617c:	4018      	ands	r0, r3
 800617e:	4770      	bx	lr

08006180 <USB_GetMode>:
 8006180:	6940      	ldr	r0, [r0, #20]
 8006182:	f000 0001 	and.w	r0, r0, #1
 8006186:	4770      	bx	lr

08006188 <USB_ActivateSetup>:
 8006188:	f8d0 3900 	ldr.w	r3, [r0, #2304]	@ 0x900
 800618c:	f36f 030a 	bfc	r3, #0, #11
 8006190:	f8c0 3900 	str.w	r3, [r0, #2304]	@ 0x900
 8006194:	f8d0 3804 	ldr.w	r3, [r0, #2052]	@ 0x804
 8006198:	f443 7380 	orr.w	r3, r3, #256	@ 0x100
 800619c:	f8c0 3804 	str.w	r3, [r0, #2052]	@ 0x804
 80061a0:	2000      	movs	r0, #0
 80061a2:	4770      	bx	lr

080061a4 <USB_EP0_OutStart>:
 80061a4:	b530      	push	{r4, r5, lr}
 80061a6:	6c05      	ldr	r5, [r0, #64]	@ 0x40
 80061a8:	4c10      	ldr	r4, [pc, #64]	@ (80061ec <USB_EP0_OutStart+0x48>)
 80061aa:	42a5      	cmp	r5, r4
 80061ac:	f500 6330 	add.w	r3, r0, #2816	@ 0xb00
 80061b0:	d903      	bls.n	80061ba <USB_EP0_OutStart+0x16>
 80061b2:	f8d0 4b00 	ldr.w	r4, [r0, #2816]	@ 0xb00
 80061b6:	2c00      	cmp	r4, #0
 80061b8:	db16      	blt.n	80061e8 <USB_EP0_OutStart+0x44>
 80061ba:	2400      	movs	r4, #0
 80061bc:	611c      	str	r4, [r3, #16]
 80061be:	691c      	ldr	r4, [r3, #16]
 80061c0:	f444 2400 	orr.w	r4, r4, #524288	@ 0x80000
 80061c4:	611c      	str	r4, [r3, #16]
 80061c6:	691c      	ldr	r4, [r3, #16]
 80061c8:	f044 0418 	orr.w	r4, r4, #24
 80061cc:	611c      	str	r4, [r3, #16]
 80061ce:	691c      	ldr	r4, [r3, #16]
 80061d0:	2901      	cmp	r1, #1
 80061d2:	f044 44c0 	orr.w	r4, r4, #1610612736	@ 0x60000000
 80061d6:	611c      	str	r4, [r3, #16]
 80061d8:	bf01      	itttt	eq
 80061da:	615a      	streq	r2, [r3, #20]
 80061dc:	f8d0 3b00 	ldreq.w	r3, [r0, #2816]	@ 0xb00
 80061e0:	f043 2380 	orreq.w	r3, r3, #2147516416	@ 0x80008000
 80061e4:	f8c0 3b00 	streq.w	r3, [r0, #2816]	@ 0xb00
 80061e8:	2000      	movs	r0, #0
 80061ea:	bd30      	pop	{r4, r5, pc}
 80061ec:	4f54300a 	.word	0x4f54300a

080061f0 <LCD_Fill>:
 80061f0:	e92d 43f8 	stmdb	sp!, {r3, r4, r5, r6, r7, r8, r9, lr}
 80061f4:	4617      	mov	r7, r2
 80061f6:	461e      	mov	r6, r3
 80061f8:	3a01      	subs	r2, #1
 80061fa:	3b01      	subs	r3, #1
 80061fc:	b29b      	uxth	r3, r3
 80061fe:	b292      	uxth	r2, r2
 8006200:	f8bd 9020 	ldrh.w	r9, [sp, #32]
 8006204:	4680      	mov	r8, r0
 8006206:	460c      	mov	r4, r1
 8006208:	f000 fa18 	bl	800663c <LCD_Address_Set>
 800620c:	42b4      	cmp	r4, r6
 800620e:	d30b      	bcc.n	8006228 <LCD_Fill+0x38>
 8006210:	e8bd 83f8 	ldmia.w	sp!, {r3, r4, r5, r6, r7, r8, r9, pc}
 8006214:	4648      	mov	r0, r9
 8006216:	f000 f9ef 	bl	80065f8 <LCD_WR_DATA>
 800621a:	3501      	adds	r5, #1
 800621c:	b2ad      	uxth	r5, r5
 800621e:	42bd      	cmp	r5, r7
 8006220:	d3f8      	bcc.n	8006214 <LCD_Fill+0x24>
 8006222:	3401      	adds	r4, #1
 8006224:	b2a4      	uxth	r4, r4
 8006226:	e7f1      	b.n	800620c <LCD_Fill+0x1c>
 8006228:	4645      	mov	r5, r8
 800622a:	e7f8      	b.n	800621e <LCD_Fill+0x2e>

0800622c <LCD_DrawPoint>:
 800622c:	b510      	push	{r4, lr}
 800622e:	460b      	mov	r3, r1
 8006230:	4614      	mov	r4, r2
 8006232:	4602      	mov	r2, r0
 8006234:	f000 fa02 	bl	800663c <LCD_Address_Set>
 8006238:	4620      	mov	r0, r4
 800623a:	e8bd 4010 	ldmia.w	sp!, {r4, lr}
 800623e:	f000 b9db 	b.w	80065f8 <LCD_WR_DATA>

08006242 <LCD_DrawLine>:
 8006242:	e92d 4ff0 	stmdb	sp!, {r4, r5, r6, r7, r8, r9, sl, fp, lr}
 8006246:	b085      	sub	sp, #20
 8006248:	eba2 0900 	sub.w	r9, r2, r0
 800624c:	461d      	mov	r5, r3
 800624e:	f1b9 0f00 	cmp.w	r9, #0
 8006252:	f8bd 3038 	ldrh.w	r3, [sp, #56]	@ 0x38
 8006256:	9302      	str	r3, [sp, #8]
 8006258:	4604      	mov	r4, r0
 800625a:	460b      	mov	r3, r1
 800625c:	eba5 0a01 	sub.w	sl, r5, r1
 8006260:	dc1a      	bgt.n	8006298 <LCD_DrawLine+0x56>
 8006262:	d01b      	beq.n	800629c <LCD_DrawLine+0x5a>
 8006264:	eba0 0902 	sub.w	r9, r0, r2
 8006268:	f04f 32ff 	mov.w	r2, #4294967295
 800626c:	9201      	str	r2, [sp, #4]
 800626e:	f1ba 0f00 	cmp.w	sl, #0
 8006272:	dc16      	bgt.n	80062a2 <LCD_DrawLine+0x60>
 8006274:	d018      	beq.n	80062a8 <LCD_DrawLine+0x66>
 8006276:	eba1 0a05 	sub.w	sl, r1, r5
 800627a:	f04f 3bff 	mov.w	fp, #4294967295
 800627e:	2600      	movs	r6, #0
 8006280:	45d1      	cmp	r9, sl
 8006282:	464d      	mov	r5, r9
 8006284:	46b0      	mov	r8, r6
 8006286:	bfb8      	it	lt
 8006288:	4655      	movlt	r5, sl
 800628a:	4637      	mov	r7, r6
 800628c:	b2b2      	uxth	r2, r6
 800628e:	42aa      	cmp	r2, r5
 8006290:	dd0c      	ble.n	80062ac <LCD_DrawLine+0x6a>
 8006292:	b005      	add	sp, #20
 8006294:	e8bd 8ff0 	ldmia.w	sp!, {r4, r5, r6, r7, r8, r9, sl, fp, pc}
 8006298:	2201      	movs	r2, #1
 800629a:	e7e7      	b.n	800626c <LCD_DrawLine+0x2a>
 800629c:	f8cd 9004 	str.w	r9, [sp, #4]
 80062a0:	e7e5      	b.n	800626e <LCD_DrawLine+0x2c>
 80062a2:	f04f 0b01 	mov.w	fp, #1
 80062a6:	e7ea      	b.n	800627e <LCD_DrawLine+0x3c>
 80062a8:	46d3      	mov	fp, sl
 80062aa:	e7e8      	b.n	800627e <LCD_DrawLine+0x3c>
 80062ac:	9a02      	ldr	r2, [sp, #8]
 80062ae:	9303      	str	r3, [sp, #12]
 80062b0:	b299      	uxth	r1, r3
 80062b2:	b2a0      	uxth	r0, r4
 80062b4:	444f      	add	r7, r9
 80062b6:	f7ff ffb9 	bl	800622c <LCD_DrawPoint>
 80062ba:	42bd      	cmp	r5, r7
 80062bc:	bfb8      	it	lt
 80062be:	9a01      	ldrlt	r2, [sp, #4]
 80062c0:	9b03      	ldr	r3, [sp, #12]
 80062c2:	44d0      	add	r8, sl
 80062c4:	bfbc      	itt	lt
 80062c6:	1b7f      	sublt	r7, r7, r5
 80062c8:	18a4      	addlt	r4, r4, r2
 80062ca:	4545      	cmp	r5, r8
 80062cc:	bfbc      	itt	lt
 80062ce:	eba8 0805 	sublt.w	r8, r8, r5
 80062d2:	445b      	addlt	r3, fp
 80062d4:	3601      	adds	r6, #1
 80062d6:	e7d9      	b.n	800628c <LCD_DrawLine+0x4a>

080062d8 <LCD_ShowChar>:
 80062d8:	e92d 4ff0 	stmdb	sp!, {r4, r5, r6, r7, r8, r9, sl, fp, lr}
 80062dc:	b087      	sub	sp, #28
 80062de:	f1a2 0520 	sub.w	r5, r2, #32
 80062e2:	f89d 4044 	ldrb.w	r4, [sp, #68]	@ 0x44
 80062e6:	9302      	str	r3, [sp, #8]
 80062e8:	f8bd 3040 	ldrh.w	r3, [sp, #64]	@ 0x40
 80062ec:	9304      	str	r3, [sp, #16]
 80062ee:	f89d 3048 	ldrb.w	r3, [sp, #72]	@ 0x48
 80062f2:	9305      	str	r3, [sp, #20]
 80062f4:	0863      	lsrs	r3, r4, #1
 80062f6:	9301      	str	r3, [sp, #4]
 80062f8:	f014 030e 	ands.w	r3, r4, #14
 80062fc:	bf18      	it	ne
 80062fe:	2301      	movne	r3, #1
 8006300:	eb03 1314 	add.w	r3, r3, r4, lsr #4
 8006304:	4363      	muls	r3, r4
 8006306:	9303      	str	r3, [sp, #12]
 8006308:	1e42      	subs	r2, r0, #1
 800630a:	1e4b      	subs	r3, r1, #1
 800630c:	4423      	add	r3, r4
 800630e:	eb02 0254 	add.w	r2, r2, r4, lsr #1
 8006312:	b29b      	uxth	r3, r3
 8006314:	b292      	uxth	r2, r2
 8006316:	9000      	str	r0, [sp, #0]
 8006318:	460f      	mov	r7, r1
 800631a:	2600      	movs	r6, #0
 800631c:	f000 f98e 	bl	800663c <LCD_Address_Set>
 8006320:	f8dd 8000 	ldr.w	r8, [sp]
 8006324:	b2ed      	uxtb	r5, r5
 8006326:	46b1      	mov	r9, r6
 8006328:	9b03      	ldr	r3, [sp, #12]
 800632a:	b2b2      	uxth	r2, r6
 800632c:	4293      	cmp	r3, r2
 800632e:	d906      	bls.n	800633e <LCD_ShowChar+0x66>
 8006330:	2c18      	cmp	r4, #24
 8006332:	d032      	beq.n	800639a <LCD_ShowChar+0xc2>
 8006334:	d806      	bhi.n	8006344 <LCD_ShowChar+0x6c>
 8006336:	2c0c      	cmp	r4, #12
 8006338:	d00a      	beq.n	8006350 <LCD_ShowChar+0x78>
 800633a:	2c10      	cmp	r4, #16
 800633c:	d029      	beq.n	8006392 <LCD_ShowChar+0xba>
 800633e:	b007      	add	sp, #28
 8006340:	e8bd 8ff0 	ldmia.w	sp!, {r4, r5, r6, r7, r8, r9, sl, fp, pc}
 8006344:	2c20      	cmp	r4, #32
 8006346:	d1fa      	bne.n	800633e <LCD_ShowChar+0x66>
 8006348:	4a26      	ldr	r2, [pc, #152]	@ (80063e4 <LCD_ShowChar+0x10c>)
 800634a:	eb02 1285 	add.w	r2, r2, r5, lsl #6
 800634e:	e004      	b.n	800635a <LCD_ShowChar+0x82>
 8006350:	4a25      	ldr	r2, [pc, #148]	@ (80063e8 <LCD_ShowChar+0x110>)
 8006352:	eb05 0145 	add.w	r1, r5, r5, lsl #1
 8006356:	eb02 0281 	add.w	r2, r2, r1, lsl #2
 800635a:	f812 b006 	ldrb.w	fp, [r2, r6]
 800635e:	f04f 0a00 	mov.w	sl, #0
 8006362:	9b05      	ldr	r3, [sp, #20]
 8006364:	fa4b f20a 	asr.w	r2, fp, sl
 8006368:	f002 0201 	and.w	r2, r2, #1
 800636c:	b9eb      	cbnz	r3, 80063aa <LCD_ShowChar+0xd2>
 800636e:	b1d2      	cbz	r2, 80063a6 <LCD_ShowChar+0xce>
 8006370:	9802      	ldr	r0, [sp, #8]
 8006372:	f000 f941 	bl	80065f8 <LCD_WR_DATA>
 8006376:	f109 0301 	add.w	r3, r9, #1
 800637a:	fa5f f983 	uxtb.w	r9, r3
 800637e:	9b01      	ldr	r3, [sp, #4]
 8006380:	fbb9 f2f3 	udiv	r2, r9, r3
 8006384:	fb03 9212 	mls	r2, r3, r2, r9
 8006388:	f012 02ff 	ands.w	r2, r2, #255	@ 0xff
 800638c:	d123      	bne.n	80063d6 <LCD_ShowChar+0xfe>
 800638e:	4691      	mov	r9, r2
 8006390:	e01f      	b.n	80063d2 <LCD_ShowChar+0xfa>
 8006392:	4a16      	ldr	r2, [pc, #88]	@ (80063ec <LCD_ShowChar+0x114>)
 8006394:	eb02 1205 	add.w	r2, r2, r5, lsl #4
 8006398:	e7df      	b.n	800635a <LCD_ShowChar+0x82>
 800639a:	4a15      	ldr	r2, [pc, #84]	@ (80063f0 <LCD_ShowChar+0x118>)
 800639c:	eb05 0145 	add.w	r1, r5, r5, lsl #1
 80063a0:	eb02 1201 	add.w	r2, r2, r1, lsl #4
 80063a4:	e7d9      	b.n	800635a <LCD_ShowChar+0x82>
 80063a6:	9804      	ldr	r0, [sp, #16]
 80063a8:	e7e3      	b.n	8006372 <LCD_ShowChar+0x9a>
 80063aa:	b122      	cbz	r2, 80063b6 <LCD_ShowChar+0xde>
 80063ac:	9a02      	ldr	r2, [sp, #8]
 80063ae:	4639      	mov	r1, r7
 80063b0:	4640      	mov	r0, r8
 80063b2:	f7ff ff3b 	bl	800622c <LCD_DrawPoint>
 80063b6:	9b00      	ldr	r3, [sp, #0]
 80063b8:	f108 0801 	add.w	r8, r8, #1
 80063bc:	fa1f f888 	uxth.w	r8, r8
 80063c0:	eba8 0203 	sub.w	r2, r8, r3
 80063c4:	9b01      	ldr	r3, [sp, #4]
 80063c6:	429a      	cmp	r2, r3
 80063c8:	d105      	bne.n	80063d6 <LCD_ShowChar+0xfe>
 80063ca:	3701      	adds	r7, #1
 80063cc:	f8dd 8000 	ldr.w	r8, [sp]
 80063d0:	b2bf      	uxth	r7, r7
 80063d2:	3601      	adds	r6, #1
 80063d4:	e7a8      	b.n	8006328 <LCD_ShowChar+0x50>
 80063d6:	f10a 0a01 	add.w	sl, sl, #1
 80063da:	f1ba 0f08 	cmp.w	sl, #8
 80063de:	d1c0      	bne.n	8006362 <LCD_ShowChar+0x8a>
 80063e0:	e7f7      	b.n	80063d2 <LCD_ShowChar+0xfa>
 80063e2:	bf00      	nop
 80063e4:	080157dc 	.word	0x080157dc
 80063e8:	0801875c 	.word	0x0801875c
 80063ec:	0801816c 	.word	0x0801816c
 80063f0:	08016f9c 	.word	0x08016f9c

080063f4 <LCD_ShowString>:
 80063f4:	e92d 4ff0 	stmdb	sp!, {r4, r5, r6, r7, r8, r9, sl, fp, lr}
 80063f8:	b085      	sub	sp, #20
 80063fa:	4604      	mov	r4, r0
 80063fc:	f89d 703c 	ldrb.w	r7, [sp, #60]	@ 0x3c
 8006400:	f8bd 9038 	ldrh.w	r9, [sp, #56]	@ 0x38
 8006404:	f89d a040 	ldrb.w	sl, [sp, #64]	@ 0x40
 8006408:	460e      	mov	r6, r1
 800640a:	469b      	mov	fp, r3
 800640c:	ea4f 0857 	mov.w	r8, r7, lsr #1
 8006410:	1e55      	subs	r5, r2, #1
 8006412:	f815 2f01 	ldrb.w	r2, [r5, #1]!
 8006416:	b912      	cbnz	r2, 800641e <LCD_ShowString+0x2a>
 8006418:	b005      	add	sp, #20
 800641a:	e8bd 8ff0 	ldmia.w	sp!, {r4, r5, r6, r7, r8, r9, sl, fp, pc}
 800641e:	0613      	lsls	r3, r2, #24
 8006420:	d4f7      	bmi.n	8006412 <LCD_ShowString+0x1e>
 8006422:	4620      	mov	r0, r4
 8006424:	e9cd 7a01 	strd	r7, sl, [sp, #4]
 8006428:	f8cd 9000 	str.w	r9, [sp]
 800642c:	465b      	mov	r3, fp
 800642e:	4631      	mov	r1, r6
 8006430:	4444      	add	r4, r8
 8006432:	f7ff ff51 	bl	80062d8 <LCD_ShowChar>
 8006436:	b2a4      	uxth	r4, r4
 8006438:	e7eb      	b.n	8006412 <LCD_ShowString+0x1e>

0800643a <LCD_ShowString_CL>:
 800643a:	e92d 4ff0 	stmdb	sp!, {r4, r5, r6, r7, r8, r9, sl, fp, lr}
 800643e:	b085      	sub	sp, #20
 8006440:	4604      	mov	r4, r0
 8006442:	f89d 703c 	ldrb.w	r7, [sp, #60]	@ 0x3c
 8006446:	f8bd a038 	ldrh.w	sl, [sp, #56]	@ 0x38
 800644a:	f89d b040 	ldrb.w	fp, [sp, #64]	@ 0x40
 800644e:	460d      	mov	r5, r1
 8006450:	461e      	mov	r6, r3
 8006452:	ea4f 0957 	mov.w	r9, r7, lsr #1
 8006456:	f102 38ff 	add.w	r8, r2, #4294967295
 800645a:	f818 2f01 	ldrb.w	r2, [r8, #1]!
 800645e:	b932      	cbnz	r2, 800646e <LCD_ShowString_CL+0x34>
 8006460:	f1c7 08f0 	rsb	r8, r7, #240	@ 0xf0
 8006464:	4544      	cmp	r4, r8
 8006466:	db10      	blt.n	800648a <LCD_ShowString_CL+0x50>
 8006468:	b005      	add	sp, #20
 800646a:	e8bd 8ff0 	ldmia.w	sp!, {r4, r5, r6, r7, r8, r9, sl, fp, pc}
 800646e:	0613      	lsls	r3, r2, #24
 8006470:	d4f3      	bmi.n	800645a <LCD_ShowString_CL+0x20>
 8006472:	4620      	mov	r0, r4
 8006474:	e9cd 7b01 	strd	r7, fp, [sp, #4]
 8006478:	f8cd a000 	str.w	sl, [sp]
 800647c:	4633      	mov	r3, r6
 800647e:	4629      	mov	r1, r5
 8006480:	444c      	add	r4, r9
 8006482:	f7ff ff29 	bl	80062d8 <LCD_ShowChar>
 8006486:	b2a4      	uxth	r4, r4
 8006488:	e7e7      	b.n	800645a <LCD_ShowString_CL+0x20>
 800648a:	4620      	mov	r0, r4
 800648c:	e9cd 7b01 	strd	r7, fp, [sp, #4]
 8006490:	f8cd a000 	str.w	sl, [sp]
 8006494:	4633      	mov	r3, r6
 8006496:	2220      	movs	r2, #32
 8006498:	4629      	mov	r1, r5
 800649a:	444c      	add	r4, r9
 800649c:	f7ff ff1c 	bl	80062d8 <LCD_ShowChar>
 80064a0:	b2a4      	uxth	r4, r4
 80064a2:	e7df      	b.n	8006464 <LCD_ShowString_CL+0x2a>

080064a4 <LCD_ShowIntNum>:
 80064a4:	e92d 4ff0 	stmdb	sp!, {r4, r5, r6, r7, r8, r9, sl, fp, lr}
 80064a8:	b089      	sub	sp, #36	@ 0x24
 80064aa:	1e5e      	subs	r6, r3, #1
 80064ac:	f89d 8050 	ldrb.w	r8, [sp, #80]	@ 0x50
 80064b0:	9207      	str	r2, [sp, #28]
 80064b2:	f8bd 2048 	ldrh.w	r2, [sp, #72]	@ 0x48
 80064b6:	9205      	str	r2, [sp, #20]
 80064b8:	2500      	movs	r5, #0
 80064ba:	ea4f 0258 	mov.w	r2, r8, lsr #1
 80064be:	f8bd b04c 	ldrh.w	fp, [sp, #76]	@ 0x4c
 80064c2:	9104      	str	r1, [sp, #16]
 80064c4:	4682      	mov	sl, r0
 80064c6:	9206      	str	r2, [sp, #24]
 80064c8:	b2f4      	uxtb	r4, r6
 80064ca:	462f      	mov	r7, r5
 80064cc:	f04f 090a 	mov.w	r9, #10
 80064d0:	2cff      	cmp	r4, #255	@ 0xff
 80064d2:	d127      	bne.n	8006524 <LCD_ShowIntNum+0x80>
 80064d4:	b009      	add	sp, #36	@ 0x24
 80064d6:	e8bd 8ff0 	ldmia.w	sp!, {r4, r5, r6, r7, r8, r9, sl, fp, pc}
 80064da:	fb09 f303 	mul.w	r3, r9, r3
 80064de:	3a01      	subs	r2, #1
 80064e0:	b2d2      	uxtb	r2, r2
 80064e2:	2aff      	cmp	r2, #255	@ 0xff
 80064e4:	d1f9      	bne.n	80064da <LCD_ShowIntNum+0x36>
 80064e6:	9a07      	ldr	r2, [sp, #28]
 80064e8:	fbb2 f3f3 	udiv	r3, r2, r3
 80064ec:	fbb3 f2f9 	udiv	r2, r3, r9
 80064f0:	fb09 3312 	mls	r3, r9, r2, r3
 80064f4:	b2da      	uxtb	r2, r3
 80064f6:	b9cf      	cbnz	r7, 800652c <LCD_ShowIntNum+0x88>
 80064f8:	42ae      	cmp	r6, r5
 80064fa:	dd17      	ble.n	800652c <LCD_ShowIntNum+0x88>
 80064fc:	b9ab      	cbnz	r3, 800652a <LCD_ShowIntNum+0x86>
 80064fe:	e9cd 8701 	strd	r8, r7, [sp, #4]
 8006502:	9b05      	ldr	r3, [sp, #20]
 8006504:	f8cd b000 	str.w	fp, [sp]
 8006508:	2220      	movs	r2, #32
 800650a:	4650      	mov	r0, sl
 800650c:	9904      	ldr	r1, [sp, #16]
 800650e:	f7ff fee3 	bl	80062d8 <LCD_ShowChar>
 8006512:	9b06      	ldr	r3, [sp, #24]
 8006514:	3c01      	subs	r4, #1
 8006516:	eb0a 0003 	add.w	r0, sl, r3
 800651a:	3501      	adds	r5, #1
 800651c:	fa1f fa80 	uxth.w	sl, r0
 8006520:	b2e4      	uxtb	r4, r4
 8006522:	e7d5      	b.n	80064d0 <LCD_ShowIntNum+0x2c>
 8006524:	4622      	mov	r2, r4
 8006526:	2301      	movs	r3, #1
 8006528:	e7d9      	b.n	80064de <LCD_ShowIntNum+0x3a>
 800652a:	2701      	movs	r7, #1
 800652c:	2300      	movs	r3, #0
 800652e:	3230      	adds	r2, #48	@ 0x30
 8006530:	e9cd 8301 	strd	r8, r3, [sp, #4]
 8006534:	f8cd b000 	str.w	fp, [sp]
 8006538:	9b05      	ldr	r3, [sp, #20]
 800653a:	b2d2      	uxtb	r2, r2
 800653c:	e7e5      	b.n	800650a <LCD_ShowIntNum+0x66>

0800653e <LCD_ShowPicture>:
 800653e:	e92d 47f0 	stmdb	sp!, {r4, r5, r6, r7, r8, r9, sl, lr}
 8006542:	4690      	mov	r8, r2
 8006544:	461c      	mov	r4, r3
 8006546:	3a01      	subs	r2, #1
 8006548:	3b01      	subs	r3, #1
 800654a:	440b      	add	r3, r1
 800654c:	4402      	add	r2, r0
 800654e:	b29b      	uxth	r3, r3
 8006550:	b292      	uxth	r2, r2
 8006552:	9f08      	ldr	r7, [sp, #32]
 8006554:	f000 f872 	bl	800663c <LCD_Address_Set>
 8006558:	2600      	movs	r6, #0
 800655a:	46b2      	mov	sl, r6
 800655c:	4546      	cmp	r6, r8
 800655e:	d015      	beq.n	800658c <LCD_ShowPicture+0x4e>
 8006560:	eb07 054a 	add.w	r5, r7, sl, lsl #1
 8006564:	f04f 0900 	mov.w	r9, #0
 8006568:	e009      	b.n	800657e <LCD_ShowPicture+0x40>
 800656a:	f815 0c02 	ldrb.w	r0, [r5, #-2]
 800656e:	f000 f833 	bl	80065d8 <LCD_WR_DATA8>
 8006572:	f815 0c01 	ldrb.w	r0, [r5, #-1]
 8006576:	f000 f82f 	bl	80065d8 <LCD_WR_DATA8>
 800657a:	f109 0901 	add.w	r9, r9, #1
 800657e:	45a1      	cmp	r9, r4
 8006580:	f105 0502 	add.w	r5, r5, #2
 8006584:	d1f1      	bne.n	800656a <LCD_ShowPicture+0x2c>
 8006586:	44a2      	add	sl, r4
 8006588:	3601      	adds	r6, #1
 800658a:	e7e7      	b.n	800655c <LCD_ShowPicture+0x1e>
 800658c:	e8bd 87f0 	ldmia.w	sp!, {r4, r5, r6, r7, r8, r9, sl, pc}

08006590 <LCD_Writ_Bus>:
 8006590:	b513      	push	{r0, r1, r4, lr}
 8006592:	2200      	movs	r2, #0
 8006594:	f88d 0007 	strb.w	r0, [sp, #7]
 8006598:	f44f 7180 	mov.w	r1, #256	@ 0x100
 800659c:	480c      	ldr	r0, [pc, #48]	@ (80065d0 <LCD_Writ_Bus+0x40>)
 800659e:	f7fc f819 	bl	80025d4 <HAL_GPIO_WritePin>
 80065a2:	480c      	ldr	r0, [pc, #48]	@ (80065d4 <LCD_Writ_Bus+0x44>)
 80065a4:	f7fe fa24 	bl	80049f0 <HAL_SPI_GetState>
 80065a8:	2801      	cmp	r0, #1
 80065aa:	4604      	mov	r4, r0
 80065ac:	d1f9      	bne.n	80065a2 <LCD_Writ_Bus+0x12>
 80065ae:	f242 7310 	movw	r3, #10000	@ 0x2710
 80065b2:	4602      	mov	r2, r0
 80065b4:	f10d 0107 	add.w	r1, sp, #7
 80065b8:	4806      	ldr	r0, [pc, #24]	@ (80065d4 <LCD_Writ_Bus+0x44>)
 80065ba:	f7fe f961 	bl	8004880 <HAL_SPI_Transmit>
 80065be:	4804      	ldr	r0, [pc, #16]	@ (80065d0 <LCD_Writ_Bus+0x40>)
 80065c0:	4622      	mov	r2, r4
 80065c2:	f44f 7180 	mov.w	r1, #256	@ 0x100
 80065c6:	f7fc f805 	bl	80025d4 <HAL_GPIO_WritePin>
 80065ca:	b002      	add	sp, #8
 80065cc:	bd10      	pop	{r4, pc}
 80065ce:	bf00      	nop
 80065d0:	40020800 	.word	0x40020800
 80065d4:	20004fb8 	.word	0x20004fb8

080065d8 <LCD_WR_DATA8>:
 80065d8:	b510      	push	{r4, lr}
 80065da:	2201      	movs	r2, #1
 80065dc:	4604      	mov	r4, r0
 80065de:	f44f 4180 	mov.w	r1, #16384	@ 0x4000
 80065e2:	4804      	ldr	r0, [pc, #16]	@ (80065f4 <LCD_WR_DATA8+0x1c>)
 80065e4:	f7fb fff6 	bl	80025d4 <HAL_GPIO_WritePin>
 80065e8:	4620      	mov	r0, r4
 80065ea:	e8bd 4010 	ldmia.w	sp!, {r4, lr}
 80065ee:	f7ff bfcf 	b.w	8006590 <LCD_Writ_Bus>
 80065f2:	bf00      	nop
 80065f4:	40020400 	.word	0x40020400

080065f8 <LCD_WR_DATA>:
 80065f8:	b510      	push	{r4, lr}
 80065fa:	2201      	movs	r2, #1
 80065fc:	4604      	mov	r4, r0
 80065fe:	f44f 4180 	mov.w	r1, #16384	@ 0x4000
 8006602:	4805      	ldr	r0, [pc, #20]	@ (8006618 <LCD_WR_DATA+0x20>)
 8006604:	f7fb ffe6 	bl	80025d4 <HAL_GPIO_WritePin>
 8006608:	0a20      	lsrs	r0, r4, #8
 800660a:	f7ff ffc1 	bl	8006590 <LCD_Writ_Bus>
 800660e:	b2e0      	uxtb	r0, r4
 8006610:	e8bd 4010 	ldmia.w	sp!, {r4, lr}
 8006614:	f7ff bfbc 	b.w	8006590 <LCD_Writ_Bus>
 8006618:	40020400 	.word	0x40020400

0800661c <LCD_WR_REG>:
 800661c:	b510      	push	{r4, lr}
 800661e:	2200      	movs	r2, #0
 8006620:	4604      	mov	r4, r0
 8006622:	f44f 4180 	mov.w	r1, #16384	@ 0x4000
 8006626:	4804      	ldr	r0, [pc, #16]	@ (8006638 <LCD_WR_REG+0x1c>)
 8006628:	f7fb ffd4 	bl	80025d4 <HAL_GPIO_WritePin>
 800662c:	4620      	mov	r0, r4
 800662e:	e8bd 4010 	ldmia.w	sp!, {r4, lr}
 8006632:	f7ff bfad 	b.w	8006590 <LCD_Writ_Bus>
 8006636:	bf00      	nop
 8006638:	40020400 	.word	0x40020400

0800663c <LCD_Address_Set>:
 800663c:	b5f8      	push	{r3, r4, r5, r6, r7, lr}
 800663e:	4607      	mov	r7, r0
 8006640:	202a      	movs	r0, #42	@ 0x2a
 8006642:	460d      	mov	r5, r1
 8006644:	4616      	mov	r6, r2
 8006646:	461c      	mov	r4, r3
 8006648:	f7ff ffe8 	bl	800661c <LCD_WR_REG>
 800664c:	4638      	mov	r0, r7
 800664e:	f7ff ffd3 	bl	80065f8 <LCD_WR_DATA>
 8006652:	4630      	mov	r0, r6
 8006654:	f7ff ffd0 	bl	80065f8 <LCD_WR_DATA>
 8006658:	202b      	movs	r0, #43	@ 0x2b
 800665a:	f7ff ffdf 	bl	800661c <LCD_WR_REG>
 800665e:	4628      	mov	r0, r5
 8006660:	f7ff ffca 	bl	80065f8 <LCD_WR_DATA>
 8006664:	4620      	mov	r0, r4
 8006666:	f7ff ffc7 	bl	80065f8 <LCD_WR_DATA>
 800666a:	e8bd 40f8 	ldmia.w	sp!, {r3, r4, r5, r6, r7, lr}
 800666e:	202c      	movs	r0, #44	@ 0x2c
 8006670:	f7ff bfd4 	b.w	800661c <LCD_WR_REG>

08006674 <LCD_Init>:
 8006674:	b084      	sub	sp, #16
 8006676:	b510      	push	{r4, lr}
 8006678:	ac02      	add	r4, sp, #8
 800667a:	e884 000f 	stmia.w	r4, {r0, r1, r2, r3}
 800667e:	4621      	mov	r1, r4
 8006680:	4c72      	ldr	r4, [pc, #456]	@ (800684c <LCD_Init+0x1d8>)
 8006682:	4873      	ldr	r0, [pc, #460]	@ (8006850 <LCD_Init+0x1dc>)
 8006684:	2258      	movs	r2, #88	@ 0x58
 8006686:	f003 fc01 	bl	8009e8c <memcpy>
 800668a:	2200      	movs	r2, #0
 800668c:	f44f 5180 	mov.w	r1, #4096	@ 0x1000
 8006690:	4620      	mov	r0, r4
 8006692:	f7fb ff9f 	bl	80025d4 <HAL_GPIO_WritePin>
 8006696:	2064      	movs	r0, #100	@ 0x64
 8006698:	f7fb f80e 	bl	80016b8 <HAL_Delay>
 800669c:	2201      	movs	r2, #1
 800669e:	f44f 5180 	mov.w	r1, #4096	@ 0x1000
 80066a2:	4620      	mov	r0, r4
 80066a4:	f7fb ff96 	bl	80025d4 <HAL_GPIO_WritePin>
 80066a8:	2064      	movs	r0, #100	@ 0x64
 80066aa:	f7fb f805 	bl	80016b8 <HAL_Delay>
 80066ae:	2201      	movs	r2, #1
 80066b0:	2110      	movs	r1, #16
 80066b2:	4868      	ldr	r0, [pc, #416]	@ (8006854 <LCD_Init+0x1e0>)
 80066b4:	f7fb ff8e 	bl	80025d4 <HAL_GPIO_WritePin>
 80066b8:	2064      	movs	r0, #100	@ 0x64
 80066ba:	f7fa fffd 	bl	80016b8 <HAL_Delay>
 80066be:	2011      	movs	r0, #17
 80066c0:	f7ff ffac 	bl	800661c <LCD_WR_REG>
 80066c4:	2078      	movs	r0, #120	@ 0x78
 80066c6:	f7fa fff7 	bl	80016b8 <HAL_Delay>
 80066ca:	2011      	movs	r0, #17
 80066cc:	f7ff ffa6 	bl	800661c <LCD_WR_REG>
 80066d0:	2078      	movs	r0, #120	@ 0x78
 80066d2:	f7fa fff1 	bl	80016b8 <HAL_Delay>
 80066d6:	2036      	movs	r0, #54	@ 0x36
 80066d8:	f7ff ffa0 	bl	800661c <LCD_WR_REG>
 80066dc:	2000      	movs	r0, #0
 80066de:	f7ff ff7b 	bl	80065d8 <LCD_WR_DATA8>
 80066e2:	203a      	movs	r0, #58	@ 0x3a
 80066e4:	f7ff ff9a 	bl	800661c <LCD_WR_REG>
 80066e8:	2005      	movs	r0, #5
 80066ea:	f7ff ff75 	bl	80065d8 <LCD_WR_DATA8>
 80066ee:	20b2      	movs	r0, #178	@ 0xb2
 80066f0:	f7ff ff94 	bl	800661c <LCD_WR_REG>
 80066f4:	200c      	movs	r0, #12
 80066f6:	f7ff ff6f 	bl	80065d8 <LCD_WR_DATA8>
 80066fa:	200c      	movs	r0, #12
 80066fc:	f7ff ff6c 	bl	80065d8 <LCD_WR_DATA8>
 8006700:	2000      	movs	r0, #0
 8006702:	f7ff ff69 	bl	80065d8 <LCD_WR_DATA8>
 8006706:	2033      	movs	r0, #51	@ 0x33
 8006708:	f7ff ff66 	bl	80065d8 <LCD_WR_DATA8>
 800670c:	2033      	movs	r0, #51	@ 0x33
 800670e:	f7ff ff63 	bl	80065d8 <LCD_WR_DATA8>
 8006712:	20c6      	movs	r0, #198	@ 0xc6
 8006714:	f7ff ff82 	bl	800661c <LCD_WR_REG>
 8006718:	201f      	movs	r0, #31
 800671a:	f7ff ff5d 	bl	80065d8 <LCD_WR_DATA8>
 800671e:	20b7      	movs	r0, #183	@ 0xb7
 8006720:	f7ff ff7c 	bl	800661c <LCD_WR_REG>
 8006724:	2035      	movs	r0, #53	@ 0x35
 8006726:	f7ff ff57 	bl	80065d8 <LCD_WR_DATA8>
 800672a:	20bb      	movs	r0, #187	@ 0xbb
 800672c:	f7ff ff76 	bl	800661c <LCD_WR_REG>
 8006730:	2019      	movs	r0, #25
 8006732:	f7ff ff51 	bl	80065d8 <LCD_WR_DATA8>
 8006736:	20c0      	movs	r0, #192	@ 0xc0
 8006738:	f7ff ff70 	bl	800661c <LCD_WR_REG>
 800673c:	202c      	movs	r0, #44	@ 0x2c
 800673e:	f7ff ff4b 	bl	80065d8 <LCD_WR_DATA8>
 8006742:	20c2      	movs	r0, #194	@ 0xc2
 8006744:	f7ff ff6a 	bl	800661c <LCD_WR_REG>
 8006748:	2001      	movs	r0, #1
 800674a:	f7ff ff45 	bl	80065d8 <LCD_WR_DATA8>
 800674e:	20c3      	movs	r0, #195	@ 0xc3
 8006750:	f7ff ff64 	bl	800661c <LCD_WR_REG>
 8006754:	2012      	movs	r0, #18
 8006756:	f7ff ff3f 	bl	80065d8 <LCD_WR_DATA8>
 800675a:	20c4      	movs	r0, #196	@ 0xc4
 800675c:	f7ff ff5e 	bl	800661c <LCD_WR_REG>
 8006760:	2020      	movs	r0, #32
 8006762:	f7ff ff39 	bl	80065d8 <LCD_WR_DATA8>
 8006766:	20c6      	movs	r0, #198	@ 0xc6
 8006768:	f7ff ff58 	bl	800661c <LCD_WR_REG>
 800676c:	200f      	movs	r0, #15
 800676e:	f7ff ff33 	bl	80065d8 <LCD_WR_DATA8>
 8006772:	20d0      	movs	r0, #208	@ 0xd0
 8006774:	f7ff ff52 	bl	800661c <LCD_WR_REG>
 8006778:	20a4      	movs	r0, #164	@ 0xa4
 800677a:	f7ff ff2d 	bl	80065d8 <LCD_WR_DATA8>
 800677e:	20a1      	movs	r0, #161	@ 0xa1
 8006780:	f7ff ff2a 	bl	80065d8 <LCD_WR_DATA8>
 8006784:	20e0      	movs	r0, #224	@ 0xe0
 8006786:	f7ff ff49 	bl	800661c <LCD_WR_REG>
 800678a:	20d0      	movs	r0, #208	@ 0xd0
 800678c:	f7ff ff24 	bl	80065d8 <LCD_WR_DATA8>
 8006790:	2004      	movs	r0, #4
 8006792:	f7ff ff21 	bl	80065d8 <LCD_WR_DATA8>
 8006796:	200d      	movs	r0, #13
 8006798:	f7ff ff1e 	bl	80065d8 <LCD_WR_DATA8>
 800679c:	2011      	movs	r0, #17
 800679e:	f7ff ff1b 	bl	80065d8 <LCD_WR_DATA8>
 80067a2:	2013      	movs	r0, #19
 80067a4:	f7ff ff18 	bl	80065d8 <LCD_WR_DATA8>
 80067a8:	202b      	movs	r0, #43	@ 0x2b
 80067aa:	f7ff ff15 	bl	80065d8 <LCD_WR_DATA8>
 80067ae:	203f      	movs	r0, #63	@ 0x3f
 80067b0:	f7ff ff12 	bl	80065d8 <LCD_WR_DATA8>
 80067b4:	2054      	movs	r0, #84	@ 0x54
 80067b6:	f7ff ff0f 	bl	80065d8 <LCD_WR_DATA8>
 80067ba:	204c      	movs	r0, #76	@ 0x4c
 80067bc:	f7ff ff0c 	bl	80065d8 <LCD_WR_DATA8>
 80067c0:	2018      	movs	r0, #24
 80067c2:	f7ff ff09 	bl	80065d8 <LCD_WR_DATA8>
 80067c6:	200d      	movs	r0, #13
 80067c8:	f7ff ff06 	bl	80065d8 <LCD_WR_DATA8>
 80067cc:	200b      	movs	r0, #11
 80067ce:	f7ff ff03 	bl	80065d8 <LCD_WR_DATA8>
 80067d2:	201f      	movs	r0, #31
 80067d4:	f7ff ff00 	bl	80065d8 <LCD_WR_DATA8>
 80067d8:	2023      	movs	r0, #35	@ 0x23
 80067da:	f7ff fefd 	bl	80065d8 <LCD_WR_DATA8>
 80067de:	20e1      	movs	r0, #225	@ 0xe1
 80067e0:	f7ff ff1c 	bl	800661c <LCD_WR_REG>
 80067e4:	20d0      	movs	r0, #208	@ 0xd0
 80067e6:	f7ff fef7 	bl	80065d8 <LCD_WR_DATA8>
 80067ea:	2004      	movs	r0, #4
 80067ec:	f7ff fef4 	bl	80065d8 <LCD_WR_DATA8>
 80067f0:	200c      	movs	r0, #12
 80067f2:	f7ff fef1 	bl	80065d8 <LCD_WR_DATA8>
 80067f6:	2011      	movs	r0, #17
 80067f8:	f7ff feee 	bl	80065d8 <LCD_WR_DATA8>
 80067fc:	2013      	movs	r0, #19
 80067fe:	f7ff feeb 	bl	80065d8 <LCD_WR_DATA8>
 8006802:	202c      	movs	r0, #44	@ 0x2c
 8006804:	f7ff fee8 	bl	80065d8 <LCD_WR_DATA8>
 8006808:	203f      	movs	r0, #63	@ 0x3f
 800680a:	f7ff fee5 	bl	80065d8 <LCD_WR_DATA8>
 800680e:	2044      	movs	r0, #68	@ 0x44
 8006810:	f7ff fee2 	bl	80065d8 <LCD_WR_DATA8>
 8006814:	2051      	movs	r0, #81	@ 0x51
 8006816:	f7ff fedf 	bl	80065d8 <LCD_WR_DATA8>
 800681a:	202f      	movs	r0, #47	@ 0x2f
 800681c:	f7ff fedc 	bl	80065d8 <LCD_WR_DATA8>
 8006820:	201f      	movs	r0, #31
 8006822:	f7ff fed9 	bl	80065d8 <LCD_WR_DATA8>
 8006826:	201f      	movs	r0, #31
 8006828:	f7ff fed6 	bl	80065d8 <LCD_WR_DATA8>
 800682c:	2020      	movs	r0, #32
 800682e:	f7ff fed3 	bl	80065d8 <LCD_WR_DATA8>
 8006832:	2023      	movs	r0, #35	@ 0x23
 8006834:	f7ff fed0 	bl	80065d8 <LCD_WR_DATA8>
 8006838:	2021      	movs	r0, #33	@ 0x21
 800683a:	f7ff feef 	bl	800661c <LCD_WR_REG>
 800683e:	e8bd 4010 	ldmia.w	sp!, {r4, lr}
 8006842:	2029      	movs	r0, #41	@ 0x29
 8006844:	b004      	add	sp, #16
 8006846:	f7ff bee9 	b.w	800661c <LCD_WR_REG>
 800684a:	bf00      	nop
 800684c:	40020400 	.word	0x40020400
 8006850:	20004fb8 	.word	0x20004fb8
 8006854:	40020000 	.word	0x40020000

08006858 <KeyReportConstructFunc>:
 8006858:	2904      	cmp	r1, #4
 800685a:	b470      	push	{r4, r5, r6}
 800685c:	4604      	mov	r4, r0
 800685e:	460d      	mov	r5, r1
 8006860:	d11c      	bne.n	800689c <KeyReportConstructFunc+0x44>
 8006862:	2a09      	cmp	r2, #9
 8006864:	d11a      	bne.n	800689c <KeyReportConstructFunc+0x44>
 8006866:	4e64      	ldr	r6, [pc, #400]	@ (80069f8 <KeyReportConstructFunc+0x1a0>)
 8006868:	7831      	ldrb	r1, [r6, #0]
 800686a:	b949      	cbnz	r1, 8006880 <KeyReportConstructFunc+0x28>
 800686c:	b1b3      	cbz	r3, 800689c <KeyReportConstructFunc+0x44>
 800686e:	2301      	movs	r3, #1
 8006870:	7033      	strb	r3, [r6, #0]
 8006872:	4b62      	ldr	r3, [pc, #392]	@ (80069fc <KeyReportConstructFunc+0x1a4>)
 8006874:	220a      	movs	r2, #10
 8006876:	801a      	strh	r2, [r3, #0]
 8006878:	2211      	movs	r2, #17
 800687a:	bc70      	pop	{r4, r5, r6}
 800687c:	f003 bad2 	b.w	8009e24 <memset>
 8006880:	b963      	cbnz	r3, 800689c <KeyReportConstructFunc+0x44>
 8006882:	7033      	strb	r3, [r6, #0]
 8006884:	4b5d      	ldr	r3, [pc, #372]	@ (80069fc <KeyReportConstructFunc+0x1a4>)
 8006886:	8819      	ldrh	r1, [r3, #0]
 8006888:	f64f 72ff 	movw	r2, #65535	@ 0xffff
 800688c:	4291      	cmp	r1, r2
 800688e:	bf1c      	itt	ne
 8006890:	f44f 727a 	movne.w	r2, #1000	@ 0x3e8
 8006894:	801a      	strhne	r2, [r3, #0]
 8006896:	2100      	movs	r1, #0
 8006898:	2211      	movs	r2, #17
 800689a:	e7ee      	b.n	800687a <KeyReportConstructFunc+0x22>
 800689c:	4958      	ldr	r1, [pc, #352]	@ (8006a00 <KeyReportConstructFunc+0x1a8>)
 800689e:	7809      	ldrb	r1, [r1, #0]
 80068a0:	b131      	cbz	r1, 80068b0 <KeyReportConstructFunc+0x58>
 80068a2:	4955      	ldr	r1, [pc, #340]	@ (80069f8 <KeyReportConstructFunc+0x1a0>)
 80068a4:	7809      	ldrb	r1, [r1, #0]
 80068a6:	2900      	cmp	r1, #0
 80068a8:	f040 8095 	bne.w	80069d6 <KeyReportConstructFunc+0x17e>
 80068ac:	bc70      	pop	{r4, r5, r6}
 80068ae:	4770      	bx	lr
 80068b0:	2d04      	cmp	r5, #4
 80068b2:	d12a      	bne.n	800690a <KeyReportConstructFunc+0xb2>
 80068b4:	2a02      	cmp	r2, #2
 80068b6:	d128      	bne.n	800690a <KeyReportConstructFunc+0xb2>
 80068b8:	4952      	ldr	r1, [pc, #328]	@ (8006a04 <KeyReportConstructFunc+0x1ac>)
 80068ba:	7808      	ldrb	r0, [r1, #0]
 80068bc:	b990      	cbnz	r0, 80068e4 <KeyReportConstructFunc+0x8c>
 80068be:	b323      	cbz	r3, 800690a <KeyReportConstructFunc+0xb2>
 80068c0:	2301      	movs	r3, #1
 80068c2:	700b      	strb	r3, [r1, #0]
 80068c4:	4b4d      	ldr	r3, [pc, #308]	@ (80069fc <KeyReportConstructFunc+0x1a4>)
 80068c6:	4950      	ldr	r1, [pc, #320]	@ (8006a08 <KeyReportConstructFunc+0x1b0>)
 80068c8:	2264      	movs	r2, #100	@ 0x64
 80068ca:	801a      	strh	r2, [r3, #0]
 80068cc:	1e63      	subs	r3, r4, #1
 80068ce:	3410      	adds	r4, #16
 80068d0:	f813 0f01 	ldrb.w	r0, [r3, #1]!
 80068d4:	f811 2b01 	ldrb.w	r2, [r1], #1
 80068d8:	42a3      	cmp	r3, r4
 80068da:	ea02 0200 	and.w	r2, r2, r0
 80068de:	701a      	strb	r2, [r3, #0]
 80068e0:	d1f6      	bne.n	80068d0 <KeyReportConstructFunc+0x78>
 80068e2:	e7e3      	b.n	80068ac <KeyReportConstructFunc+0x54>
 80068e4:	b98b      	cbnz	r3, 800690a <KeyReportConstructFunc+0xb2>
 80068e6:	700b      	strb	r3, [r1, #0]
 80068e8:	4b44      	ldr	r3, [pc, #272]	@ (80069fc <KeyReportConstructFunc+0x1a4>)
 80068ea:	4947      	ldr	r1, [pc, #284]	@ (8006a08 <KeyReportConstructFunc+0x1b0>)
 80068ec:	f44f 727a 	mov.w	r2, #1000	@ 0x3e8
 80068f0:	801a      	strh	r2, [r3, #0]
 80068f2:	1e63      	subs	r3, r4, #1
 80068f4:	3410      	adds	r4, #16
 80068f6:	f813 0f01 	ldrb.w	r0, [r3, #1]!
 80068fa:	f811 2b01 	ldrb.w	r2, [r1], #1
 80068fe:	42a3      	cmp	r3, r4
 8006900:	ea02 0200 	and.w	r2, r2, r0
 8006904:	701a      	strb	r2, [r3, #0]
 8006906:	d1f6      	bne.n	80068f6 <KeyReportConstructFunc+0x9e>
 8006908:	e7d0      	b.n	80068ac <KeyReportConstructFunc+0x54>
 800690a:	493b      	ldr	r1, [pc, #236]	@ (80069f8 <KeyReportConstructFunc+0x1a0>)
 800690c:	7809      	ldrb	r1, [r1, #0]
 800690e:	2900      	cmp	r1, #0
 8006910:	d166      	bne.n	80069e0 <KeyReportConstructFunc+0x188>
 8006912:	493c      	ldr	r1, [pc, #240]	@ (8006a04 <KeyReportConstructFunc+0x1ac>)
 8006914:	7809      	ldrb	r1, [r1, #0]
 8006916:	200e      	movs	r0, #14
 8006918:	b991      	cbnz	r1, 8006940 <KeyReportConstructFunc+0xe8>
 800691a:	493c      	ldr	r1, [pc, #240]	@ (8006a0c <KeyReportConstructFunc+0x1b4>)
 800691c:	fb00 1105 	mla	r1, r0, r5, r1
 8006920:	5c8a      	ldrb	r2, [r1, r2]
 8006922:	493b      	ldr	r1, [pc, #236]	@ (8006a10 <KeyReportConstructFunc+0x1b8>)
 8006924:	2aff      	cmp	r2, #255	@ 0xff
 8006926:	700a      	strb	r2, [r1, #0]
 8006928:	d0c0      	beq.n	80068ac <KeyReportConstructFunc+0x54>
 800692a:	2adf      	cmp	r2, #223	@ 0xdf
 800692c:	d90d      	bls.n	800694a <KeyReportConstructFunc+0xf2>
 800692e:	3220      	adds	r2, #32
 8006930:	b2d2      	uxtb	r2, r2
 8006932:	2101      	movs	r1, #1
 8006934:	4091      	lsls	r1, r2
 8006936:	7822      	ldrb	r2, [r4, #0]
 8006938:	b123      	cbz	r3, 8006944 <KeyReportConstructFunc+0xec>
 800693a:	430a      	orrs	r2, r1
 800693c:	7022      	strb	r2, [r4, #0]
 800693e:	e7b5      	b.n	80068ac <KeyReportConstructFunc+0x54>
 8006940:	4934      	ldr	r1, [pc, #208]	@ (8006a14 <KeyReportConstructFunc+0x1bc>)
 8006942:	e7eb      	b.n	800691c <KeyReportConstructFunc+0xc4>
 8006944:	ea22 0201 	bic.w	r2, r2, r1
 8006948:	e7f8      	b.n	800693c <KeyReportConstructFunc+0xe4>
 800694a:	2a53      	cmp	r2, #83	@ 0x53
 800694c:	d80d      	bhi.n	800696a <KeyReportConstructFunc+0x112>
 800694e:	f002 0107 	and.w	r1, r2, #7
 8006952:	08d2      	lsrs	r2, r2, #3
 8006954:	3201      	adds	r2, #1
 8006956:	2001      	movs	r0, #1
 8006958:	4088      	lsls	r0, r1
 800695a:	5ca1      	ldrb	r1, [r4, r2]
 800695c:	b113      	cbz	r3, 8006964 <KeyReportConstructFunc+0x10c>
 800695e:	4301      	orrs	r1, r0
 8006960:	54a1      	strb	r1, [r4, r2]
 8006962:	e7a3      	b.n	80068ac <KeyReportConstructFunc+0x54>
 8006964:	ea21 0100 	bic.w	r1, r1, r0
 8006968:	e7fa      	b.n	8006960 <KeyReportConstructFunc+0x108>
 800696a:	3a77      	subs	r2, #119	@ 0x77
 800696c:	2a06      	cmp	r2, #6
 800696e:	d89d      	bhi.n	80068ac <KeyReportConstructFunc+0x54>
 8006970:	a101      	add	r1, pc, #4	@ (adr r1, 8006978 <KeyReportConstructFunc+0x120>)
 8006972:	f851 f022 	ldr.w	pc, [r1, r2, lsl #2]
 8006976:	bf00      	nop
 8006978:	080069b7 	.word	0x080069b7
 800697c:	08006995 	.word	0x08006995
 8006980:	080069a7 	.word	0x080069a7
 8006984:	080068ad 	.word	0x080068ad
 8006988:	080068ad 	.word	0x080068ad
 800698c:	080068ad 	.word	0x080068ad
 8006990:	080069c7 	.word	0x080069c7
 8006994:	7c22      	ldrb	r2, [r4, #16]
 8006996:	b11b      	cbz	r3, 80069a0 <KeyReportConstructFunc+0x148>
 8006998:	f042 0201 	orr.w	r2, r2, #1
 800699c:	7422      	strb	r2, [r4, #16]
 800699e:	e785      	b.n	80068ac <KeyReportConstructFunc+0x54>
 80069a0:	f022 0201 	bic.w	r2, r2, #1
 80069a4:	e7fa      	b.n	800699c <KeyReportConstructFunc+0x144>
 80069a6:	7c22      	ldrb	r2, [r4, #16]
 80069a8:	b113      	cbz	r3, 80069b0 <KeyReportConstructFunc+0x158>
 80069aa:	f042 0202 	orr.w	r2, r2, #2
 80069ae:	e7f5      	b.n	800699c <KeyReportConstructFunc+0x144>
 80069b0:	f022 0203 	bic.w	r2, r2, #3
 80069b4:	e7f2      	b.n	800699c <KeyReportConstructFunc+0x144>
 80069b6:	7c22      	ldrb	r2, [r4, #16]
 80069b8:	b113      	cbz	r3, 80069c0 <KeyReportConstructFunc+0x168>
 80069ba:	f042 0204 	orr.w	r2, r2, #4
 80069be:	e7ed      	b.n	800699c <KeyReportConstructFunc+0x144>
 80069c0:	f022 0207 	bic.w	r2, r2, #7
 80069c4:	e7ea      	b.n	800699c <KeyReportConstructFunc+0x144>
 80069c6:	7c22      	ldrb	r2, [r4, #16]
 80069c8:	b113      	cbz	r3, 80069d0 <KeyReportConstructFunc+0x178>
 80069ca:	f042 0208 	orr.w	r2, r2, #8
 80069ce:	e7e5      	b.n	800699c <KeyReportConstructFunc+0x144>
 80069d0:	f022 020f 	bic.w	r2, r2, #15
 80069d4:	e7e2      	b.n	800699c <KeyReportConstructFunc+0x144>
 80069d6:	2d04      	cmp	r5, #4
 80069d8:	d102      	bne.n	80069e0 <KeyReportConstructFunc+0x188>
 80069da:	2a02      	cmp	r2, #2
 80069dc:	f43f af6c 	beq.w	80068b8 <KeyReportConstructFunc+0x60>
 80069e0:	230e      	movs	r3, #14
 80069e2:	fb03 2305 	mla	r3, r3, r5, r2
 80069e6:	4a0c      	ldr	r2, [pc, #48]	@ (8006a18 <KeyReportConstructFunc+0x1c0>)
 80069e8:	f852 3023 	ldr.w	r3, [r2, r3, lsl #2]
 80069ec:	2b00      	cmp	r3, #0
 80069ee:	f43f af5d 	beq.w	80068ac <KeyReportConstructFunc+0x54>
 80069f2:	bc70      	pop	{r4, r5, r6}
 80069f4:	4718      	bx	r3
 80069f6:	bf00      	nop
 80069f8:	2000501a 	.word	0x2000501a
 80069fc:	20000238 	.word	0x20000238
 8006a00:	200050a8 	.word	0x200050a8
 8006a04:	20005019 	.word	0x20005019
 8006a08:	20000010 	.word	0x20000010
 8006a0c:	2000017e 	.word	0x2000017e
 8006a10:	20005018 	.word	0x20005018
 8006a14:	20000138 	.word	0x20000138
 8006a18:	20000020 	.word	0x20000020

08006a1c <SingleScan>:
 8006a1c:	e92d 4ff7 	stmdb	sp!, {r0, r1, r2, r4, r5, r6, r7, r8, r9, sl, fp, lr}
 8006a20:	f8df 80e0 	ldr.w	r8, [pc, #224]	@ 8006b04 <SingleScan+0xe8>
 8006a24:	f8df 90e0 	ldr.w	r9, [pc, #224]	@ 8006b08 <SingleScan+0xec>
 8006a28:	4b32      	ldr	r3, [pc, #200]	@ (8006af4 <SingleScan+0xd8>)
 8006a2a:	9001      	str	r0, [sp, #4]
 8006a2c:	2500      	movs	r5, #0
 8006a2e:	f8b9 1008 	ldrh.w	r1, [r9, #8]
 8006a32:	f8d8 0010 	ldr.w	r0, [r8, #16]
 8006a36:	701d      	strb	r5, [r3, #0]
 8006a38:	2201      	movs	r2, #1
 8006a3a:	f7fb fdcb 	bl	80025d4 <HAL_GPIO_WritePin>
 8006a3e:	f839 1b02 	ldrh.w	r1, [r9], #2
 8006a42:	f858 0b04 	ldr.w	r0, [r8], #4
 8006a46:	f8df a0c4 	ldr.w	sl, [pc, #196]	@ 8006b0c <SingleScan+0xf0>
 8006a4a:	f8df b0a8 	ldr.w	fp, [pc, #168]	@ 8006af4 <SingleScan+0xd8>
 8006a4e:	2200      	movs	r2, #0
 8006a50:	f7fb fdc0 	bl	80025d4 <HAL_GPIO_WritePin>
 8006a54:	4b28      	ldr	r3, [pc, #160]	@ (8006af8 <SingleScan+0xdc>)
 8006a56:	9300      	str	r3, [sp, #0]
 8006a58:	240e      	movs	r4, #14
 8006a5a:	4b28      	ldr	r3, [pc, #160]	@ (8006afc <SingleScan+0xe0>)
 8006a5c:	436c      	muls	r4, r5
 8006a5e:	18e6      	adds	r6, r4, r3
 8006a60:	4b27      	ldr	r3, [pc, #156]	@ (8006b00 <SingleScan+0xe4>)
 8006a62:	2700      	movs	r7, #0
 8006a64:	441c      	add	r4, r3
 8006a66:	9b00      	ldr	r3, [sp, #0]
 8006a68:	f85a 0b04 	ldr.w	r0, [sl], #4
 8006a6c:	f833 1b02 	ldrh.w	r1, [r3], #2
 8006a70:	9300      	str	r3, [sp, #0]
 8006a72:	f7fb fd9d 	bl	80025b0 <HAL_GPIO_ReadPin>
 8006a76:	7833      	ldrb	r3, [r6, #0]
 8006a78:	bb30      	cbnz	r0, 8006ac8 <SingleScan+0xac>
 8006a7a:	b93b      	cbnz	r3, 8006a8c <SingleScan+0x70>
 8006a7c:	7823      	ldrb	r3, [r4, #0]
 8006a7e:	2b0f      	cmp	r3, #15
 8006a80:	d802      	bhi.n	8006a88 <SingleScan+0x6c>
 8006a82:	3301      	adds	r3, #1
 8006a84:	b2db      	uxtb	r3, r3
 8006a86:	e000      	b.n	8006a8a <SingleScan+0x6e>
 8006a88:	230f      	movs	r3, #15
 8006a8a:	7023      	strb	r3, [r4, #0]
 8006a8c:	f814 3b01 	ldrb.w	r3, [r4], #1
 8006a90:	2b0e      	cmp	r3, #14
 8006a92:	d920      	bls.n	8006ad6 <SingleScan+0xba>
 8006a94:	7833      	ldrb	r3, [r6, #0]
 8006a96:	b94b      	cbnz	r3, 8006aac <SingleScan+0x90>
 8006a98:	2301      	movs	r3, #1
 8006a9a:	7033      	strb	r3, [r6, #0]
 8006a9c:	9801      	ldr	r0, [sp, #4]
 8006a9e:	b2fa      	uxtb	r2, r7
 8006aa0:	b2e9      	uxtb	r1, r5
 8006aa2:	f7ff fed9 	bl	8006858 <KeyReportConstructFunc>
 8006aa6:	2301      	movs	r3, #1
 8006aa8:	f88b 3000 	strb.w	r3, [fp]
 8006aac:	3701      	adds	r7, #1
 8006aae:	2f0e      	cmp	r7, #14
 8006ab0:	f106 0601 	add.w	r6, r6, #1
 8006ab4:	d1d7      	bne.n	8006a66 <SingleScan+0x4a>
 8006ab6:	3501      	adds	r5, #1
 8006ab8:	2d05      	cmp	r5, #5
 8006aba:	d016      	beq.n	8006aea <SingleScan+0xce>
 8006abc:	f839 1c02 	ldrh.w	r1, [r9, #-2]
 8006ac0:	f858 0c04 	ldr.w	r0, [r8, #-4]
 8006ac4:	2201      	movs	r2, #1
 8006ac6:	e7b8      	b.n	8006a3a <SingleScan+0x1e>
 8006ac8:	2b00      	cmp	r3, #0
 8006aca:	d0df      	beq.n	8006a8c <SingleScan+0x70>
 8006acc:	7823      	ldrb	r3, [r4, #0]
 8006ace:	2b00      	cmp	r3, #0
 8006ad0:	d0db      	beq.n	8006a8a <SingleScan+0x6e>
 8006ad2:	3b01      	subs	r3, #1
 8006ad4:	e7d6      	b.n	8006a84 <SingleScan+0x68>
 8006ad6:	2b06      	cmp	r3, #6
 8006ad8:	d8e8      	bhi.n	8006aac <SingleScan+0x90>
 8006ada:	7833      	ldrb	r3, [r6, #0]
 8006adc:	2b00      	cmp	r3, #0
 8006ade:	d0e5      	beq.n	8006aac <SingleScan+0x90>
 8006ae0:	f04f 0300 	mov.w	r3, #0
 8006ae4:	7033      	strb	r3, [r6, #0]
 8006ae6:	2300      	movs	r3, #0
 8006ae8:	e7d8      	b.n	8006a9c <SingleScan+0x80>
 8006aea:	4b02      	ldr	r3, [pc, #8]	@ (8006af4 <SingleScan+0xd8>)
 8006aec:	7818      	ldrb	r0, [r3, #0]
 8006aee:	b003      	add	sp, #12
 8006af0:	e8bd 8ff0 	ldmia.w	sp!, {r4, r5, r6, r7, r8, r9, sl, fp, pc}
 8006af4:	200050a9 	.word	0x200050a9
 8006af8:	200001e4 	.word	0x200001e4
 8006afc:	20005061 	.word	0x20005061
 8006b00:	2000501b 	.word	0x2000501b
 8006b04:	200001d0 	.word	0x200001d0
 8006b08:	200001c4 	.word	0x200001c4
 8006b0c:	20000200 	.word	0x20000200

08006b10 <LOCK_KEYBOARD>:
 8006b10:	b510      	push	{r4, lr}
 8006b12:	4c0c      	ldr	r4, [pc, #48]	@ (8006b44 <LOCK_KEYBOARD+0x34>)
 8006b14:	f001 fc08 	bl	8008328 <osKernelGetTickCount>
 8006b18:	6823      	ldr	r3, [r4, #0]
 8006b1a:	1ac0      	subs	r0, r0, r3
 8006b1c:	f5b0 7f7a 	cmp.w	r0, #1000	@ 0x3e8
 8006b20:	d30c      	bcc.n	8006b3c <LOCK_KEYBOARD+0x2c>
 8006b22:	f001 fc01 	bl	8008328 <osKernelGetTickCount>
 8006b26:	4a08      	ldr	r2, [pc, #32]	@ (8006b48 <LOCK_KEYBOARD+0x38>)
 8006b28:	6020      	str	r0, [r4, #0]
 8006b2a:	7813      	ldrb	r3, [r2, #0]
 8006b2c:	f083 0301 	eor.w	r3, r3, #1
 8006b30:	7013      	strb	r3, [r2, #0]
 8006b32:	4a06      	ldr	r2, [pc, #24]	@ (8006b4c <LOCK_KEYBOARD+0x3c>)
 8006b34:	b11b      	cbz	r3, 8006b3e <LOCK_KEYBOARD+0x2e>
 8006b36:	f64f 73ff 	movw	r3, #65535	@ 0xffff
 8006b3a:	8013      	strh	r3, [r2, #0]
 8006b3c:	bd10      	pop	{r4, pc}
 8006b3e:	f44f 737a 	mov.w	r3, #1000	@ 0x3e8
 8006b42:	e7fa      	b.n	8006b3a <LOCK_KEYBOARD+0x2a>
 8006b44:	20005014 	.word	0x20005014
 8006b48:	200050a8 	.word	0x200050a8
 8006b4c:	20000238 	.word	0x20000238

08006b50 <HexDispSwitch>:
 8006b50:	b510      	push	{r4, lr}
 8006b52:	4c08      	ldr	r4, [pc, #32]	@ (8006b74 <HexDispSwitch+0x24>)
 8006b54:	f001 fbe8 	bl	8008328 <osKernelGetTickCount>
 8006b58:	6823      	ldr	r3, [r4, #0]
 8006b5a:	1ac0      	subs	r0, r0, r3
 8006b5c:	f5b0 7f7a 	cmp.w	r0, #1000	@ 0x3e8
 8006b60:	d307      	bcc.n	8006b72 <HexDispSwitch+0x22>
 8006b62:	f001 fbe1 	bl	8008328 <osKernelGetTickCount>
 8006b66:	4a04      	ldr	r2, [pc, #16]	@ (8006b78 <HexDispSwitch+0x28>)
 8006b68:	6020      	str	r0, [r4, #0]
 8006b6a:	7813      	ldrb	r3, [r2, #0]
 8006b6c:	f083 0301 	eor.w	r3, r3, #1
 8006b70:	7013      	strb	r3, [r2, #0]
 8006b72:	bd10      	pop	{r4, pc}
 8006b74:	20005010 	.word	0x20005010
 8006b78:	200050a7 	.word	0x200050a7

08006b7c <USBD_CDC_EP0_RxReady>:
 8006b7c:	b570      	push	{r4, r5, r6, lr}
 8006b7e:	4c0c      	ldr	r4, [pc, #48]	@ (8006bb0 <USBD_CDC_EP0_RxReady+0x34>)
 8006b80:	4605      	mov	r5, r0
 8006b82:	2000      	movs	r0, #0
 8006b84:	f894 1200 	ldrb.w	r1, [r4, #512]	@ 0x200
 8006b88:	b108      	cbz	r0, 8006b8e <USBD_CDC_EP0_RxReady+0x12>
 8006b8a:	2000      	movs	r0, #0
 8006b8c:	bd70      	pop	{r4, r5, r6, pc}
 8006b8e:	f8d5 32bc 	ldr.w	r3, [r5, #700]	@ 0x2bc
 8006b92:	2b00      	cmp	r3, #0
 8006b94:	d0f9      	beq.n	8006b8a <USBD_CDC_EP0_RxReady+0xe>
 8006b96:	29ff      	cmp	r1, #255	@ 0xff
 8006b98:	d0f7      	beq.n	8006b8a <USBD_CDC_EP0_RxReady+0xe>
 8006b9a:	689e      	ldr	r6, [r3, #8]
 8006b9c:	4a04      	ldr	r2, [pc, #16]	@ (8006bb0 <USBD_CDC_EP0_RxReady+0x34>)
 8006b9e:	f894 3201 	ldrb.w	r3, [r4, #513]	@ 0x201
 8006ba2:	47b0      	blx	r6
 8006ba4:	23ff      	movs	r3, #255	@ 0xff
 8006ba6:	f884 3200 	strb.w	r3, [r4, #512]	@ 0x200
 8006baa:	2001      	movs	r0, #1
 8006bac:	e7ea      	b.n	8006b84 <USBD_CDC_EP0_RxReady+0x8>
 8006bae:	bf00      	nop
 8006bb0:	200050ac 	.word	0x200050ac

08006bb4 <USBD_CDC_GetFSCfgDesc>:
 8006bb4:	234b      	movs	r3, #75	@ 0x4b
 8006bb6:	8003      	strh	r3, [r0, #0]
 8006bb8:	4800      	ldr	r0, [pc, #0]	@ (8006bbc <USBD_CDC_GetFSCfgDesc+0x8>)
 8006bba:	4770      	bx	lr
 8006bbc:	2000023c 	.word	0x2000023c

08006bc0 <USBD_CDC_GetHSCfgDesc>:
 8006bc0:	234b      	movs	r3, #75	@ 0x4b
 8006bc2:	8003      	strh	r3, [r0, #0]
 8006bc4:	4800      	ldr	r0, [pc, #0]	@ (8006bc8 <USBD_CDC_GetHSCfgDesc+0x8>)
 8006bc6:	4770      	bx	lr
 8006bc8:	20000288 	.word	0x20000288

08006bcc <USBD_CDC_GetDeviceQualifierDescriptor>:
 8006bcc:	230a      	movs	r3, #10
 8006bce:	8003      	strh	r3, [r0, #0]
 8006bd0:	4800      	ldr	r0, [pc, #0]	@ (8006bd4 <USBD_CDC_GetDeviceQualifierDescriptor+0x8>)
 8006bd2:	4770      	bx	lr
 8006bd4:	20000310 	.word	0x20000310

08006bd8 <USBD_CDC_DataOut>:
 8006bd8:	b510      	push	{r4, lr}
 8006bda:	4604      	mov	r4, r0
 8006bdc:	f000 fcf7 	bl	80075ce <USBD_LL_GetRxDataSize>
 8006be0:	4b06      	ldr	r3, [pc, #24]	@ (8006bfc <USBD_CDC_DataOut+0x24>)
 8006be2:	f8d4 22bc 	ldr.w	r2, [r4, #700]	@ 0x2bc
 8006be6:	f8c3 020c 	str.w	r0, [r3, #524]	@ 0x20c
 8006bea:	68d4      	ldr	r4, [r2, #12]
 8006bec:	f8d3 1204 	ldr.w	r1, [r3, #516]	@ 0x204
 8006bf0:	f503 7203 	add.w	r2, r3, #524	@ 0x20c
 8006bf4:	2000      	movs	r0, #0
 8006bf6:	47a0      	blx	r4
 8006bf8:	2000      	movs	r0, #0
 8006bfa:	bd10      	pop	{r4, pc}
 8006bfc:	200050ac 	.word	0x200050ac

08006c00 <USBD_CDC_DataIn>:
 8006c00:	b5f8      	push	{r3, r4, r5, r6, r7, lr}
 8006c02:	2514      	movs	r5, #20
 8006c04:	fb05 0501 	mla	r5, r5, r1, r0
 8006c08:	f8d0 6310 	ldr.w	r6, [r0, #784]	@ 0x310
 8006c0c:	69aa      	ldr	r2, [r5, #24]
 8006c0e:	4604      	mov	r4, r0
 8006c10:	460b      	mov	r3, r1
 8006c12:	b172      	cbz	r2, 8006c32 <USBD_CDC_DataIn+0x32>
 8006c14:	2724      	movs	r7, #36	@ 0x24
 8006c16:	fb07 6601 	mla	r6, r7, r1, r6
 8006c1a:	6cb6      	ldr	r6, [r6, #72]	@ 0x48
 8006c1c:	fbb2 f7f6 	udiv	r7, r2, r6
 8006c20:	fb06 2217 	mls	r2, r6, r7, r2
 8006c24:	b92a      	cbnz	r2, 8006c32 <USBD_CDC_DataIn+0x32>
 8006c26:	61aa      	str	r2, [r5, #24]
 8006c28:	4613      	mov	r3, r2
 8006c2a:	f000 fd13 	bl	8007654 <USBD_LL_Transmit>
 8006c2e:	2000      	movs	r0, #0
 8006c30:	bdf8      	pop	{r3, r4, r5, r6, r7, pc}
 8006c32:	f8d4 22bc 	ldr.w	r2, [r4, #700]	@ 0x2bc
 8006c36:	4906      	ldr	r1, [pc, #24]	@ (8006c50 <USBD_CDC_DataIn+0x50>)
 8006c38:	6914      	ldr	r4, [r2, #16]
 8006c3a:	2000      	movs	r0, #0
 8006c3c:	f8c1 0214 	str.w	r0, [r1, #532]	@ 0x214
 8006c40:	2c00      	cmp	r4, #0
 8006c42:	d0f4      	beq.n	8006c2e <USBD_CDC_DataIn+0x2e>
 8006c44:	f501 7204 	add.w	r2, r1, #528	@ 0x210
 8006c48:	f8d1 1208 	ldr.w	r1, [r1, #520]	@ 0x208
 8006c4c:	47a0      	blx	r4
 8006c4e:	e7ee      	b.n	8006c2e <USBD_CDC_DataIn+0x2e>
 8006c50:	200050ac 	.word	0x200050ac

08006c54 <USBD_CDC_Setup>:
 8006c54:	b5f7      	push	{r0, r1, r2, r4, r5, r6, r7, lr}
 8006c56:	780a      	ldrb	r2, [r1, #0]
 8006c58:	2600      	movs	r6, #0
 8006c5a:	f012 0360 	ands.w	r3, r2, #96	@ 0x60
 8006c5e:	4604      	mov	r4, r0
 8006c60:	460d      	mov	r5, r1
 8006c62:	f88d 6005 	strb.w	r6, [sp, #5]
 8006c66:	f8ad 6006 	strh.w	r6, [sp, #6]
 8006c6a:	d028      	beq.n	8006cbe <USBD_CDC_Setup+0x6a>
 8006c6c:	2b20      	cmp	r3, #32
 8006c6e:	d159      	bne.n	8006d24 <USBD_CDC_Setup+0xd0>
 8006c70:	88cb      	ldrh	r3, [r1, #6]
 8006c72:	7849      	ldrb	r1, [r1, #1]
 8006c74:	b1e3      	cbz	r3, 8006cb0 <USBD_CDC_Setup+0x5c>
 8006c76:	0612      	lsls	r2, r2, #24
 8006c78:	d50e      	bpl.n	8006c98 <USBD_CDC_Setup+0x44>
 8006c7a:	f8d0 22bc 	ldr.w	r2, [r0, #700]	@ 0x2bc
 8006c7e:	4630      	mov	r0, r6
 8006c80:	6897      	ldr	r7, [r2, #8]
 8006c82:	4a2b      	ldr	r2, [pc, #172]	@ (8006d30 <USBD_CDC_Setup+0xdc>)
 8006c84:	47b8      	blx	r7
 8006c86:	88ea      	ldrh	r2, [r5, #6]
 8006c88:	4929      	ldr	r1, [pc, #164]	@ (8006d30 <USBD_CDC_Setup+0xdc>)
 8006c8a:	2a07      	cmp	r2, #7
 8006c8c:	bf28      	it	cs
 8006c8e:	2207      	movcs	r2, #7
 8006c90:	4620      	mov	r0, r4
 8006c92:	f001 f929 	bl	8007ee8 <USBD_CtlSendData>
 8006c96:	e008      	b.n	8006caa <USBD_CDC_Setup+0x56>
 8006c98:	4c25      	ldr	r4, [pc, #148]	@ (8006d30 <USBD_CDC_Setup+0xdc>)
 8006c9a:	461a      	mov	r2, r3
 8006c9c:	f884 1200 	strb.w	r1, [r4, #512]	@ 0x200
 8006ca0:	4621      	mov	r1, r4
 8006ca2:	f884 3201 	strb.w	r3, [r4, #513]	@ 0x201
 8006ca6:	f001 f934 	bl	8007f12 <USBD_CtlPrepareRx>
 8006caa:	2000      	movs	r0, #0
 8006cac:	b003      	add	sp, #12
 8006cae:	bdf0      	pop	{r4, r5, r6, r7, pc}
 8006cb0:	f8d0 22bc 	ldr.w	r2, [r0, #700]	@ 0x2bc
 8006cb4:	4618      	mov	r0, r3
 8006cb6:	6894      	ldr	r4, [r2, #8]
 8006cb8:	462a      	mov	r2, r5
 8006cba:	47a0      	blx	r4
 8006cbc:	e7f5      	b.n	8006caa <USBD_CDC_Setup+0x56>
 8006cbe:	784b      	ldrb	r3, [r1, #1]
 8006cc0:	2b0b      	cmp	r3, #11
 8006cc2:	d82f      	bhi.n	8006d24 <USBD_CDC_Setup+0xd0>
 8006cc4:	a201      	add	r2, pc, #4	@ (adr r2, 8006ccc <USBD_CDC_Setup+0x78>)
 8006cc6:	f852 f023 	ldr.w	pc, [r2, r3, lsl #2]
 8006cca:	bf00      	nop
 8006ccc:	08006cfd 	.word	0x08006cfd
 8006cd0:	08006cab 	.word	0x08006cab
 8006cd4:	08006d25 	.word	0x08006d25
 8006cd8:	08006d25 	.word	0x08006d25
 8006cdc:	08006d25 	.word	0x08006d25
 8006ce0:	08006d25 	.word	0x08006d25
 8006ce4:	08006d25 	.word	0x08006d25
 8006ce8:	08006d25 	.word	0x08006d25
 8006cec:	08006d25 	.word	0x08006d25
 8006cf0:	08006d25 	.word	0x08006d25
 8006cf4:	08006d0d 	.word	0x08006d0d
 8006cf8:	08006d1d 	.word	0x08006d1d
 8006cfc:	f890 329c 	ldrb.w	r3, [r0, #668]	@ 0x29c
 8006d00:	2b03      	cmp	r3, #3
 8006d02:	d10f      	bne.n	8006d24 <USBD_CDC_Setup+0xd0>
 8006d04:	2202      	movs	r2, #2
 8006d06:	f10d 0106 	add.w	r1, sp, #6
 8006d0a:	e7c1      	b.n	8006c90 <USBD_CDC_Setup+0x3c>
 8006d0c:	f890 329c 	ldrb.w	r3, [r0, #668]	@ 0x29c
 8006d10:	2b03      	cmp	r3, #3
 8006d12:	d107      	bne.n	8006d24 <USBD_CDC_Setup+0xd0>
 8006d14:	2201      	movs	r2, #1
 8006d16:	f10d 0105 	add.w	r1, sp, #5
 8006d1a:	e7b9      	b.n	8006c90 <USBD_CDC_Setup+0x3c>
 8006d1c:	f890 329c 	ldrb.w	r3, [r0, #668]	@ 0x29c
 8006d20:	2b03      	cmp	r3, #3
 8006d22:	d0c2      	beq.n	8006caa <USBD_CDC_Setup+0x56>
 8006d24:	4620      	mov	r0, r4
 8006d26:	4629      	mov	r1, r5
 8006d28:	f001 f83f 	bl	8007daa <USBD_CtlError>
 8006d2c:	2003      	movs	r0, #3
 8006d2e:	e7bd      	b.n	8006cac <USBD_CDC_Setup+0x58>
 8006d30:	200050ac 	.word	0x200050ac

08006d34 <USBD_CDC_DeInit>:
 8006d34:	b5f8      	push	{r3, r4, r5, r6, r7, lr}
 8006d36:	4d15      	ldr	r5, [pc, #84]	@ (8006d8c <USBD_CDC_DeInit+0x58>)
 8006d38:	4f15      	ldr	r7, [pc, #84]	@ (8006d90 <USBD_CDC_DeInit+0x5c>)
 8006d3a:	7829      	ldrb	r1, [r5, #0]
 8006d3c:	4604      	mov	r4, r0
 8006d3e:	f000 fc65 	bl	800760c <USBD_LL_CloseEP>
 8006d42:	782b      	ldrb	r3, [r5, #0]
 8006d44:	7839      	ldrb	r1, [r7, #0]
 8006d46:	2614      	movs	r6, #20
 8006d48:	f003 030f 	and.w	r3, r3, #15
 8006d4c:	fb06 4303 	mla	r3, r6, r3, r4
 8006d50:	2500      	movs	r5, #0
 8006d52:	849d      	strh	r5, [r3, #36]	@ 0x24
 8006d54:	4620      	mov	r0, r4
 8006d56:	f000 fc59 	bl	800760c <USBD_LL_CloseEP>
 8006d5a:	783b      	ldrb	r3, [r7, #0]
 8006d5c:	4f0d      	ldr	r7, [pc, #52]	@ (8006d94 <USBD_CDC_DeInit+0x60>)
 8006d5e:	f003 030f 	and.w	r3, r3, #15
 8006d62:	fb06 4303 	mla	r3, r6, r3, r4
 8006d66:	7839      	ldrb	r1, [r7, #0]
 8006d68:	f8a3 5164 	strh.w	r5, [r3, #356]	@ 0x164
 8006d6c:	4620      	mov	r0, r4
 8006d6e:	f000 fc4d 	bl	800760c <USBD_LL_CloseEP>
 8006d72:	783b      	ldrb	r3, [r7, #0]
 8006d74:	f003 030f 	and.w	r3, r3, #15
 8006d78:	fb06 4303 	mla	r3, r6, r3, r4
 8006d7c:	4628      	mov	r0, r5
 8006d7e:	625d      	str	r5, [r3, #36]	@ 0x24
 8006d80:	f8d4 32bc 	ldr.w	r3, [r4, #700]	@ 0x2bc
 8006d84:	685b      	ldr	r3, [r3, #4]
 8006d86:	4798      	blx	r3
 8006d88:	4628      	mov	r0, r5
 8006d8a:	bdf8      	pop	{r3, r4, r5, r6, r7, pc}
 8006d8c:	200052cd 	.word	0x200052cd
 8006d90:	200052cc 	.word	0x200052cc
 8006d94:	200052cb 	.word	0x200052cb

08006d98 <USBD_CDC_Init>:
 8006d98:	e92d 41f0 	stmdb	sp!, {r4, r5, r6, r7, r8, lr}
 8006d9c:	4f31      	ldr	r7, [pc, #196]	@ (8006e64 <USBD_CDC_Init+0xcc>)
 8006d9e:	7c03      	ldrb	r3, [r0, #16]
 8006da0:	7839      	ldrb	r1, [r7, #0]
 8006da2:	4d31      	ldr	r5, [pc, #196]	@ (8006e68 <USBD_CDC_Init+0xd0>)
 8006da4:	4e31      	ldr	r6, [pc, #196]	@ (8006e6c <USBD_CDC_Init+0xd4>)
 8006da6:	4604      	mov	r4, r0
 8006da8:	2b00      	cmp	r3, #0
 8006daa:	d149      	bne.n	8006e40 <USBD_CDC_Init+0xa8>
 8006dac:	f44f 7300 	mov.w	r3, #512	@ 0x200
 8006db0:	2202      	movs	r2, #2
 8006db2:	f000 fc1f 	bl	80075f4 <USBD_LL_OpenEP>
 8006db6:	783b      	ldrb	r3, [r7, #0]
 8006db8:	2714      	movs	r7, #20
 8006dba:	f003 030f 	and.w	r3, r3, #15
 8006dbe:	fb07 4303 	mla	r3, r7, r3, r4
 8006dc2:	f04f 0801 	mov.w	r8, #1
 8006dc6:	f8a3 8024 	strh.w	r8, [r3, #36]	@ 0x24
 8006dca:	f44f 7300 	mov.w	r3, #512	@ 0x200
 8006dce:	7829      	ldrb	r1, [r5, #0]
 8006dd0:	2202      	movs	r2, #2
 8006dd2:	4620      	mov	r0, r4
 8006dd4:	f000 fc0e 	bl	80075f4 <USBD_LL_OpenEP>
 8006dd8:	782b      	ldrb	r3, [r5, #0]
 8006dda:	f003 030f 	and.w	r3, r3, #15
 8006dde:	fb07 4303 	mla	r3, r7, r3, r4
 8006de2:	2210      	movs	r2, #16
 8006de4:	f8a3 8164 	strh.w	r8, [r3, #356]	@ 0x164
 8006de8:	7833      	ldrb	r3, [r6, #0]
 8006dea:	f003 030f 	and.w	r3, r3, #15
 8006dee:	fb07 4303 	mla	r3, r7, r3, r4
 8006df2:	4620      	mov	r0, r4
 8006df4:	84da      	strh	r2, [r3, #38]	@ 0x26
 8006df6:	7831      	ldrb	r1, [r6, #0]
 8006df8:	2308      	movs	r3, #8
 8006dfa:	2203      	movs	r2, #3
 8006dfc:	f000 fbfa 	bl	80075f4 <USBD_LL_OpenEP>
 8006e00:	7833      	ldrb	r3, [r6, #0]
 8006e02:	2214      	movs	r2, #20
 8006e04:	f003 030f 	and.w	r3, r3, #15
 8006e08:	fb02 4303 	mla	r3, r2, r3, r4
 8006e0c:	2201      	movs	r2, #1
 8006e0e:	849a      	strh	r2, [r3, #36]	@ 0x24
 8006e10:	f8d4 32bc 	ldr.w	r3, [r4, #700]	@ 0x2bc
 8006e14:	2000      	movs	r0, #0
 8006e16:	681b      	ldr	r3, [r3, #0]
 8006e18:	4798      	blx	r3
 8006e1a:	4a15      	ldr	r2, [pc, #84]	@ (8006e70 <USBD_CDC_Init+0xd8>)
 8006e1c:	2300      	movs	r3, #0
 8006e1e:	f8c2 3214 	str.w	r3, [r2, #532]	@ 0x214
 8006e22:	f8c2 3218 	str.w	r3, [r2, #536]	@ 0x218
 8006e26:	7c23      	ldrb	r3, [r4, #16]
 8006e28:	b9d3      	cbnz	r3, 8006e60 <USBD_CDC_Init+0xc8>
 8006e2a:	f44f 7300 	mov.w	r3, #512	@ 0x200
 8006e2e:	f8d2 2204 	ldr.w	r2, [r2, #516]	@ 0x204
 8006e32:	7829      	ldrb	r1, [r5, #0]
 8006e34:	4620      	mov	r0, r4
 8006e36:	f000 fc16 	bl	8007666 <USBD_LL_PrepareReceive>
 8006e3a:	2000      	movs	r0, #0
 8006e3c:	e8bd 81f0 	ldmia.w	sp!, {r4, r5, r6, r7, r8, pc}
 8006e40:	2340      	movs	r3, #64	@ 0x40
 8006e42:	2202      	movs	r2, #2
 8006e44:	f000 fbd6 	bl	80075f4 <USBD_LL_OpenEP>
 8006e48:	783b      	ldrb	r3, [r7, #0]
 8006e4a:	2714      	movs	r7, #20
 8006e4c:	f003 030f 	and.w	r3, r3, #15
 8006e50:	fb07 4303 	mla	r3, r7, r3, r4
 8006e54:	f04f 0801 	mov.w	r8, #1
 8006e58:	f8a3 8024 	strh.w	r8, [r3, #36]	@ 0x24
 8006e5c:	2340      	movs	r3, #64	@ 0x40
 8006e5e:	e7b6      	b.n	8006dce <USBD_CDC_Init+0x36>
 8006e60:	2340      	movs	r3, #64	@ 0x40
 8006e62:	e7e4      	b.n	8006e2e <USBD_CDC_Init+0x96>
 8006e64:	200052cd 	.word	0x200052cd
 8006e68:	200052cc 	.word	0x200052cc
 8006e6c:	200052cb 	.word	0x200052cb
 8006e70:	200050ac 	.word	0x200050ac

08006e74 <USBD_CDC_GetOtherSpeedCfgDesc>:
 8006e74:	234b      	movs	r3, #75	@ 0x4b
 8006e76:	8003      	strh	r3, [r0, #0]
 8006e78:	4800      	ldr	r0, [pc, #0]	@ (8006e7c <USBD_CDC_GetOtherSpeedCfgDesc+0x8>)
 8006e7a:	4770      	bx	lr
 8006e7c:	2000023c 	.word	0x2000023c

08006e80 <USBD_CDC_ACM_RegisterInterface>:
 8006e80:	b119      	cbz	r1, 8006e8a <USBD_CDC_ACM_RegisterInterface+0xa>
 8006e82:	f8c0 12bc 	str.w	r1, [r0, #700]	@ 0x2bc
 8006e86:	2000      	movs	r0, #0
 8006e88:	4770      	bx	lr
 8006e8a:	2003      	movs	r0, #3
 8006e8c:	4770      	bx	lr
	...

08006e90 <USBD_CDC_SetTxBuffer>:
 8006e90:	b510      	push	{r4, lr}
 8006e92:	4905      	ldr	r1, [pc, #20]	@ (8006ea8 <USBD_CDC_SetTxBuffer+0x18>)
 8006e94:	f44f 7407 	mov.w	r4, #540	@ 0x21c
 8006e98:	fb04 1000 	mla	r0, r4, r0, r1
 8006e9c:	f8c0 2208 	str.w	r2, [r0, #520]	@ 0x208
 8006ea0:	f8c0 3210 	str.w	r3, [r0, #528]	@ 0x210
 8006ea4:	2000      	movs	r0, #0
 8006ea6:	bd10      	pop	{r4, pc}
 8006ea8:	200050ac 	.word	0x200050ac

08006eac <USBD_CDC_SetRxBuffer>:
 8006eac:	4b04      	ldr	r3, [pc, #16]	@ (8006ec0 <USBD_CDC_SetRxBuffer+0x14>)
 8006eae:	f44f 7107 	mov.w	r1, #540	@ 0x21c
 8006eb2:	fb01 3300 	mla	r3, r1, r0, r3
 8006eb6:	2000      	movs	r0, #0
 8006eb8:	f8c3 2204 	str.w	r2, [r3, #516]	@ 0x204
 8006ebc:	4770      	bx	lr
 8006ebe:	bf00      	nop
 8006ec0:	200050ac 	.word	0x200050ac

08006ec4 <USBD_CDC_TransmitPacket>:
 8006ec4:	4a0f      	ldr	r2, [pc, #60]	@ (8006f04 <USBD_CDC_TransmitPacket+0x40>)
 8006ec6:	b570      	push	{r4, r5, r6, lr}
 8006ec8:	f44f 7307 	mov.w	r3, #540	@ 0x21c
 8006ecc:	4604      	mov	r4, r0
 8006ece:	fb03 2204 	mla	r2, r3, r4, r2
 8006ed2:	4608      	mov	r0, r1
 8006ed4:	f8d2 5214 	ldr.w	r5, [r2, #532]	@ 0x214
 8006ed8:	2301      	movs	r3, #1
 8006eda:	b98d      	cbnz	r5, 8006f00 <USBD_CDC_TransmitPacket+0x3c>
 8006edc:	f8c2 3214 	str.w	r3, [r2, #532]	@ 0x214
 8006ee0:	4b09      	ldr	r3, [pc, #36]	@ (8006f08 <USBD_CDC_TransmitPacket+0x44>)
 8006ee2:	5d19      	ldrb	r1, [r3, r4]
 8006ee4:	f8d2 3210 	ldr.w	r3, [r2, #528]	@ 0x210
 8006ee8:	f8d2 2208 	ldr.w	r2, [r2, #520]	@ 0x208
 8006eec:	f001 040f 	and.w	r4, r1, #15
 8006ef0:	2614      	movs	r6, #20
 8006ef2:	fb06 0404 	mla	r4, r6, r4, r0
 8006ef6:	61a3      	str	r3, [r4, #24]
 8006ef8:	f000 fbac 	bl	8007654 <USBD_LL_Transmit>
 8006efc:	4628      	mov	r0, r5
 8006efe:	bd70      	pop	{r4, r5, r6, pc}
 8006f00:	4618      	mov	r0, r3
 8006f02:	e7fc      	b.n	8006efe <USBD_CDC_TransmitPacket+0x3a>
 8006f04:	200050ac 	.word	0x200050ac
 8006f08:	200052cd 	.word	0x200052cd

08006f0c <USBD_CDC_ReceivePacket>:
 8006f0c:	b510      	push	{r4, lr}
 8006f0e:	4603      	mov	r3, r0
 8006f10:	4a09      	ldr	r2, [pc, #36]	@ (8006f38 <USBD_CDC_ReceivePacket+0x2c>)
 8006f12:	4608      	mov	r0, r1
 8006f14:	5cd1      	ldrb	r1, [r2, r3]
 8006f16:	4a09      	ldr	r2, [pc, #36]	@ (8006f3c <USBD_CDC_ReceivePacket+0x30>)
 8006f18:	f44f 7407 	mov.w	r4, #540	@ 0x21c
 8006f1c:	fb04 2303 	mla	r3, r4, r3, r2
 8006f20:	f8d3 2204 	ldr.w	r2, [r3, #516]	@ 0x204
 8006f24:	7c03      	ldrb	r3, [r0, #16]
 8006f26:	b92b      	cbnz	r3, 8006f34 <USBD_CDC_ReceivePacket+0x28>
 8006f28:	f44f 7300 	mov.w	r3, #512	@ 0x200
 8006f2c:	f000 fb9b 	bl	8007666 <USBD_LL_PrepareReceive>
 8006f30:	2000      	movs	r0, #0
 8006f32:	bd10      	pop	{r4, pc}
 8006f34:	2340      	movs	r3, #64	@ 0x40
 8006f36:	e7f9      	b.n	8006f2c <USBD_CDC_ReceivePacket+0x20>
 8006f38:	200052cc 	.word	0x200052cc
 8006f3c:	200050ac 	.word	0x200050ac

08006f40 <USBD_Update_CDC_ACM_DESC>:
 8006f40:	b570      	push	{r4, r5, r6, lr}
 8006f42:	f89d 5010 	ldrb.w	r5, [sp, #16]
 8006f46:	f89d 6014 	ldrb.w	r6, [sp, #20]
 8006f4a:	f89d 4018 	ldrb.w	r4, [sp, #24]
 8006f4e:	f880 3046 	strb.w	r3, [r0, #70]	@ 0x46
 8006f52:	72c1      	strb	r1, [r0, #11]
 8006f54:	7644      	strb	r4, [r0, #25]
 8006f56:	74c1      	strb	r1, [r0, #19]
 8006f58:	f880 2023 	strb.w	r2, [r0, #35]	@ 0x23
 8006f5c:	f880 102b 	strb.w	r1, [r0, #43]	@ 0x2b
 8006f60:	f880 202c 	strb.w	r2, [r0, #44]	@ 0x2c
 8006f64:	f880 502f 	strb.w	r5, [r0, #47]	@ 0x2f
 8006f68:	f880 2036 	strb.w	r2, [r0, #54]	@ 0x36
 8006f6c:	f880 603f 	strb.w	r6, [r0, #63]	@ 0x3f
 8006f70:	4806      	ldr	r0, [pc, #24]	@ (8006f8c <USBD_Update_CDC_ACM_DESC+0x4c>)
 8006f72:	7003      	strb	r3, [r0, #0]
 8006f74:	4b06      	ldr	r3, [pc, #24]	@ (8006f90 <USBD_Update_CDC_ACM_DESC+0x50>)
 8006f76:	701e      	strb	r6, [r3, #0]
 8006f78:	4b06      	ldr	r3, [pc, #24]	@ (8006f94 <USBD_Update_CDC_ACM_DESC+0x54>)
 8006f7a:	701d      	strb	r5, [r3, #0]
 8006f7c:	4b06      	ldr	r3, [pc, #24]	@ (8006f98 <USBD_Update_CDC_ACM_DESC+0x58>)
 8006f7e:	7019      	strb	r1, [r3, #0]
 8006f80:	4b06      	ldr	r3, [pc, #24]	@ (8006f9c <USBD_Update_CDC_ACM_DESC+0x5c>)
 8006f82:	701a      	strb	r2, [r3, #0]
 8006f84:	4b06      	ldr	r3, [pc, #24]	@ (8006fa0 <USBD_Update_CDC_ACM_DESC+0x60>)
 8006f86:	701c      	strb	r4, [r3, #0]
 8006f88:	bd70      	pop	{r4, r5, r6, pc}
 8006f8a:	bf00      	nop
 8006f8c:	200052cd 	.word	0x200052cd
 8006f90:	200052cc 	.word	0x200052cc
 8006f94:	200052cb 	.word	0x200052cb
 8006f98:	200052ca 	.word	0x200052ca
 8006f9c:	200052c9 	.word	0x200052c9
 8006fa0:	200052c8 	.word	0x200052c8

08006fa4 <CDC_DeInit>:
 8006fa4:	2000      	movs	r0, #0
 8006fa6:	4770      	bx	lr

08006fa8 <CDC_TransmitCplt>:
 8006fa8:	2000      	movs	r0, #0
 8006faa:	4770      	bx	lr

08006fac <CDC_Init>:
 8006fac:	b508      	push	{r3, lr}
 8006fae:	4a04      	ldr	r2, [pc, #16]	@ (8006fc0 <CDC_Init+0x14>)
 8006fb0:	4904      	ldr	r1, [pc, #16]	@ (8006fc4 <CDC_Init+0x18>)
 8006fb2:	eb02 12c0 	add.w	r2, r2, r0, lsl #7
 8006fb6:	f7ff ff79 	bl	8006eac <USBD_CDC_SetRxBuffer>
 8006fba:	2000      	movs	r0, #0
 8006fbc:	bd08      	pop	{r3, pc}
 8006fbe:	bf00      	nop
 8006fc0:	200052d8 	.word	0x200052d8
 8006fc4:	20009674 	.word	0x20009674

08006fc8 <CDC_Receive>:
 8006fc8:	e92d 41f0 	stmdb	sp!, {r4, r5, r6, r7, r8, lr}
 8006fcc:	4f14      	ldr	r7, [pc, #80]	@ (8007020 <CDC_Receive+0x58>)
 8006fce:	4e15      	ldr	r6, [pc, #84]	@ (8007024 <CDC_Receive+0x5c>)
 8006fd0:	6812      	ldr	r2, [r2, #0]
 8006fd2:	7833      	ldrb	r3, [r6, #0]
 8006fd4:	4b14      	ldr	r3, [pc, #80]	@ (8007028 <CDC_Receive+0x60>)
 8006fd6:	4604      	mov	r4, r0
 8006fd8:	7838      	ldrb	r0, [r7, #0]
 8006fda:	2a40      	cmp	r2, #64	@ 0x40
 8006fdc:	bf28      	it	cs
 8006fde:	2240      	movcs	r2, #64	@ 0x40
 8006fe0:	eb03 1080 	add.w	r0, r3, r0, lsl #6
 8006fe4:	460d      	mov	r5, r1
 8006fe6:	4690      	mov	r8, r2
 8006fe8:	f002 ff50 	bl	8009e8c <memcpy>
 8006fec:	783a      	ldrb	r2, [r7, #0]
 8006fee:	4b0f      	ldr	r3, [pc, #60]	@ (800702c <CDC_Receive+0x64>)
 8006ff0:	f823 8012 	strh.w	r8, [r3, r2, lsl #1]
 8006ff4:	783b      	ldrb	r3, [r7, #0]
 8006ff6:	3301      	adds	r3, #1
 8006ff8:	b2db      	uxtb	r3, r3
 8006ffa:	703b      	strb	r3, [r7, #0]
 8006ffc:	7833      	ldrb	r3, [r6, #0]
 8006ffe:	3301      	adds	r3, #1
 8007000:	b2db      	uxtb	r3, r3
 8007002:	7033      	strb	r3, [r6, #0]
 8007004:	4e0a      	ldr	r6, [pc, #40]	@ (8007030 <CDC_Receive+0x68>)
 8007006:	462a      	mov	r2, r5
 8007008:	4631      	mov	r1, r6
 800700a:	4620      	mov	r0, r4
 800700c:	f7ff ff4e 	bl	8006eac <USBD_CDC_SetRxBuffer>
 8007010:	4631      	mov	r1, r6
 8007012:	4620      	mov	r0, r4
 8007014:	f7ff ff7a 	bl	8006f0c <USBD_CDC_ReceivePacket>
 8007018:	2000      	movs	r0, #0
 800701a:	e8bd 81f0 	ldmia.w	sp!, {r4, r5, r6, r7, r8, pc}
 800701e:	bf00      	nop
 8007020:	2000535b 	.word	0x2000535b
 8007024:	20005359 	.word	0x20005359
 8007028:	2000555c 	.word	0x2000555c
 800702c:	2000535c 	.word	0x2000535c
 8007030:	20009674 	.word	0x20009674

08007034 <CDC_Control>:
 8007034:	2920      	cmp	r1, #32
 8007036:	b510      	push	{r4, lr}
 8007038:	d003      	beq.n	8007042 <CDC_Control+0xe>
 800703a:	2921      	cmp	r1, #33	@ 0x21
 800703c:	d013      	beq.n	8007066 <CDC_Control+0x32>
 800703e:	2000      	movs	r0, #0
 8007040:	bd10      	pop	{r4, pc}
 8007042:	4b15      	ldr	r3, [pc, #84]	@ (8007098 <CDC_Control+0x64>)
 8007044:	6811      	ldr	r1, [r2, #0]
 8007046:	f843 1030 	str.w	r1, [r3, r0, lsl #3]
 800704a:	eb03 03c0 	add.w	r3, r3, r0, lsl #3
 800704e:	7914      	ldrb	r4, [r2, #4]
 8007050:	711c      	strb	r4, [r3, #4]
 8007052:	7954      	ldrb	r4, [r2, #5]
 8007054:	715c      	strb	r4, [r3, #5]
 8007056:	7992      	ldrb	r2, [r2, #6]
 8007058:	719a      	strb	r2, [r3, #6]
 800705a:	2800      	cmp	r0, #0
 800705c:	d1ef      	bne.n	800703e <CDC_Control+0xa>
 800705e:	480f      	ldr	r0, [pc, #60]	@ (800709c <CDC_Control+0x68>)
 8007060:	f7fa f9fc 	bl	800145c <UpDateUart>
 8007064:	e7eb      	b.n	800703e <CDC_Control+0xa>
 8007066:	4b0c      	ldr	r3, [pc, #48]	@ (8007098 <CDC_Control+0x64>)
 8007068:	f853 1030 	ldr.w	r1, [r3, r0, lsl #3]
 800706c:	7011      	strb	r1, [r2, #0]
 800706e:	f853 1030 	ldr.w	r1, [r3, r0, lsl #3]
 8007072:	0a09      	lsrs	r1, r1, #8
 8007074:	7051      	strb	r1, [r2, #1]
 8007076:	f853 1030 	ldr.w	r1, [r3, r0, lsl #3]
 800707a:	0c09      	lsrs	r1, r1, #16
 800707c:	7091      	strb	r1, [r2, #2]
 800707e:	f853 1030 	ldr.w	r1, [r3, r0, lsl #3]
 8007082:	eb03 03c0 	add.w	r3, r3, r0, lsl #3
 8007086:	0e09      	lsrs	r1, r1, #24
 8007088:	70d1      	strb	r1, [r2, #3]
 800708a:	7919      	ldrb	r1, [r3, #4]
 800708c:	7111      	strb	r1, [r2, #4]
 800708e:	7959      	ldrb	r1, [r3, #5]
 8007090:	7151      	strb	r1, [r2, #5]
 8007092:	799b      	ldrb	r3, [r3, #6]
 8007094:	7193      	strb	r3, [r2, #6]
 8007096:	e7d2      	b.n	800703e <CDC_Control+0xa>
 8007098:	200052d0 	.word	0x200052d0
 800709c:	20000a64 	.word	0x20000a64

080070a0 <CDC_Transmit>:
 80070a0:	b538      	push	{r3, r4, r5, lr}
 80070a2:	4613      	mov	r3, r2
 80070a4:	4a0a      	ldr	r2, [pc, #40]	@ (80070d0 <CDC_Transmit+0x30>)
 80070a6:	f44f 7507 	mov.w	r5, #540	@ 0x21c
 80070aa:	fb05 2200 	mla	r2, r5, r0, r2
 80070ae:	4604      	mov	r4, r0
 80070b0:	f8d2 2214 	ldr.w	r2, [r2, #532]	@ 0x214
 80070b4:	b94a      	cbnz	r2, 80070ca <CDC_Transmit+0x2a>
 80070b6:	460a      	mov	r2, r1
 80070b8:	4906      	ldr	r1, [pc, #24]	@ (80070d4 <CDC_Transmit+0x34>)
 80070ba:	f7ff fee9 	bl	8006e90 <USBD_CDC_SetTxBuffer>
 80070be:	4620      	mov	r0, r4
 80070c0:	4904      	ldr	r1, [pc, #16]	@ (80070d4 <CDC_Transmit+0x34>)
 80070c2:	e8bd 4038 	ldmia.w	sp!, {r3, r4, r5, lr}
 80070c6:	f7ff befd 	b.w	8006ec4 <USBD_CDC_TransmitPacket>
 80070ca:	2001      	movs	r0, #1
 80070cc:	bd38      	pop	{r3, r4, r5, pc}
 80070ce:	bf00      	nop
 80070d0:	200050ac 	.word	0x200050ac
 80070d4:	20009674 	.word	0x20009674

080070d8 <USBD_COMPOSITE_Init>:
 80070d8:	b538      	push	{r3, r4, r5, lr}
 80070da:	4b06      	ldr	r3, [pc, #24]	@ (80070f4 <USBD_COMPOSITE_Init+0x1c>)
 80070dc:	681b      	ldr	r3, [r3, #0]
 80070de:	4604      	mov	r4, r0
 80070e0:	460d      	mov	r5, r1
 80070e2:	4798      	blx	r3
 80070e4:	4b04      	ldr	r3, [pc, #16]	@ (80070f8 <USBD_COMPOSITE_Init+0x20>)
 80070e6:	4629      	mov	r1, r5
 80070e8:	681b      	ldr	r3, [r3, #0]
 80070ea:	4620      	mov	r0, r4
 80070ec:	4798      	blx	r3
 80070ee:	2000      	movs	r0, #0
 80070f0:	bd38      	pop	{r3, r4, r5, pc}
 80070f2:	bf00      	nop
 80070f4:	200002d4 	.word	0x200002d4
 80070f8:	20000464 	.word	0x20000464

080070fc <USBD_COMPOSITE_DeInit>:
 80070fc:	b538      	push	{r3, r4, r5, lr}
 80070fe:	4b06      	ldr	r3, [pc, #24]	@ (8007118 <USBD_COMPOSITE_DeInit+0x1c>)
 8007100:	685b      	ldr	r3, [r3, #4]
 8007102:	4604      	mov	r4, r0
 8007104:	460d      	mov	r5, r1
 8007106:	4798      	blx	r3
 8007108:	4b04      	ldr	r3, [pc, #16]	@ (800711c <USBD_COMPOSITE_DeInit+0x20>)
 800710a:	4629      	mov	r1, r5
 800710c:	685b      	ldr	r3, [r3, #4]
 800710e:	4620      	mov	r0, r4
 8007110:	4798      	blx	r3
 8007112:	2000      	movs	r0, #0
 8007114:	bd38      	pop	{r3, r4, r5, pc}
 8007116:	bf00      	nop
 8007118:	200002d4 	.word	0x200002d4
 800711c:	20000464 	.word	0x20000464

08007120 <USBD_COMPOSITE_EP0_RxReady>:
 8007120:	4b05      	ldr	r3, [pc, #20]	@ (8007138 <USBD_COMPOSITE_EP0_RxReady+0x18>)
 8007122:	b510      	push	{r4, lr}
 8007124:	691b      	ldr	r3, [r3, #16]
 8007126:	4604      	mov	r4, r0
 8007128:	4798      	blx	r3
 800712a:	4b04      	ldr	r3, [pc, #16]	@ (800713c <USBD_COMPOSITE_EP0_RxReady+0x1c>)
 800712c:	4620      	mov	r0, r4
 800712e:	691b      	ldr	r3, [r3, #16]
 8007130:	4798      	blx	r3
 8007132:	2000      	movs	r0, #0
 8007134:	bd10      	pop	{r4, pc}
 8007136:	bf00      	nop
 8007138:	200002d4 	.word	0x200002d4
 800713c:	20000464 	.word	0x20000464

08007140 <USBD_COMPOSITE_EP0_TxReady>:
 8007140:	2000      	movs	r0, #0
 8007142:	4770      	bx	lr

08007144 <USBD_COMPOSITE_IsoINIncomplete>:
 8007144:	2000      	movs	r0, #0
 8007146:	4770      	bx	lr

08007148 <USBD_COMPOSITE_GetHSCfgDesc>:
 8007148:	236b      	movs	r3, #107	@ 0x6b
 800714a:	8003      	strh	r3, [r0, #0]
 800714c:	4800      	ldr	r0, [pc, #0]	@ (8007150 <USBD_COMPOSITE_GetHSCfgDesc+0x8>)
 800714e:	4770      	bx	lr
 8007150:	2000959c 	.word	0x2000959c

08007154 <USBD_COMPOSITE_GetFSCfgDesc>:
 8007154:	236b      	movs	r3, #107	@ 0x6b
 8007156:	8003      	strh	r3, [r0, #0]
 8007158:	4800      	ldr	r0, [pc, #0]	@ (800715c <USBD_COMPOSITE_GetFSCfgDesc+0x8>)
 800715a:	4770      	bx	lr
 800715c:	20009607 	.word	0x20009607

08007160 <USBD_COMPOSITE_GetDeviceQualifierDesc>:
 8007160:	230a      	movs	r3, #10
 8007162:	8003      	strh	r3, [r0, #0]
 8007164:	4800      	ldr	r0, [pc, #0]	@ (8007168 <USBD_COMPOSITE_GetDeviceQualifierDesc+0x8>)
 8007166:	4770      	bx	lr
 8007168:	20000330 	.word	0x20000330

0800716c <USBD_COMPOSITE_GetUsrStringDesc>:
 800716c:	b530      	push	{r4, r5, lr}
 800716e:	4b14      	ldr	r3, [pc, #80]	@ (80071c0 <USBD_COMPOSITE_GetUsrStringDesc+0x54>)
 8007170:	781b      	ldrb	r3, [r3, #0]
 8007172:	428b      	cmp	r3, r1
 8007174:	b085      	sub	sp, #20
 8007176:	460c      	mov	r4, r1
 8007178:	4615      	mov	r5, r2
 800717a:	d31f      	bcc.n	80071bc <USBD_COMPOSITE_GetUsrStringDesc+0x50>
 800717c:	2210      	movs	r2, #16
 800717e:	2100      	movs	r1, #0
 8007180:	4668      	mov	r0, sp
 8007182:	f002 fe4f 	bl	8009e24 <memset>
 8007186:	4b0f      	ldr	r3, [pc, #60]	@ (80071c4 <USBD_COMPOSITE_GetUsrStringDesc+0x58>)
 8007188:	781b      	ldrb	r3, [r3, #0]
 800718a:	42a3      	cmp	r3, r4
 800718c:	d10a      	bne.n	80071a4 <USBD_COMPOSITE_GetUsrStringDesc+0x38>
 800718e:	4a0e      	ldr	r2, [pc, #56]	@ (80071c8 <USBD_COMPOSITE_GetUsrStringDesc+0x5c>)
 8007190:	2110      	movs	r1, #16
 8007192:	2300      	movs	r3, #0
 8007194:	4668      	mov	r0, sp
 8007196:	f002 fded 	bl	8009d74 <sniprintf>
 800719a:	490c      	ldr	r1, [pc, #48]	@ (80071cc <USBD_COMPOSITE_GetUsrStringDesc+0x60>)
 800719c:	462a      	mov	r2, r5
 800719e:	4668      	mov	r0, sp
 80071a0:	f000 fe0e 	bl	8007dc0 <USBD_GetString>
 80071a4:	4b0a      	ldr	r3, [pc, #40]	@ (80071d0 <USBD_COMPOSITE_GetUsrStringDesc+0x64>)
 80071a6:	781b      	ldrb	r3, [r3, #0]
 80071a8:	42a3      	cmp	r3, r4
 80071aa:	d104      	bne.n	80071b6 <USBD_COMPOSITE_GetUsrStringDesc+0x4a>
 80071ac:	4907      	ldr	r1, [pc, #28]	@ (80071cc <USBD_COMPOSITE_GetUsrStringDesc+0x60>)
 80071ae:	4809      	ldr	r0, [pc, #36]	@ (80071d4 <USBD_COMPOSITE_GetUsrStringDesc+0x68>)
 80071b0:	462a      	mov	r2, r5
 80071b2:	f000 fe05 	bl	8007dc0 <USBD_GetString>
 80071b6:	4805      	ldr	r0, [pc, #20]	@ (80071cc <USBD_COMPOSITE_GetUsrStringDesc+0x60>)
 80071b8:	b005      	add	sp, #20
 80071ba:	bd30      	pop	{r4, r5, pc}
 80071bc:	2000      	movs	r0, #0
 80071be:	e7fb      	b.n	80071b8 <USBD_COMPOSITE_GetUsrStringDesc+0x4c>
 80071c0:	2000033a 	.word	0x2000033a
 80071c4:	200052c8 	.word	0x200052c8
 80071c8:	0800abfc 	.word	0x0800abfc
 80071cc:	2000955c 	.word	0x2000955c
 80071d0:	20009bb0 	.word	0x20009bb0
 80071d4:	0800ac0c 	.word	0x0800ac0c

080071d8 <USBD_COMPOSITE_Setup>:
 80071d8:	b430      	push	{r4, r5}
 80071da:	4d0e      	ldr	r5, [pc, #56]	@ (8007214 <USBD_COMPOSITE_Setup+0x3c>)
 80071dc:	790a      	ldrb	r2, [r1, #4]
 80071de:	782d      	ldrb	r5, [r5, #0]
 80071e0:	4295      	cmp	r5, r2
 80071e2:	4604      	mov	r4, r0
 80071e4:	460b      	mov	r3, r1
 80071e6:	d003      	beq.n	80071f0 <USBD_COMPOSITE_Setup+0x18>
 80071e8:	4d0b      	ldr	r5, [pc, #44]	@ (8007218 <USBD_COMPOSITE_Setup+0x40>)
 80071ea:	782d      	ldrb	r5, [r5, #0]
 80071ec:	4295      	cmp	r5, r2
 80071ee:	d105      	bne.n	80071fc <USBD_COMPOSITE_Setup+0x24>
 80071f0:	4a0a      	ldr	r2, [pc, #40]	@ (800721c <USBD_COMPOSITE_Setup+0x44>)
 80071f2:	4620      	mov	r0, r4
 80071f4:	6892      	ldr	r2, [r2, #8]
 80071f6:	bc30      	pop	{r4, r5}
 80071f8:	4619      	mov	r1, r3
 80071fa:	4710      	bx	r2
 80071fc:	4b08      	ldr	r3, [pc, #32]	@ (8007220 <USBD_COMPOSITE_Setup+0x48>)
 80071fe:	781b      	ldrb	r3, [r3, #0]
 8007200:	4293      	cmp	r3, r2
 8007202:	d103      	bne.n	800720c <USBD_COMPOSITE_Setup+0x34>
 8007204:	4b07      	ldr	r3, [pc, #28]	@ (8007224 <USBD_COMPOSITE_Setup+0x4c>)
 8007206:	bc30      	pop	{r4, r5}
 8007208:	689b      	ldr	r3, [r3, #8]
 800720a:	4718      	bx	r3
 800720c:	2003      	movs	r0, #3
 800720e:	bc30      	pop	{r4, r5}
 8007210:	4770      	bx	lr
 8007212:	bf00      	nop
 8007214:	200052ca 	.word	0x200052ca
 8007218:	200052c9 	.word	0x200052c9
 800721c:	200002d4 	.word	0x200002d4
 8007220:	20009bb1 	.word	0x20009bb1
 8007224:	20000464 	.word	0x20000464

08007228 <USBD_COMPOSITE_DataIn>:
 8007228:	b410      	push	{r4}
 800722a:	4c11      	ldr	r4, [pc, #68]	@ (8007270 <USBD_COMPOSITE_DataIn+0x48>)
 800722c:	7824      	ldrb	r4, [r4, #0]
 800722e:	f004 047f 	and.w	r4, r4, #127	@ 0x7f
 8007232:	42a1      	cmp	r1, r4
 8007234:	4602      	mov	r2, r0
 8007236:	460b      	mov	r3, r1
 8007238:	d005      	beq.n	8007246 <USBD_COMPOSITE_DataIn+0x1e>
 800723a:	4c0e      	ldr	r4, [pc, #56]	@ (8007274 <USBD_COMPOSITE_DataIn+0x4c>)
 800723c:	7824      	ldrb	r4, [r4, #0]
 800723e:	f004 047f 	and.w	r4, r4, #127	@ 0x7f
 8007242:	42a1      	cmp	r1, r4
 8007244:	d107      	bne.n	8007256 <USBD_COMPOSITE_DataIn+0x2e>
 8007246:	490c      	ldr	r1, [pc, #48]	@ (8007278 <USBD_COMPOSITE_DataIn+0x50>)
 8007248:	694c      	ldr	r4, [r1, #20]
 800724a:	4610      	mov	r0, r2
 800724c:	4619      	mov	r1, r3
 800724e:	4623      	mov	r3, r4
 8007250:	f85d 4b04 	ldr.w	r4, [sp], #4
 8007254:	4718      	bx	r3
 8007256:	4a09      	ldr	r2, [pc, #36]	@ (800727c <USBD_COMPOSITE_DataIn+0x54>)
 8007258:	7812      	ldrb	r2, [r2, #0]
 800725a:	f002 027f 	and.w	r2, r2, #127	@ 0x7f
 800725e:	4291      	cmp	r1, r2
 8007260:	d102      	bne.n	8007268 <USBD_COMPOSITE_DataIn+0x40>
 8007262:	4b07      	ldr	r3, [pc, #28]	@ (8007280 <USBD_COMPOSITE_DataIn+0x58>)
 8007264:	695b      	ldr	r3, [r3, #20]
 8007266:	e7f3      	b.n	8007250 <USBD_COMPOSITE_DataIn+0x28>
 8007268:	2003      	movs	r0, #3
 800726a:	f85d 4b04 	ldr.w	r4, [sp], #4
 800726e:	4770      	bx	lr
 8007270:	200052cd 	.word	0x200052cd
 8007274:	200052cb 	.word	0x200052cb
 8007278:	200002d4 	.word	0x200002d4
 800727c:	200004a1 	.word	0x200004a1
 8007280:	20000464 	.word	0x20000464

08007284 <USBD_COMPOSITE_DataOut>:
 8007284:	4a07      	ldr	r2, [pc, #28]	@ (80072a4 <USBD_COMPOSITE_DataOut+0x20>)
 8007286:	7812      	ldrb	r2, [r2, #0]
 8007288:	428a      	cmp	r2, r1
 800728a:	d102      	bne.n	8007292 <USBD_COMPOSITE_DataOut+0xe>
 800728c:	4b06      	ldr	r3, [pc, #24]	@ (80072a8 <USBD_COMPOSITE_DataOut+0x24>)
 800728e:	699b      	ldr	r3, [r3, #24]
 8007290:	4718      	bx	r3
 8007292:	4a06      	ldr	r2, [pc, #24]	@ (80072ac <USBD_COMPOSITE_DataOut+0x28>)
 8007294:	7812      	ldrb	r2, [r2, #0]
 8007296:	428a      	cmp	r2, r1
 8007298:	d101      	bne.n	800729e <USBD_COMPOSITE_DataOut+0x1a>
 800729a:	4b05      	ldr	r3, [pc, #20]	@ (80072b0 <USBD_COMPOSITE_DataOut+0x2c>)
 800729c:	e7f7      	b.n	800728e <USBD_COMPOSITE_DataOut+0xa>
 800729e:	2003      	movs	r0, #3
 80072a0:	4770      	bx	lr
 80072a2:	bf00      	nop
 80072a4:	200052cc 	.word	0x200052cc
 80072a8:	200002d4 	.word	0x200002d4
 80072ac:	200004a0 	.word	0x200004a0
 80072b0:	20000464 	.word	0x20000464

080072b4 <USBD_COMPOSITE_IsoOutIncomplete>:
 80072b4:	2000      	movs	r0, #0
 80072b6:	4770      	bx	lr

080072b8 <USBD_COMPOSITE_SOF>:
 80072b8:	2000      	movs	r0, #0
 80072ba:	4770      	bx	lr

080072bc <USBD_COMPOSITE_GetOtherSpeedCfgDesc>:
 80072bc:	236b      	movs	r3, #107	@ 0x6b
 80072be:	8003      	strh	r3, [r0, #0]
 80072c0:	4800      	ldr	r0, [pc, #0]	@ (80072c4 <USBD_COMPOSITE_GetOtherSpeedCfgDesc+0x8>)
 80072c2:	4770      	bx	lr
 80072c4:	2000959c 	.word	0x2000959c

080072c8 <USBD_COMPOSITE_Mount_Class>:
 80072c8:	e92d 4ff0 	stmdb	sp!, {r4, r5, r6, r7, r8, r9, sl, fp, lr}
 80072cc:	f8df 8134 	ldr.w	r8, [pc, #308]	@ 8007404 <USBD_COMPOSITE_Mount_Class+0x13c>
 80072d0:	4c48      	ldr	r4, [pc, #288]	@ (80073f4 <USBD_COMPOSITE_Mount_Class+0x12c>)
 80072d2:	f8d8 302c 	ldr.w	r3, [r8, #44]	@ 0x2c
 80072d6:	4f48      	ldr	r7, [pc, #288]	@ (80073f8 <USBD_COMPOSITE_Mount_Class+0x130>)
 80072d8:	f8df b12c 	ldr.w	fp, [pc, #300]	@ 8007408 <USBD_COMPOSITE_Mount_Class+0x140>
 80072dc:	b087      	sub	sp, #28
 80072de:	2500      	movs	r5, #0
 80072e0:	f8ad 5016 	strh.w	r5, [sp, #22]
 80072e4:	f10d 0016 	add.w	r0, sp, #22
 80072e8:	4798      	blx	r3
 80072ea:	7823      	ldrb	r3, [r4, #0]
 80072ec:	9300      	str	r3, [sp, #0]
 80072ee:	4629      	mov	r1, r5
 80072f0:	2301      	movs	r3, #1
 80072f2:	2281      	movs	r2, #129	@ 0x81
 80072f4:	4606      	mov	r6, r0
 80072f6:	f000 ffa1 	bl	800823c <USBD_Update_HID_Custom_DESC>
 80072fa:	f8bd 2016 	ldrh.w	r2, [sp, #22]
 80072fe:	f106 0109 	add.w	r1, r6, #9
 8007302:	3a09      	subs	r2, #9
 8007304:	4638      	mov	r0, r7
 8007306:	f002 fdc1 	bl	8009e8c <memcpy>
 800730a:	f8d8 3028 	ldr.w	r3, [r8, #40]	@ 0x28
 800730e:	f8df 80fc 	ldr.w	r8, [pc, #252]	@ 800740c <USBD_COMPOSITE_Mount_Class+0x144>
 8007312:	f10d 0016 	add.w	r0, sp, #22
 8007316:	4798      	blx	r3
 8007318:	7823      	ldrb	r3, [r4, #0]
 800731a:	9300      	str	r3, [sp, #0]
 800731c:	4629      	mov	r1, r5
 800731e:	2301      	movs	r3, #1
 8007320:	2281      	movs	r2, #129	@ 0x81
 8007322:	4606      	mov	r6, r0
 8007324:	f000 ff8a 	bl	800823c <USBD_Update_HID_Custom_DESC>
 8007328:	f8bd 2016 	ldrh.w	r2, [sp, #22]
 800732c:	f106 0109 	add.w	r1, r6, #9
 8007330:	3a09      	subs	r2, #9
 8007332:	4640      	mov	r0, r8
 8007334:	f002 fdaa 	bl	8009e8c <memcpy>
 8007338:	7823      	ldrb	r3, [r4, #0]
 800733a:	3301      	adds	r3, #1
 800733c:	7023      	strb	r3, [r4, #0]
 800733e:	f10d 0016 	add.w	r0, sp, #22
 8007342:	f8db 302c 	ldr.w	r3, [fp, #44]	@ 0x2c
 8007346:	4798      	blx	r3
 8007348:	2602      	movs	r6, #2
 800734a:	7823      	ldrb	r3, [r4, #0]
 800734c:	9302      	str	r3, [sp, #8]
 800734e:	f04f 0a83 	mov.w	sl, #131	@ 0x83
 8007352:	2382      	movs	r3, #130	@ 0x82
 8007354:	4632      	mov	r2, r6
 8007356:	e9cd a600 	strd	sl, r6, [sp]
 800735a:	2101      	movs	r1, #1
 800735c:	4681      	mov	r9, r0
 800735e:	f7ff fdef 	bl	8006f40 <USBD_Update_CDC_ACM_DESC>
 8007362:	f8bd 2016 	ldrh.w	r2, [sp, #22]
 8007366:	f109 0109 	add.w	r1, r9, #9
 800736a:	3a09      	subs	r2, #9
 800736c:	f107 0020 	add.w	r0, r7, #32
 8007370:	f002 fd8c 	bl	8009e8c <memcpy>
 8007374:	f8db 3028 	ldr.w	r3, [fp, #40]	@ 0x28
 8007378:	f10d 0016 	add.w	r0, sp, #22
 800737c:	4798      	blx	r3
 800737e:	7823      	ldrb	r3, [r4, #0]
 8007380:	f8cd a000 	str.w	sl, [sp]
 8007384:	e9cd 6301 	strd	r6, r3, [sp, #4]
 8007388:	4632      	mov	r2, r6
 800738a:	2382      	movs	r3, #130	@ 0x82
 800738c:	2101      	movs	r1, #1
 800738e:	4681      	mov	r9, r0
 8007390:	f7ff fdd6 	bl	8006f40 <USBD_Update_CDC_ACM_DESC>
 8007394:	f8bd 2016 	ldrh.w	r2, [sp, #22]
 8007398:	f109 0109 	add.w	r1, r9, #9
 800739c:	3a09      	subs	r2, #9
 800739e:	f108 0020 	add.w	r0, r8, #32
 80073a2:	f002 fd73 	bl	8009e8c <memcpy>
 80073a6:	2109      	movs	r1, #9
 80073a8:	f807 1c09 	strb.w	r1, [r7, #-9]
 80073ac:	216b      	movs	r1, #107	@ 0x6b
 80073ae:	7823      	ldrb	r3, [r4, #0]
 80073b0:	4a12      	ldr	r2, [pc, #72]	@ (80073fc <USBD_COMPOSITE_Mount_Class+0x134>)
 80073b2:	f807 1c07 	strb.w	r1, [r7, #-7]
 80073b6:	2103      	movs	r1, #3
 80073b8:	f848 2c09 	str.w	r2, [r8, #-9]
 80073bc:	f807 1c05 	strb.w	r1, [r7, #-5]
 80073c0:	4a0f      	ldr	r2, [pc, #60]	@ (8007400 <USBD_COMPOSITE_Mount_Class+0x138>)
 80073c2:	f848 2c05 	str.w	r2, [r8, #-5]
 80073c6:	2101      	movs	r1, #1
 80073c8:	2232      	movs	r2, #50	@ 0x32
 80073ca:	3301      	adds	r3, #1
 80073cc:	f807 1c04 	strb.w	r1, [r7, #-4]
 80073d0:	21c0      	movs	r1, #192	@ 0xc0
 80073d2:	7023      	strb	r3, [r4, #0]
 80073d4:	f808 2c01 	strb.w	r2, [r8, #-1]
 80073d8:	f807 6c08 	strb.w	r6, [r7, #-8]
 80073dc:	f807 5c06 	strb.w	r5, [r7, #-6]
 80073e0:	f807 5c03 	strb.w	r5, [r7, #-3]
 80073e4:	f807 1c02 	strb.w	r1, [r7, #-2]
 80073e8:	f807 2c01 	strb.w	r2, [r7, #-1]
 80073ec:	b007      	add	sp, #28
 80073ee:	e8bd 8ff0 	ldmia.w	sp!, {r4, r5, r6, r7, r8, r9, sl, fp, pc}
 80073f2:	bf00      	nop
 80073f4:	2000033a 	.word	0x2000033a
 80073f8:	20009610 	.word	0x20009610
 80073fc:	006b0209 	.word	0x006b0209
 8007400:	c0000103 	.word	0xc0000103
 8007404:	20000464 	.word	0x20000464
 8007408:	200002d4 	.word	0x200002d4
 800740c:	200095a5 	.word	0x200095a5

08007410 <MX_USB_DEVICE_Init>:
 8007410:	b508      	push	{r3, lr}
 8007412:	f7ff ff59 	bl	80072c8 <USBD_COMPOSITE_Mount_Class>
 8007416:	4913      	ldr	r1, [pc, #76]	@ (8007464 <MX_USB_DEVICE_Init+0x54>)
 8007418:	4813      	ldr	r0, [pc, #76]	@ (8007468 <MX_USB_DEVICE_Init+0x58>)
 800741a:	2200      	movs	r2, #0
 800741c:	f000 f92c 	bl	8007678 <USBD_Init>
 8007420:	b108      	cbz	r0, 8007426 <MX_USB_DEVICE_Init+0x16>
 8007422:	f7f9 fe23 	bl	800106c <Error_Handler>
 8007426:	4911      	ldr	r1, [pc, #68]	@ (800746c <MX_USB_DEVICE_Init+0x5c>)
 8007428:	480f      	ldr	r0, [pc, #60]	@ (8007468 <MX_USB_DEVICE_Init+0x58>)
 800742a:	f000 f936 	bl	800769a <USBD_RegisterClass>
 800742e:	b108      	cbz	r0, 8007434 <MX_USB_DEVICE_Init+0x24>
 8007430:	f7f9 fe1c 	bl	800106c <Error_Handler>
 8007434:	490e      	ldr	r1, [pc, #56]	@ (8007470 <MX_USB_DEVICE_Init+0x60>)
 8007436:	480c      	ldr	r0, [pc, #48]	@ (8007468 <MX_USB_DEVICE_Init+0x58>)
 8007438:	f7ff fd22 	bl	8006e80 <USBD_CDC_ACM_RegisterInterface>
 800743c:	b108      	cbz	r0, 8007442 <MX_USB_DEVICE_Init+0x32>
 800743e:	f7f9 fe15 	bl	800106c <Error_Handler>
 8007442:	490c      	ldr	r1, [pc, #48]	@ (8007474 <MX_USB_DEVICE_Init+0x64>)
 8007444:	4808      	ldr	r0, [pc, #32]	@ (8007468 <MX_USB_DEVICE_Init+0x58>)
 8007446:	f000 fef1 	bl	800822c <USBD_CUSTOM_HID_RegisterInterface>
 800744a:	b108      	cbz	r0, 8007450 <MX_USB_DEVICE_Init+0x40>
 800744c:	f7f9 fe0e 	bl	800106c <Error_Handler>
 8007450:	4805      	ldr	r0, [pc, #20]	@ (8007468 <MX_USB_DEVICE_Init+0x58>)
 8007452:	f000 f93a 	bl	80076ca <USBD_Start>
 8007456:	b118      	cbz	r0, 8007460 <MX_USB_DEVICE_Init+0x50>
 8007458:	e8bd 4008 	ldmia.w	sp!, {r3, lr}
 800745c:	f7f9 be06 	b.w	800106c <Error_Handler>
 8007460:	bd08      	pop	{r3, pc}
 8007462:	bf00      	nop
 8007464:	200003ac 	.word	0x200003ac
 8007468:	20009674 	.word	0x20009674
 800746c:	2000033c 	.word	0x2000033c
 8007470:	2000031c 	.word	0x2000031c
 8007474:	200004a4 	.word	0x200004a4

08007478 <HAL_PCDEx_SetTxFiFoInBytes>:
 8007478:	0892      	lsrs	r2, r2, #2
 800747a:	f7fc bcc1 	b.w	8003e00 <HAL_PCDEx_SetTxFiFo>

0800747e <HAL_PCDEx_SetRxFiFoInBytes>:
 800747e:	0889      	lsrs	r1, r1, #2
 8007480:	f7fc bcdd 	b.w	8003e3e <HAL_PCDEx_SetRxFiFo>

08007484 <HAL_PCD_SetupStageCallback>:
 8007484:	f200 41c4 	addw	r1, r0, #1220	@ 0x4c4
 8007488:	f8d0 0508 	ldr.w	r0, [r0, #1288]	@ 0x508
 800748c:	f000 b92e 	b.w	80076ec <USBD_LL_SetupStage>

08007490 <HAL_PCD_DataOutStageCallback>:
 8007490:	2324      	movs	r3, #36	@ 0x24
 8007492:	fb03 0301 	mla	r3, r3, r1, r0
 8007496:	f8d0 0508 	ldr.w	r0, [r0, #1288]	@ 0x508
 800749a:	f8d3 228c 	ldr.w	r2, [r3, #652]	@ 0x28c
 800749e:	f000 b955 	b.w	800774c <USBD_LL_DataOutStage>

080074a2 <HAL_PCD_DataInStageCallback>:
 80074a2:	2324      	movs	r3, #36	@ 0x24
 80074a4:	fb03 0301 	mla	r3, r3, r1, r0
 80074a8:	f8d0 0508 	ldr.w	r0, [r0, #1288]	@ 0x508
 80074ac:	6cda      	ldr	r2, [r3, #76]	@ 0x4c
 80074ae:	f000 b97d 	b.w	80077ac <USBD_LL_DataInStage>

080074b2 <HAL_PCD_SOFCallback>:
 80074b2:	f8d0 0508 	ldr.w	r0, [r0, #1288]	@ 0x508
 80074b6:	f000 ba07 	b.w	80078c8 <USBD_LL_SOF>

080074ba <HAL_PCD_ResetCallback>:
 80074ba:	68c1      	ldr	r1, [r0, #12]
 80074bc:	2902      	cmp	r1, #2
 80074be:	b510      	push	{r4, lr}
 80074c0:	4604      	mov	r4, r0
 80074c2:	d002      	beq.n	80074ca <HAL_PCD_ResetCallback+0x10>
 80074c4:	b111      	cbz	r1, 80074cc <HAL_PCD_ResetCallback+0x12>
 80074c6:	f7f9 fdd1 	bl	800106c <Error_Handler>
 80074ca:	2101      	movs	r1, #1
 80074cc:	f8d4 0508 	ldr.w	r0, [r4, #1288]	@ 0x508
 80074d0:	f000 f9e2 	bl	8007898 <USBD_LL_SetSpeed>
 80074d4:	f8d4 0508 	ldr.w	r0, [r4, #1288]	@ 0x508
 80074d8:	e8bd 4010 	ldmia.w	sp!, {r4, lr}
 80074dc:	f000 b9b3 	b.w	8007846 <USBD_LL_Reset>

080074e0 <HAL_PCD_SuspendCallback>:
 80074e0:	b510      	push	{r4, lr}
 80074e2:	4604      	mov	r4, r0
 80074e4:	f8d0 0508 	ldr.w	r0, [r0, #1288]	@ 0x508
 80074e8:	f000 f9d9 	bl	800789e <USBD_LL_Suspend>
 80074ec:	6822      	ldr	r2, [r4, #0]
 80074ee:	f8d2 3e00 	ldr.w	r3, [r2, #3584]	@ 0xe00
 80074f2:	f043 0301 	orr.w	r3, r3, #1
 80074f6:	f8c2 3e00 	str.w	r3, [r2, #3584]	@ 0xe00
 80074fa:	6a23      	ldr	r3, [r4, #32]
 80074fc:	b123      	cbz	r3, 8007508 <HAL_PCD_SuspendCallback+0x28>
 80074fe:	4a03      	ldr	r2, [pc, #12]	@ (800750c <HAL_PCD_SuspendCallback+0x2c>)
 8007500:	6913      	ldr	r3, [r2, #16]
 8007502:	f043 0306 	orr.w	r3, r3, #6
 8007506:	6113      	str	r3, [r2, #16]
 8007508:	bd10      	pop	{r4, pc}
 800750a:	bf00      	nop
 800750c:	e000ed00 	.word	0xe000ed00

08007510 <HAL_PCD_ResumeCallback>:
 8007510:	f8d0 0508 	ldr.w	r0, [r0, #1288]	@ 0x508
 8007514:	f000 b9cd 	b.w	80078b2 <USBD_LL_Resume>

08007518 <HAL_PCD_ISOOUTIncompleteCallback>:
 8007518:	f8d0 0508 	ldr.w	r0, [r0, #1288]	@ 0x508
 800751c:	f000 b9f4 	b.w	8007908 <USBD_LL_IsoOUTIncomplete>

08007520 <HAL_PCD_ISOINIncompleteCallback>:
 8007520:	f8d0 0508 	ldr.w	r0, [r0, #1288]	@ 0x508
 8007524:	f000 b9e0 	b.w	80078e8 <USBD_LL_IsoINIncomplete>

08007528 <HAL_PCD_ConnectCallback>:
 8007528:	f8d0 0508 	ldr.w	r0, [r0, #1288]	@ 0x508
 800752c:	f000 b9fc 	b.w	8007928 <USBD_LL_DevConnected>

08007530 <HAL_PCD_DisconnectCallback>:
 8007530:	f8d0 0508 	ldr.w	r0, [r0, #1288]	@ 0x508
 8007534:	f000 b9fa 	b.w	800792c <USBD_LL_DevDisconnected>

08007538 <USBD_LL_Init>:
 8007538:	b538      	push	{r3, r4, r5, lr}
 800753a:	4c16      	ldr	r4, [pc, #88]	@ (8007594 <USBD_LL_Init+0x5c>)
 800753c:	4603      	mov	r3, r0
 800753e:	4816      	ldr	r0, [pc, #88]	@ (8007598 <USBD_LL_Init+0x60>)
 8007540:	6020      	str	r0, [r4, #0]
 8007542:	781d      	ldrb	r5, [r3, #0]
 8007544:	bb25      	cbnz	r5, 8007590 <USBD_LL_Init+0x58>
 8007546:	f8c0 3508 	str.w	r3, [r0, #1288]	@ 0x508
 800754a:	f44f 7100 	mov.w	r1, #512	@ 0x200
 800754e:	f8c3 0310 	str.w	r0, [r3, #784]	@ 0x310
 8007552:	f7ff ff94 	bl	800747e <HAL_PCDEx_SetRxFiFoInBytes>
 8007556:	2240      	movs	r2, #64	@ 0x40
 8007558:	4629      	mov	r1, r5
 800755a:	6820      	ldr	r0, [r4, #0]
 800755c:	f7ff ff8c 	bl	8007478 <HAL_PCDEx_SetTxFiFoInBytes>
 8007560:	4b0e      	ldr	r3, [pc, #56]	@ (800759c <USBD_LL_Init+0x64>)
 8007562:	6820      	ldr	r0, [r4, #0]
 8007564:	7819      	ldrb	r1, [r3, #0]
 8007566:	2240      	movs	r2, #64	@ 0x40
 8007568:	f001 017f 	and.w	r1, r1, #127	@ 0x7f
 800756c:	f7ff ff84 	bl	8007478 <HAL_PCDEx_SetTxFiFoInBytes>
 8007570:	4b0b      	ldr	r3, [pc, #44]	@ (80075a0 <USBD_LL_Init+0x68>)
 8007572:	6820      	ldr	r0, [r4, #0]
 8007574:	7819      	ldrb	r1, [r3, #0]
 8007576:	2280      	movs	r2, #128	@ 0x80
 8007578:	f001 017f 	and.w	r1, r1, #127	@ 0x7f
 800757c:	f7ff ff7c 	bl	8007478 <HAL_PCDEx_SetTxFiFoInBytes>
 8007580:	4b08      	ldr	r3, [pc, #32]	@ (80075a4 <USBD_LL_Init+0x6c>)
 8007582:	6820      	ldr	r0, [r4, #0]
 8007584:	7819      	ldrb	r1, [r3, #0]
 8007586:	2240      	movs	r2, #64	@ 0x40
 8007588:	f001 017f 	and.w	r1, r1, #127	@ 0x7f
 800758c:	f7ff ff74 	bl	8007478 <HAL_PCDEx_SetTxFiFoInBytes>
 8007590:	2000      	movs	r0, #0
 8007592:	bd38      	pop	{r3, r4, r5, pc}
 8007594:	20009990 	.word	0x20009990
 8007598:	20004aa8 	.word	0x20004aa8
 800759c:	200004a1 	.word	0x200004a1
 80075a0:	200052cd 	.word	0x200052cd
 80075a4:	200052cb 	.word	0x200052cb

080075a8 <USBD_LL_IsStallEP>:
 80075a8:	f011 0f80 	tst.w	r1, #128	@ 0x80
 80075ac:	f8d0 3310 	ldr.w	r3, [r0, #784]	@ 0x310
 80075b0:	f04f 0224 	mov.w	r2, #36	@ 0x24
 80075b4:	bf1b      	ittet	ne
 80075b6:	f001 017f 	andne.w	r1, r1, #127	@ 0x7f
 80075ba:	fb02 3301 	mlane	r3, r2, r1, r3
 80075be:	fb02 3301 	mlaeq	r3, r2, r1, r3
 80075c2:	f893 003e 	ldrbne.w	r0, [r3, #62]	@ 0x3e
 80075c6:	bf08      	it	eq
 80075c8:	f893 027e 	ldrbeq.w	r0, [r3, #638]	@ 0x27e
 80075cc:	4770      	bx	lr

080075ce <USBD_LL_GetRxDataSize>:
 80075ce:	f8d0 0310 	ldr.w	r0, [r0, #784]	@ 0x310
 80075d2:	f7fc b82b 	b.w	800362c <HAL_PCD_EP_GetRxCount>

080075d6 <USBD_Get_USB_Status>:
 80075d6:	b118      	cbz	r0, 80075e0 <USBD_Get_USB_Status+0xa>
 80075d8:	2802      	cmp	r0, #2
 80075da:	bf0c      	ite	eq
 80075dc:	2001      	moveq	r0, #1
 80075de:	2003      	movne	r0, #3
 80075e0:	4770      	bx	lr

080075e2 <USBD_LL_Start>:
 80075e2:	b508      	push	{r3, lr}
 80075e4:	f8d0 0310 	ldr.w	r0, [r0, #784]	@ 0x310
 80075e8:	f7fb ff62 	bl	80034b0 <HAL_PCD_Start>
 80075ec:	e8bd 4008 	ldmia.w	sp!, {r3, lr}
 80075f0:	f7ff bff1 	b.w	80075d6 <USBD_Get_USB_Status>

080075f4 <USBD_LL_OpenEP>:
 80075f4:	b510      	push	{r4, lr}
 80075f6:	4614      	mov	r4, r2
 80075f8:	f8d0 0310 	ldr.w	r0, [r0, #784]	@ 0x310
 80075fc:	461a      	mov	r2, r3
 80075fe:	4623      	mov	r3, r4
 8007600:	f7fb ff89 	bl	8003516 <HAL_PCD_EP_Open>
 8007604:	e8bd 4010 	ldmia.w	sp!, {r4, lr}
 8007608:	f7ff bfe5 	b.w	80075d6 <USBD_Get_USB_Status>

0800760c <USBD_LL_CloseEP>:
 800760c:	b508      	push	{r3, lr}
 800760e:	f8d0 0310 	ldr.w	r0, [r0, #784]	@ 0x310
 8007612:	f7fb ffb8 	bl	8003586 <HAL_PCD_EP_Close>
 8007616:	e8bd 4008 	ldmia.w	sp!, {r3, lr}
 800761a:	f7ff bfdc 	b.w	80075d6 <USBD_Get_USB_Status>

0800761e <USBD_LL_StallEP>:
 800761e:	b508      	push	{r3, lr}
 8007620:	f8d0 0310 	ldr.w	r0, [r0, #784]	@ 0x310
 8007624:	f7fc f82a 	bl	800367c <HAL_PCD_EP_SetStall>
 8007628:	e8bd 4008 	ldmia.w	sp!, {r3, lr}
 800762c:	f7ff bfd3 	b.w	80075d6 <USBD_Get_USB_Status>

08007630 <USBD_LL_ClearStallEP>:
 8007630:	b508      	push	{r3, lr}
 8007632:	f8d0 0310 	ldr.w	r0, [r0, #784]	@ 0x310
 8007636:	f7fc f859 	bl	80036ec <HAL_PCD_EP_ClrStall>
 800763a:	e8bd 4008 	ldmia.w	sp!, {r3, lr}
 800763e:	f7ff bfca 	b.w	80075d6 <USBD_Get_USB_Status>

08007642 <USBD_LL_SetUSBAddress>:
 8007642:	b508      	push	{r3, lr}
 8007644:	f8d0 0310 	ldr.w	r0, [r0, #784]	@ 0x310
 8007648:	f7fb ff51 	bl	80034ee <HAL_PCD_SetAddress>
 800764c:	e8bd 4008 	ldmia.w	sp!, {r3, lr}
 8007650:	f7ff bfc1 	b.w	80075d6 <USBD_Get_USB_Status>

08007654 <USBD_LL_Transmit>:
 8007654:	b508      	push	{r3, lr}
 8007656:	f8d0 0310 	ldr.w	r0, [r0, #784]	@ 0x310
 800765a:	f7fb ffef 	bl	800363c <HAL_PCD_EP_Transmit>
 800765e:	e8bd 4008 	ldmia.w	sp!, {r3, lr}
 8007662:	f7ff bfb8 	b.w	80075d6 <USBD_Get_USB_Status>

08007666 <USBD_LL_PrepareReceive>:
 8007666:	b508      	push	{r3, lr}
 8007668:	f8d0 0310 	ldr.w	r0, [r0, #784]	@ 0x310
 800766c:	f7fb ffba 	bl	80035e4 <HAL_PCD_EP_Receive>
 8007670:	e8bd 4008 	ldmia.w	sp!, {r3, lr}
 8007674:	f7ff bfaf 	b.w	80075d6 <USBD_Get_USB_Status>

08007678 <USBD_Init>:
 8007678:	b168      	cbz	r0, 8007696 <USBD_Init+0x1e>
 800767a:	2300      	movs	r3, #0
 800767c:	f8c0 32b8 	str.w	r3, [r0, #696]	@ 0x2b8
 8007680:	f8c0 3318 	str.w	r3, [r0, #792]	@ 0x318
 8007684:	b109      	cbz	r1, 800768a <USBD_Init+0x12>
 8007686:	f8c0 12b4 	str.w	r1, [r0, #692]	@ 0x2b4
 800768a:	2301      	movs	r3, #1
 800768c:	f880 329c 	strb.w	r3, [r0, #668]	@ 0x29c
 8007690:	7002      	strb	r2, [r0, #0]
 8007692:	f7ff bf51 	b.w	8007538 <USBD_LL_Init>
 8007696:	2003      	movs	r0, #3
 8007698:	4770      	bx	lr

0800769a <USBD_RegisterClass>:
 800769a:	b513      	push	{r0, r1, r4, lr}
 800769c:	2300      	movs	r3, #0
 800769e:	4604      	mov	r4, r0
 80076a0:	f8ad 3006 	strh.w	r3, [sp, #6]
 80076a4:	b179      	cbz	r1, 80076c6 <USBD_RegisterClass+0x2c>
 80076a6:	7c03      	ldrb	r3, [r0, #16]
 80076a8:	f8c0 12b8 	str.w	r1, [r0, #696]	@ 0x2b8
 80076ac:	b94b      	cbnz	r3, 80076c2 <USBD_RegisterClass+0x28>
 80076ae:	6a8b      	ldr	r3, [r1, #40]	@ 0x28
 80076b0:	b123      	cbz	r3, 80076bc <USBD_RegisterClass+0x22>
 80076b2:	f10d 0006 	add.w	r0, sp, #6
 80076b6:	4798      	blx	r3
 80076b8:	f8c4 0318 	str.w	r0, [r4, #792]	@ 0x318
 80076bc:	2000      	movs	r0, #0
 80076be:	b002      	add	sp, #8
 80076c0:	bd10      	pop	{r4, pc}
 80076c2:	6acb      	ldr	r3, [r1, #44]	@ 0x2c
 80076c4:	e7f4      	b.n	80076b0 <USBD_RegisterClass+0x16>
 80076c6:	2003      	movs	r0, #3
 80076c8:	e7f9      	b.n	80076be <USBD_RegisterClass+0x24>

080076ca <USBD_Start>:
 80076ca:	f7ff bf8a 	b.w	80075e2 <USBD_LL_Start>

080076ce <USBD_SetClassConfig>:
 80076ce:	f8d0 32b8 	ldr.w	r3, [r0, #696]	@ 0x2b8
 80076d2:	b10b      	cbz	r3, 80076d8 <USBD_SetClassConfig+0xa>
 80076d4:	681b      	ldr	r3, [r3, #0]
 80076d6:	4718      	bx	r3
 80076d8:	2003      	movs	r0, #3
 80076da:	4770      	bx	lr

080076dc <USBD_ClrClassConfig>:
 80076dc:	b508      	push	{r3, lr}
 80076de:	f8d0 32b8 	ldr.w	r3, [r0, #696]	@ 0x2b8
 80076e2:	b10b      	cbz	r3, 80076e8 <USBD_ClrClassConfig+0xc>
 80076e4:	685b      	ldr	r3, [r3, #4]
 80076e6:	4798      	blx	r3
 80076e8:	2000      	movs	r0, #0
 80076ea:	bd08      	pop	{r3, pc}

080076ec <USBD_LL_SetupStage>:
 80076ec:	b538      	push	{r3, r4, r5, lr}
 80076ee:	4604      	mov	r4, r0
 80076f0:	f200 25aa 	addw	r5, r0, #682	@ 0x2aa
 80076f4:	4628      	mov	r0, r5
 80076f6:	f000 fb4d 	bl	8007d94 <USBD_ParseSetupRequest>
 80076fa:	2301      	movs	r3, #1
 80076fc:	f894 12aa 	ldrb.w	r1, [r4, #682]	@ 0x2aa
 8007700:	f8c4 3294 	str.w	r3, [r4, #660]	@ 0x294
 8007704:	f8b4 32b0 	ldrh.w	r3, [r4, #688]	@ 0x2b0
 8007708:	f8c4 3298 	str.w	r3, [r4, #664]	@ 0x298
 800770c:	f001 031f 	and.w	r3, r1, #31
 8007710:	2b01      	cmp	r3, #1
 8007712:	d008      	beq.n	8007726 <USBD_LL_SetupStage+0x3a>
 8007714:	2b02      	cmp	r3, #2
 8007716:	d00c      	beq.n	8007732 <USBD_LL_SetupStage+0x46>
 8007718:	b98b      	cbnz	r3, 800773e <USBD_LL_SetupStage+0x52>
 800771a:	4629      	mov	r1, r5
 800771c:	4620      	mov	r0, r4
 800771e:	e8bd 4038 	ldmia.w	sp!, {r3, r4, r5, lr}
 8007722:	f000 b91b 	b.w	800795c <USBD_StdDevReq>
 8007726:	4629      	mov	r1, r5
 8007728:	4620      	mov	r0, r4
 800772a:	e8bd 4038 	ldmia.w	sp!, {r3, r4, r5, lr}
 800772e:	f000 ba79 	b.w	8007c24 <USBD_StdItfReq>
 8007732:	4629      	mov	r1, r5
 8007734:	4620      	mov	r0, r4
 8007736:	e8bd 4038 	ldmia.w	sp!, {r3, r4, r5, lr}
 800773a:	f000 ba99 	b.w	8007c70 <USBD_StdEPReq>
 800773e:	4620      	mov	r0, r4
 8007740:	f001 0180 	and.w	r1, r1, #128	@ 0x80
 8007744:	e8bd 4038 	ldmia.w	sp!, {r3, r4, r5, lr}
 8007748:	f7ff bf69 	b.w	800761e <USBD_LL_StallEP>

0800774c <USBD_LL_DataOutStage>:
 800774c:	b570      	push	{r4, r5, r6, lr}
 800774e:	4604      	mov	r4, r0
 8007750:	4615      	mov	r5, r2
 8007752:	b9f9      	cbnz	r1, 8007794 <USBD_LL_DataOutStage+0x48>
 8007754:	f8d0 3294 	ldr.w	r3, [r0, #660]	@ 0x294
 8007758:	2b03      	cmp	r3, #3
 800775a:	d10c      	bne.n	8007776 <USBD_LL_DataOutStage+0x2a>
 800775c:	e9d0 3257 	ldrd	r3, r2, [r0, #348]	@ 0x15c
 8007760:	4293      	cmp	r3, r2
 8007762:	d90a      	bls.n	800777a <USBD_LL_DataOutStage+0x2e>
 8007764:	1a9b      	subs	r3, r3, r2
 8007766:	429a      	cmp	r2, r3
 8007768:	f8c0 315c 	str.w	r3, [r0, #348]	@ 0x15c
 800776c:	bf28      	it	cs
 800776e:	461a      	movcs	r2, r3
 8007770:	4629      	mov	r1, r5
 8007772:	f000 fbdb 	bl	8007f2c <USBD_CtlContinueRx>
 8007776:	2000      	movs	r0, #0
 8007778:	bd70      	pop	{r4, r5, r6, pc}
 800777a:	f890 329c 	ldrb.w	r3, [r0, #668]	@ 0x29c
 800777e:	2b03      	cmp	r3, #3
 8007780:	d104      	bne.n	800778c <USBD_LL_DataOutStage+0x40>
 8007782:	f8d0 32b8 	ldr.w	r3, [r0, #696]	@ 0x2b8
 8007786:	691b      	ldr	r3, [r3, #16]
 8007788:	b103      	cbz	r3, 800778c <USBD_LL_DataOutStage+0x40>
 800778a:	4798      	blx	r3
 800778c:	4620      	mov	r0, r4
 800778e:	f000 fbd5 	bl	8007f3c <USBD_CtlSendStatus>
 8007792:	e7f0      	b.n	8007776 <USBD_LL_DataOutStage+0x2a>
 8007794:	f890 329c 	ldrb.w	r3, [r0, #668]	@ 0x29c
 8007798:	2b03      	cmp	r3, #3
 800779a:	d1ec      	bne.n	8007776 <USBD_LL_DataOutStage+0x2a>
 800779c:	f8d0 32b8 	ldr.w	r3, [r0, #696]	@ 0x2b8
 80077a0:	699b      	ldr	r3, [r3, #24]
 80077a2:	2b00      	cmp	r3, #0
 80077a4:	d0e7      	beq.n	8007776 <USBD_LL_DataOutStage+0x2a>
 80077a6:	e8bd 4070 	ldmia.w	sp!, {r4, r5, r6, lr}
 80077aa:	4718      	bx	r3

080077ac <USBD_LL_DataInStage>:
 80077ac:	b570      	push	{r4, r5, r6, lr}
 80077ae:	4604      	mov	r4, r0
 80077b0:	4616      	mov	r6, r2
 80077b2:	460d      	mov	r5, r1
 80077b4:	bbd9      	cbnz	r1, 800782e <USBD_LL_DataInStage+0x82>
 80077b6:	f8d0 3294 	ldr.w	r3, [r0, #660]	@ 0x294
 80077ba:	2b02      	cmp	r3, #2
 80077bc:	d10e      	bne.n	80077dc <USBD_LL_DataInStage+0x30>
 80077be:	e9d0 3207 	ldrd	r3, r2, [r0, #28]
 80077c2:	4293      	cmp	r3, r2
 80077c4:	d913      	bls.n	80077ee <USBD_LL_DataInStage+0x42>
 80077c6:	1a9a      	subs	r2, r3, r2
 80077c8:	61c2      	str	r2, [r0, #28]
 80077ca:	4631      	mov	r1, r6
 80077cc:	f000 fb99 	bl	8007f02 <USBD_CtlContinueSendData>
 80077d0:	462b      	mov	r3, r5
 80077d2:	462a      	mov	r2, r5
 80077d4:	4629      	mov	r1, r5
 80077d6:	4620      	mov	r0, r4
 80077d8:	f7ff ff45 	bl	8007666 <USBD_LL_PrepareReceive>
 80077dc:	f894 32a0 	ldrb.w	r3, [r4, #672]	@ 0x2a0
 80077e0:	2b01      	cmp	r3, #1
 80077e2:	d102      	bne.n	80077ea <USBD_LL_DataInStage+0x3e>
 80077e4:	2300      	movs	r3, #0
 80077e6:	f884 32a0 	strb.w	r3, [r4, #672]	@ 0x2a0
 80077ea:	2000      	movs	r0, #0
 80077ec:	bd70      	pop	{r4, r5, r6, pc}
 80077ee:	d10c      	bne.n	800780a <USBD_LL_DataInStage+0x5e>
 80077f0:	6982      	ldr	r2, [r0, #24]
 80077f2:	4293      	cmp	r3, r2
 80077f4:	d809      	bhi.n	800780a <USBD_LL_DataInStage+0x5e>
 80077f6:	f8d0 3298 	ldr.w	r3, [r0, #664]	@ 0x298
 80077fa:	429a      	cmp	r2, r3
 80077fc:	d205      	bcs.n	800780a <USBD_LL_DataInStage+0x5e>
 80077fe:	460a      	mov	r2, r1
 8007800:	f000 fb7f 	bl	8007f02 <USBD_CtlContinueSendData>
 8007804:	f8c4 5298 	str.w	r5, [r4, #664]	@ 0x298
 8007808:	e7e2      	b.n	80077d0 <USBD_LL_DataInStage+0x24>
 800780a:	f894 329c 	ldrb.w	r3, [r4, #668]	@ 0x29c
 800780e:	2b03      	cmp	r3, #3
 8007810:	d105      	bne.n	800781e <USBD_LL_DataInStage+0x72>
 8007812:	f8d4 32b8 	ldr.w	r3, [r4, #696]	@ 0x2b8
 8007816:	68db      	ldr	r3, [r3, #12]
 8007818:	b10b      	cbz	r3, 800781e <USBD_LL_DataInStage+0x72>
 800781a:	4620      	mov	r0, r4
 800781c:	4798      	blx	r3
 800781e:	2180      	movs	r1, #128	@ 0x80
 8007820:	4620      	mov	r0, r4
 8007822:	f7ff fefc 	bl	800761e <USBD_LL_StallEP>
 8007826:	4620      	mov	r0, r4
 8007828:	f000 fb93 	bl	8007f52 <USBD_CtlReceiveStatus>
 800782c:	e7d6      	b.n	80077dc <USBD_LL_DataInStage+0x30>
 800782e:	f890 329c 	ldrb.w	r3, [r0, #668]	@ 0x29c
 8007832:	2b03      	cmp	r3, #3
 8007834:	d1d9      	bne.n	80077ea <USBD_LL_DataInStage+0x3e>
 8007836:	f8d0 32b8 	ldr.w	r3, [r0, #696]	@ 0x2b8
 800783a:	695b      	ldr	r3, [r3, #20]
 800783c:	2b00      	cmp	r3, #0
 800783e:	d0d4      	beq.n	80077ea <USBD_LL_DataInStage+0x3e>
 8007840:	e8bd 4070 	ldmia.w	sp!, {r4, r5, r6, lr}
 8007844:	4718      	bx	r3

08007846 <USBD_LL_Reset>:
 8007846:	2301      	movs	r3, #1
 8007848:	b570      	push	{r4, r5, r6, lr}
 800784a:	f880 329c 	strb.w	r3, [r0, #668]	@ 0x29c
 800784e:	f8d0 32b8 	ldr.w	r3, [r0, #696]	@ 0x2b8
 8007852:	2100      	movs	r1, #0
 8007854:	4604      	mov	r4, r0
 8007856:	f8c0 1294 	str.w	r1, [r0, #660]	@ 0x294
 800785a:	6041      	str	r1, [r0, #4]
 800785c:	f8c0 12a4 	str.w	r1, [r0, #676]	@ 0x2a4
 8007860:	b1c3      	cbz	r3, 8007894 <USBD_LL_Reset+0x4e>
 8007862:	685b      	ldr	r3, [r3, #4]
 8007864:	b103      	cbz	r3, 8007868 <USBD_LL_Reset+0x22>
 8007866:	4798      	blx	r3
 8007868:	2200      	movs	r2, #0
 800786a:	4611      	mov	r1, r2
 800786c:	2540      	movs	r5, #64	@ 0x40
 800786e:	2340      	movs	r3, #64	@ 0x40
 8007870:	2601      	movs	r6, #1
 8007872:	4620      	mov	r0, r4
 8007874:	f7ff febe 	bl	80075f4 <USBD_LL_OpenEP>
 8007878:	f8a4 6164 	strh.w	r6, [r4, #356]	@ 0x164
 800787c:	f8c4 5160 	str.w	r5, [r4, #352]	@ 0x160
 8007880:	462b      	mov	r3, r5
 8007882:	2200      	movs	r2, #0
 8007884:	2180      	movs	r1, #128	@ 0x80
 8007886:	4620      	mov	r0, r4
 8007888:	f7ff feb4 	bl	80075f4 <USBD_LL_OpenEP>
 800788c:	84a6      	strh	r6, [r4, #36]	@ 0x24
 800788e:	6225      	str	r5, [r4, #32]
 8007890:	2000      	movs	r0, #0
 8007892:	bd70      	pop	{r4, r5, r6, pc}
 8007894:	2003      	movs	r0, #3
 8007896:	e7fc      	b.n	8007892 <USBD_LL_Reset+0x4c>

08007898 <USBD_LL_SetSpeed>:
 8007898:	7401      	strb	r1, [r0, #16]
 800789a:	2000      	movs	r0, #0
 800789c:	4770      	bx	lr

0800789e <USBD_LL_Suspend>:
 800789e:	f890 329c 	ldrb.w	r3, [r0, #668]	@ 0x29c
 80078a2:	b2db      	uxtb	r3, r3
 80078a4:	f880 329d 	strb.w	r3, [r0, #669]	@ 0x29d
 80078a8:	2304      	movs	r3, #4
 80078aa:	f880 329c 	strb.w	r3, [r0, #668]	@ 0x29c
 80078ae:	2000      	movs	r0, #0
 80078b0:	4770      	bx	lr

080078b2 <USBD_LL_Resume>:
 80078b2:	f890 329c 	ldrb.w	r3, [r0, #668]	@ 0x29c
 80078b6:	2b04      	cmp	r3, #4
 80078b8:	bf02      	ittt	eq
 80078ba:	f890 329d 	ldrbeq.w	r3, [r0, #669]	@ 0x29d
 80078be:	b2db      	uxtbeq	r3, r3
 80078c0:	f880 329c 	strbeq.w	r3, [r0, #668]	@ 0x29c
 80078c4:	2000      	movs	r0, #0
 80078c6:	4770      	bx	lr

080078c8 <USBD_LL_SOF>:
 80078c8:	f8d0 22b8 	ldr.w	r2, [r0, #696]	@ 0x2b8
 80078cc:	b508      	push	{r3, lr}
 80078ce:	b14a      	cbz	r2, 80078e4 <USBD_LL_SOF+0x1c>
 80078d0:	f890 329c 	ldrb.w	r3, [r0, #668]	@ 0x29c
 80078d4:	2b03      	cmp	r3, #3
 80078d6:	d101      	bne.n	80078dc <USBD_LL_SOF+0x14>
 80078d8:	69d3      	ldr	r3, [r2, #28]
 80078da:	b90b      	cbnz	r3, 80078e0 <USBD_LL_SOF+0x18>
 80078dc:	2000      	movs	r0, #0
 80078de:	bd08      	pop	{r3, pc}
 80078e0:	4798      	blx	r3
 80078e2:	e7fb      	b.n	80078dc <USBD_LL_SOF+0x14>
 80078e4:	2003      	movs	r0, #3
 80078e6:	e7fa      	b.n	80078de <USBD_LL_SOF+0x16>

080078e8 <USBD_LL_IsoINIncomplete>:
 80078e8:	f8d0 22b8 	ldr.w	r2, [r0, #696]	@ 0x2b8
 80078ec:	b508      	push	{r3, lr}
 80078ee:	b14a      	cbz	r2, 8007904 <USBD_LL_IsoINIncomplete+0x1c>
 80078f0:	f890 329c 	ldrb.w	r3, [r0, #668]	@ 0x29c
 80078f4:	2b03      	cmp	r3, #3
 80078f6:	d101      	bne.n	80078fc <USBD_LL_IsoINIncomplete+0x14>
 80078f8:	6a13      	ldr	r3, [r2, #32]
 80078fa:	b90b      	cbnz	r3, 8007900 <USBD_LL_IsoINIncomplete+0x18>
 80078fc:	2000      	movs	r0, #0
 80078fe:	bd08      	pop	{r3, pc}
 8007900:	4798      	blx	r3
 8007902:	e7fb      	b.n	80078fc <USBD_LL_IsoINIncomplete+0x14>
 8007904:	2003      	movs	r0, #3
 8007906:	e7fa      	b.n	80078fe <USBD_LL_IsoINIncomplete+0x16>

08007908 <USBD_LL_IsoOUTIncomplete>:
 8007908:	f8d0 22b8 	ldr.w	r2, [r0, #696]	@ 0x2b8
 800790c:	b508      	push	{r3, lr}
 800790e:	b14a      	cbz	r2, 8007924 <USBD_LL_IsoOUTIncomplete+0x1c>
 8007910:	f890 329c 	ldrb.w	r3, [r0, #668]	@ 0x29c
 8007914:	2b03      	cmp	r3, #3
 8007916:	d101      	bne.n	800791c <USBD_LL_IsoOUTIncomplete+0x14>
 8007918:	6a53      	ldr	r3, [r2, #36]	@ 0x24
 800791a:	b90b      	cbnz	r3, 8007920 <USBD_LL_IsoOUTIncomplete+0x18>
 800791c:	2000      	movs	r0, #0
 800791e:	bd08      	pop	{r3, pc}
 8007920:	4798      	blx	r3
 8007922:	e7fb      	b.n	800791c <USBD_LL_IsoOUTIncomplete+0x14>
 8007924:	2003      	movs	r0, #3
 8007926:	e7fa      	b.n	800791e <USBD_LL_IsoOUTIncomplete+0x16>

08007928 <USBD_LL_DevConnected>:
 8007928:	2000      	movs	r0, #0
 800792a:	4770      	bx	lr

0800792c <USBD_LL_DevDisconnected>:
 800792c:	2201      	movs	r2, #1
 800792e:	b508      	push	{r3, lr}
 8007930:	f880 229c 	strb.w	r2, [r0, #668]	@ 0x29c
 8007934:	f8d0 22b8 	ldr.w	r2, [r0, #696]	@ 0x2b8
 8007938:	b112      	cbz	r2, 8007940 <USBD_LL_DevDisconnected+0x14>
 800793a:	6852      	ldr	r2, [r2, #4]
 800793c:	7901      	ldrb	r1, [r0, #4]
 800793e:	4790      	blx	r2
 8007940:	2000      	movs	r0, #0
 8007942:	bd08      	pop	{r3, pc}

08007944 <USBD_CtlError.constprop.0>:
 8007944:	b510      	push	{r4, lr}
 8007946:	2180      	movs	r1, #128	@ 0x80
 8007948:	4604      	mov	r4, r0
 800794a:	f7ff fe68 	bl	800761e <USBD_LL_StallEP>
 800794e:	4620      	mov	r0, r4
 8007950:	2100      	movs	r1, #0
 8007952:	e8bd 4010 	ldmia.w	sp!, {r4, lr}
 8007956:	f7ff be62 	b.w	800761e <USBD_LL_StallEP>
	...

0800795c <USBD_StdDevReq>:
 800795c:	b537      	push	{r0, r1, r2, r4, r5, lr}
 800795e:	780b      	ldrb	r3, [r1, #0]
 8007960:	f003 0360 	and.w	r3, r3, #96	@ 0x60
 8007964:	2b20      	cmp	r3, #32
 8007966:	4604      	mov	r4, r0
 8007968:	460d      	mov	r5, r1
 800796a:	d009      	beq.n	8007980 <USBD_StdDevReq+0x24>
 800796c:	2b40      	cmp	r3, #64	@ 0x40
 800796e:	d007      	beq.n	8007980 <USBD_StdDevReq+0x24>
 8007970:	b17b      	cbz	r3, 8007992 <USBD_StdDevReq+0x36>
 8007972:	4620      	mov	r0, r4
 8007974:	f7ff ffe6 	bl	8007944 <USBD_CtlError.constprop.0>
 8007978:	2500      	movs	r5, #0
 800797a:	4628      	mov	r0, r5
 800797c:	b003      	add	sp, #12
 800797e:	bd30      	pop	{r4, r5, pc}
 8007980:	f8d4 32b8 	ldr.w	r3, [r4, #696]	@ 0x2b8
 8007984:	689b      	ldr	r3, [r3, #8]
 8007986:	4629      	mov	r1, r5
 8007988:	4620      	mov	r0, r4
 800798a:	b003      	add	sp, #12
 800798c:	e8bd 4030 	ldmia.w	sp!, {r4, r5, lr}
 8007990:	4718      	bx	r3
 8007992:	784b      	ldrb	r3, [r1, #1]
 8007994:	2b09      	cmp	r3, #9
 8007996:	d8ec      	bhi.n	8007972 <USBD_StdDevReq+0x16>
 8007998:	a201      	add	r2, pc, #4	@ (adr r2, 80079a0 <USBD_StdDevReq+0x44>)
 800799a:	f852 f023 	ldr.w	pc, [r2, r3, lsl #2]
 800799e:	bf00      	nop
 80079a0:	08007bd1 	.word	0x08007bd1
 80079a4:	08007c07 	.word	0x08007c07
 80079a8:	08007973 	.word	0x08007973
 80079ac:	08007bf9 	.word	0x08007bf9
 80079b0:	08007973 	.word	0x08007973
 80079b4:	08007acf 	.word	0x08007acf
 80079b8:	080079c9 	.word	0x080079c9
 80079bc:	08007973 	.word	0x08007973
 80079c0:	08007ba5 	.word	0x08007ba5
 80079c4:	08007b11 	.word	0x08007b11
 80079c8:	8849      	ldrh	r1, [r1, #2]
 80079ca:	2300      	movs	r3, #0
 80079cc:	f8ad 3006 	strh.w	r3, [sp, #6]
 80079d0:	0a0b      	lsrs	r3, r1, #8
 80079d2:	3b01      	subs	r3, #1
 80079d4:	2b06      	cmp	r3, #6
 80079d6:	d8cc      	bhi.n	8007972 <USBD_StdDevReq+0x16>
 80079d8:	a201      	add	r2, pc, #4	@ (adr r2, 80079e0 <USBD_StdDevReq+0x84>)
 80079da:	f852 f023 	ldr.w	pc, [r2, r3, lsl #2]
 80079de:	bf00      	nop
 80079e0:	080079fd 	.word	0x080079fd
 80079e4:	08007a2f 	.word	0x08007a2f
 80079e8:	08007a49 	.word	0x08007a49
 80079ec:	08007973 	.word	0x08007973
 80079f0:	08007973 	.word	0x08007973
 80079f4:	08007aa1 	.word	0x08007aa1
 80079f8:	08007ab7 	.word	0x08007ab7
 80079fc:	f8d0 32b4 	ldr.w	r3, [r0, #692]	@ 0x2b4
 8007a00:	681b      	ldr	r3, [r3, #0]
 8007a02:	7c20      	ldrb	r0, [r4, #16]
 8007a04:	f10d 0106 	add.w	r1, sp, #6
 8007a08:	4798      	blx	r3
 8007a0a:	88ea      	ldrh	r2, [r5, #6]
 8007a0c:	2a00      	cmp	r2, #0
 8007a0e:	f000 80ac 	beq.w	8007b6a <USBD_StdDevReq+0x20e>
 8007a12:	f8bd 3006 	ldrh.w	r3, [sp, #6]
 8007a16:	2b00      	cmp	r3, #0
 8007a18:	d0ab      	beq.n	8007972 <USBD_StdDevReq+0x16>
 8007a1a:	429a      	cmp	r2, r3
 8007a1c:	bf28      	it	cs
 8007a1e:	461a      	movcs	r2, r3
 8007a20:	f8ad 2006 	strh.w	r2, [sp, #6]
 8007a24:	4601      	mov	r1, r0
 8007a26:	4620      	mov	r0, r4
 8007a28:	f000 fa5e 	bl	8007ee8 <USBD_CtlSendData>
 8007a2c:	e7a4      	b.n	8007978 <USBD_StdDevReq+0x1c>
 8007a2e:	7c02      	ldrb	r2, [r0, #16]
 8007a30:	f8d0 32b8 	ldr.w	r3, [r0, #696]	@ 0x2b8
 8007a34:	b932      	cbnz	r2, 8007a44 <USBD_StdDevReq+0xe8>
 8007a36:	6a9b      	ldr	r3, [r3, #40]	@ 0x28
 8007a38:	f10d 0006 	add.w	r0, sp, #6
 8007a3c:	4798      	blx	r3
 8007a3e:	2302      	movs	r3, #2
 8007a40:	7043      	strb	r3, [r0, #1]
 8007a42:	e7e2      	b.n	8007a0a <USBD_StdDevReq+0xae>
 8007a44:	6adb      	ldr	r3, [r3, #44]	@ 0x2c
 8007a46:	e7f7      	b.n	8007a38 <USBD_StdDevReq+0xdc>
 8007a48:	b2c9      	uxtb	r1, r1
 8007a4a:	2905      	cmp	r1, #5
 8007a4c:	d81e      	bhi.n	8007a8c <USBD_StdDevReq+0x130>
 8007a4e:	e8df f001 	tbb	[pc, r1]
 8007a52:	0903      	.short	0x0903
 8007a54:	1915110d 	.word	0x1915110d
 8007a58:	f8d0 32b4 	ldr.w	r3, [r0, #692]	@ 0x2b4
 8007a5c:	685b      	ldr	r3, [r3, #4]
 8007a5e:	2b00      	cmp	r3, #0
 8007a60:	d1cf      	bne.n	8007a02 <USBD_StdDevReq+0xa6>
 8007a62:	e786      	b.n	8007972 <USBD_StdDevReq+0x16>
 8007a64:	f8d0 32b4 	ldr.w	r3, [r0, #692]	@ 0x2b4
 8007a68:	689b      	ldr	r3, [r3, #8]
 8007a6a:	e7f8      	b.n	8007a5e <USBD_StdDevReq+0x102>
 8007a6c:	f8d0 32b4 	ldr.w	r3, [r0, #692]	@ 0x2b4
 8007a70:	68db      	ldr	r3, [r3, #12]
 8007a72:	e7f4      	b.n	8007a5e <USBD_StdDevReq+0x102>
 8007a74:	f8d0 32b4 	ldr.w	r3, [r0, #692]	@ 0x2b4
 8007a78:	691b      	ldr	r3, [r3, #16]
 8007a7a:	e7f0      	b.n	8007a5e <USBD_StdDevReq+0x102>
 8007a7c:	f8d0 32b4 	ldr.w	r3, [r0, #692]	@ 0x2b4
 8007a80:	695b      	ldr	r3, [r3, #20]
 8007a82:	e7ec      	b.n	8007a5e <USBD_StdDevReq+0x102>
 8007a84:	f8d0 32b4 	ldr.w	r3, [r0, #692]	@ 0x2b4
 8007a88:	699b      	ldr	r3, [r3, #24]
 8007a8a:	e7e8      	b.n	8007a5e <USBD_StdDevReq+0x102>
 8007a8c:	f8d0 32b8 	ldr.w	r3, [r0, #696]	@ 0x2b8
 8007a90:	6b9b      	ldr	r3, [r3, #56]	@ 0x38
 8007a92:	2b00      	cmp	r3, #0
 8007a94:	f43f af6d 	beq.w	8007972 <USBD_StdDevReq+0x16>
 8007a98:	f10d 0206 	add.w	r2, sp, #6
 8007a9c:	4798      	blx	r3
 8007a9e:	e7b4      	b.n	8007a0a <USBD_StdDevReq+0xae>
 8007aa0:	7c03      	ldrb	r3, [r0, #16]
 8007aa2:	2b00      	cmp	r3, #0
 8007aa4:	f47f af65 	bne.w	8007972 <USBD_StdDevReq+0x16>
 8007aa8:	f8d0 32b8 	ldr.w	r3, [r0, #696]	@ 0x2b8
 8007aac:	f10d 0006 	add.w	r0, sp, #6
 8007ab0:	6b5b      	ldr	r3, [r3, #52]	@ 0x34
 8007ab2:	4798      	blx	r3
 8007ab4:	e7a9      	b.n	8007a0a <USBD_StdDevReq+0xae>
 8007ab6:	7c03      	ldrb	r3, [r0, #16]
 8007ab8:	2b00      	cmp	r3, #0
 8007aba:	f47f af5a 	bne.w	8007972 <USBD_StdDevReq+0x16>
 8007abe:	f8d0 32b8 	ldr.w	r3, [r0, #696]	@ 0x2b8
 8007ac2:	f10d 0006 	add.w	r0, sp, #6
 8007ac6:	6b1b      	ldr	r3, [r3, #48]	@ 0x30
 8007ac8:	4798      	blx	r3
 8007aca:	2307      	movs	r3, #7
 8007acc:	e7b8      	b.n	8007a40 <USBD_StdDevReq+0xe4>
 8007ace:	888b      	ldrh	r3, [r1, #4]
 8007ad0:	2b00      	cmp	r3, #0
 8007ad2:	f47f af4e 	bne.w	8007972 <USBD_StdDevReq+0x16>
 8007ad6:	88cb      	ldrh	r3, [r1, #6]
 8007ad8:	2b00      	cmp	r3, #0
 8007ada:	f47f af4a 	bne.w	8007972 <USBD_StdDevReq+0x16>
 8007ade:	884d      	ldrh	r5, [r1, #2]
 8007ae0:	2d7f      	cmp	r5, #127	@ 0x7f
 8007ae2:	f63f af46 	bhi.w	8007972 <USBD_StdDevReq+0x16>
 8007ae6:	f890 329c 	ldrb.w	r3, [r0, #668]	@ 0x29c
 8007aea:	2b03      	cmp	r3, #3
 8007aec:	f43f af41 	beq.w	8007972 <USBD_StdDevReq+0x16>
 8007af0:	b2ed      	uxtb	r5, r5
 8007af2:	f880 529e 	strb.w	r5, [r0, #670]	@ 0x29e
 8007af6:	4629      	mov	r1, r5
 8007af8:	f7ff fda3 	bl	8007642 <USBD_LL_SetUSBAddress>
 8007afc:	4620      	mov	r0, r4
 8007afe:	f000 fa1d 	bl	8007f3c <USBD_CtlSendStatus>
 8007b02:	b11d      	cbz	r5, 8007b0c <USBD_StdDevReq+0x1b0>
 8007b04:	2302      	movs	r3, #2
 8007b06:	f884 329c 	strb.w	r3, [r4, #668]	@ 0x29c
 8007b0a:	e735      	b.n	8007978 <USBD_StdDevReq+0x1c>
 8007b0c:	2301      	movs	r3, #1
 8007b0e:	e7fa      	b.n	8007b06 <USBD_StdDevReq+0x1aa>
 8007b10:	7889      	ldrb	r1, [r1, #2]
 8007b12:	4d43      	ldr	r5, [pc, #268]	@ (8007c20 <USBD_StdDevReq+0x2c4>)
 8007b14:	2901      	cmp	r1, #1
 8007b16:	7029      	strb	r1, [r5, #0]
 8007b18:	d903      	bls.n	8007b22 <USBD_StdDevReq+0x1c6>
 8007b1a:	f7ff ff13 	bl	8007944 <USBD_CtlError.constprop.0>
 8007b1e:	2503      	movs	r5, #3
 8007b20:	e72b      	b.n	800797a <USBD_StdDevReq+0x1e>
 8007b22:	f890 329c 	ldrb.w	r3, [r0, #668]	@ 0x29c
 8007b26:	2b02      	cmp	r3, #2
 8007b28:	b2da      	uxtb	r2, r3
 8007b2a:	d008      	beq.n	8007b3e <USBD_StdDevReq+0x1e2>
 8007b2c:	2a03      	cmp	r2, #3
 8007b2e:	d015      	beq.n	8007b5c <USBD_StdDevReq+0x200>
 8007b30:	f7ff ff08 	bl	8007944 <USBD_CtlError.constprop.0>
 8007b34:	7829      	ldrb	r1, [r5, #0]
 8007b36:	4620      	mov	r0, r4
 8007b38:	f7ff fdd0 	bl	80076dc <USBD_ClrClassConfig>
 8007b3c:	e7ef      	b.n	8007b1e <USBD_StdDevReq+0x1c2>
 8007b3e:	b1a1      	cbz	r1, 8007b6a <USBD_StdDevReq+0x20e>
 8007b40:	2101      	movs	r1, #1
 8007b42:	6041      	str	r1, [r0, #4]
 8007b44:	f7ff fdc3 	bl	80076ce <USBD_SetClassConfig>
 8007b48:	4605      	mov	r5, r0
 8007b4a:	4620      	mov	r0, r4
 8007b4c:	b115      	cbz	r5, 8007b54 <USBD_StdDevReq+0x1f8>
 8007b4e:	f7ff fef9 	bl	8007944 <USBD_CtlError.constprop.0>
 8007b52:	e712      	b.n	800797a <USBD_StdDevReq+0x1e>
 8007b54:	f000 f9f2 	bl	8007f3c <USBD_CtlSendStatus>
 8007b58:	2303      	movs	r3, #3
 8007b5a:	e7d4      	b.n	8007b06 <USBD_StdDevReq+0x1aa>
 8007b5c:	b949      	cbnz	r1, 8007b72 <USBD_StdDevReq+0x216>
 8007b5e:	2302      	movs	r3, #2
 8007b60:	f880 329c 	strb.w	r3, [r0, #668]	@ 0x29c
 8007b64:	6041      	str	r1, [r0, #4]
 8007b66:	f7ff fdb9 	bl	80076dc <USBD_ClrClassConfig>
 8007b6a:	4620      	mov	r0, r4
 8007b6c:	f000 f9e6 	bl	8007f3c <USBD_CtlSendStatus>
 8007b70:	e702      	b.n	8007978 <USBD_StdDevReq+0x1c>
 8007b72:	6841      	ldr	r1, [r0, #4]
 8007b74:	2901      	cmp	r1, #1
 8007b76:	d0f8      	beq.n	8007b6a <USBD_StdDevReq+0x20e>
 8007b78:	b2c9      	uxtb	r1, r1
 8007b7a:	f7ff fdaf 	bl	80076dc <USBD_ClrClassConfig>
 8007b7e:	7829      	ldrb	r1, [r5, #0]
 8007b80:	6061      	str	r1, [r4, #4]
 8007b82:	4620      	mov	r0, r4
 8007b84:	f7ff fda3 	bl	80076ce <USBD_SetClassConfig>
 8007b88:	4605      	mov	r5, r0
 8007b8a:	2800      	cmp	r0, #0
 8007b8c:	d0ed      	beq.n	8007b6a <USBD_StdDevReq+0x20e>
 8007b8e:	4620      	mov	r0, r4
 8007b90:	f7ff fed8 	bl	8007944 <USBD_CtlError.constprop.0>
 8007b94:	7921      	ldrb	r1, [r4, #4]
 8007b96:	4620      	mov	r0, r4
 8007b98:	f7ff fda0 	bl	80076dc <USBD_ClrClassConfig>
 8007b9c:	2302      	movs	r3, #2
 8007b9e:	f884 329c 	strb.w	r3, [r4, #668]	@ 0x29c
 8007ba2:	e6ea      	b.n	800797a <USBD_StdDevReq+0x1e>
 8007ba4:	88ca      	ldrh	r2, [r1, #6]
 8007ba6:	2a01      	cmp	r2, #1
 8007ba8:	f47f aee3 	bne.w	8007972 <USBD_StdDevReq+0x16>
 8007bac:	f890 129c 	ldrb.w	r1, [r0, #668]	@ 0x29c
 8007bb0:	2902      	cmp	r1, #2
 8007bb2:	b2cb      	uxtb	r3, r1
 8007bb4:	d807      	bhi.n	8007bc6 <USBD_StdDevReq+0x26a>
 8007bb6:	2b00      	cmp	r3, #0
 8007bb8:	f43f aedb 	beq.w	8007972 <USBD_StdDevReq+0x16>
 8007bbc:	4601      	mov	r1, r0
 8007bbe:	2300      	movs	r3, #0
 8007bc0:	f841 3f08 	str.w	r3, [r1, #8]!
 8007bc4:	e72f      	b.n	8007a26 <USBD_StdDevReq+0xca>
 8007bc6:	2b03      	cmp	r3, #3
 8007bc8:	f47f aed3 	bne.w	8007972 <USBD_StdDevReq+0x16>
 8007bcc:	1d01      	adds	r1, r0, #4
 8007bce:	e72a      	b.n	8007a26 <USBD_StdDevReq+0xca>
 8007bd0:	f890 329c 	ldrb.w	r3, [r0, #668]	@ 0x29c
 8007bd4:	3b01      	subs	r3, #1
 8007bd6:	2b02      	cmp	r3, #2
 8007bd8:	f63f aecb 	bhi.w	8007972 <USBD_StdDevReq+0x16>
 8007bdc:	88ca      	ldrh	r2, [r1, #6]
 8007bde:	2a02      	cmp	r2, #2
 8007be0:	f47f aec7 	bne.w	8007972 <USBD_StdDevReq+0x16>
 8007be4:	f8d0 32a4 	ldr.w	r3, [r0, #676]	@ 0x2a4
 8007be8:	4601      	mov	r1, r0
 8007bea:	2b00      	cmp	r3, #0
 8007bec:	bf0c      	ite	eq
 8007bee:	2301      	moveq	r3, #1
 8007bf0:	2303      	movne	r3, #3
 8007bf2:	f841 3f0c 	str.w	r3, [r1, #12]!
 8007bf6:	e716      	b.n	8007a26 <USBD_StdDevReq+0xca>
 8007bf8:	884b      	ldrh	r3, [r1, #2]
 8007bfa:	2b01      	cmp	r3, #1
 8007bfc:	f47f aebc 	bne.w	8007978 <USBD_StdDevReq+0x1c>
 8007c00:	f8c4 32a4 	str.w	r3, [r4, #676]	@ 0x2a4
 8007c04:	e7b1      	b.n	8007b6a <USBD_StdDevReq+0x20e>
 8007c06:	f890 329c 	ldrb.w	r3, [r0, #668]	@ 0x29c
 8007c0a:	3b01      	subs	r3, #1
 8007c0c:	2b02      	cmp	r3, #2
 8007c0e:	f63f aeb0 	bhi.w	8007972 <USBD_StdDevReq+0x16>
 8007c12:	884b      	ldrh	r3, [r1, #2]
 8007c14:	2b01      	cmp	r3, #1
 8007c16:	f47f aeaf 	bne.w	8007978 <USBD_StdDevReq+0x1c>
 8007c1a:	2300      	movs	r3, #0
 8007c1c:	e7f0      	b.n	8007c00 <USBD_StdDevReq+0x2a4>
 8007c1e:	bf00      	nop
 8007c20:	20009994 	.word	0x20009994

08007c24 <USBD_StdItfReq>:
 8007c24:	b570      	push	{r4, r5, r6, lr}
 8007c26:	780b      	ldrb	r3, [r1, #0]
 8007c28:	f003 0260 	and.w	r2, r3, #96	@ 0x60
 8007c2c:	065b      	lsls	r3, r3, #25
 8007c2e:	4604      	mov	r4, r0
 8007c30:	460d      	mov	r5, r1
 8007c32:	d501      	bpl.n	8007c38 <USBD_StdItfReq+0x14>
 8007c34:	2a40      	cmp	r2, #64	@ 0x40
 8007c36:	d116      	bne.n	8007c66 <USBD_StdItfReq+0x42>
 8007c38:	f894 329c 	ldrb.w	r3, [r4, #668]	@ 0x29c
 8007c3c:	3b01      	subs	r3, #1
 8007c3e:	2b02      	cmp	r3, #2
 8007c40:	d811      	bhi.n	8007c66 <USBD_StdItfReq+0x42>
 8007c42:	792b      	ldrb	r3, [r5, #4]
 8007c44:	2b0f      	cmp	r3, #15
 8007c46:	d80e      	bhi.n	8007c66 <USBD_StdItfReq+0x42>
 8007c48:	f8d4 32b8 	ldr.w	r3, [r4, #696]	@ 0x2b8
 8007c4c:	4629      	mov	r1, r5
 8007c4e:	689b      	ldr	r3, [r3, #8]
 8007c50:	4620      	mov	r0, r4
 8007c52:	4798      	blx	r3
 8007c54:	88eb      	ldrh	r3, [r5, #6]
 8007c56:	4606      	mov	r6, r0
 8007c58:	b91b      	cbnz	r3, 8007c62 <USBD_StdItfReq+0x3e>
 8007c5a:	b910      	cbnz	r0, 8007c62 <USBD_StdItfReq+0x3e>
 8007c5c:	4620      	mov	r0, r4
 8007c5e:	f000 f96d 	bl	8007f3c <USBD_CtlSendStatus>
 8007c62:	4630      	mov	r0, r6
 8007c64:	bd70      	pop	{r4, r5, r6, pc}
 8007c66:	4620      	mov	r0, r4
 8007c68:	f7ff fe6c 	bl	8007944 <USBD_CtlError.constprop.0>
 8007c6c:	2600      	movs	r6, #0
 8007c6e:	e7f8      	b.n	8007c62 <USBD_StdItfReq+0x3e>

08007c70 <USBD_StdEPReq>:
 8007c70:	b570      	push	{r4, r5, r6, lr}
 8007c72:	780b      	ldrb	r3, [r1, #0]
 8007c74:	888a      	ldrh	r2, [r1, #4]
 8007c76:	f003 0360 	and.w	r3, r3, #96	@ 0x60
 8007c7a:	2b20      	cmp	r3, #32
 8007c7c:	4604      	mov	r4, r0
 8007c7e:	460d      	mov	r5, r1
 8007c80:	d056      	beq.n	8007d30 <USBD_StdEPReq+0xc0>
 8007c82:	2b40      	cmp	r3, #64	@ 0x40
 8007c84:	d054      	beq.n	8007d30 <USBD_StdEPReq+0xc0>
 8007c86:	b11b      	cbz	r3, 8007c90 <USBD_StdEPReq+0x20>
 8007c88:	4620      	mov	r0, r4
 8007c8a:	f7ff fe5b 	bl	8007944 <USBD_CtlError.constprop.0>
 8007c8e:	e03c      	b.n	8007d0a <USBD_StdEPReq+0x9a>
 8007c90:	786b      	ldrb	r3, [r5, #1]
 8007c92:	2b01      	cmp	r3, #1
 8007c94:	b2d1      	uxtb	r1, r2
 8007c96:	d03a      	beq.n	8007d0e <USBD_StdEPReq+0x9e>
 8007c98:	2b03      	cmp	r3, #3
 8007c9a:	d024      	beq.n	8007ce6 <USBD_StdEPReq+0x76>
 8007c9c:	2b00      	cmp	r3, #0
 8007c9e:	d1f3      	bne.n	8007c88 <USBD_StdEPReq+0x18>
 8007ca0:	f890 329c 	ldrb.w	r3, [r0, #668]	@ 0x29c
 8007ca4:	2b02      	cmp	r3, #2
 8007ca6:	b2d8      	uxtb	r0, r3
 8007ca8:	d053      	beq.n	8007d52 <USBD_StdEPReq+0xe2>
 8007caa:	2803      	cmp	r0, #3
 8007cac:	d1ec      	bne.n	8007c88 <USBD_StdEPReq+0x18>
 8007cae:	f001 030f 	and.w	r3, r1, #15
 8007cb2:	f012 0f80 	tst.w	r2, #128	@ 0x80
 8007cb6:	f04f 0214 	mov.w	r2, #20
 8007cba:	fb02 4303 	mla	r3, r2, r3, r4
 8007cbe:	d057      	beq.n	8007d70 <USBD_StdEPReq+0x100>
 8007cc0:	8c9b      	ldrh	r3, [r3, #36]	@ 0x24
 8007cc2:	2b00      	cmp	r3, #0
 8007cc4:	d0e0      	beq.n	8007c88 <USBD_StdEPReq+0x18>
 8007cc6:	f001 057f 	and.w	r5, r1, #127	@ 0x7f
 8007cca:	3501      	adds	r5, #1
 8007ccc:	eb05 0585 	add.w	r5, r5, r5, lsl #2
 8007cd0:	2980      	cmp	r1, #128	@ 0x80
 8007cd2:	eb04 0585 	add.w	r5, r4, r5, lsl #2
 8007cd6:	d056      	beq.n	8007d86 <USBD_StdEPReq+0x116>
 8007cd8:	4620      	mov	r0, r4
 8007cda:	f7ff fc65 	bl	80075a8 <USBD_LL_IsStallEP>
 8007cde:	2800      	cmp	r0, #0
 8007ce0:	d056      	beq.n	8007d90 <USBD_StdEPReq+0x120>
 8007ce2:	2301      	movs	r3, #1
 8007ce4:	e050      	b.n	8007d88 <USBD_StdEPReq+0x118>
 8007ce6:	f890 329c 	ldrb.w	r3, [r0, #668]	@ 0x29c
 8007cea:	2b02      	cmp	r3, #2
 8007cec:	b2da      	uxtb	r2, r3
 8007cee:	d027      	beq.n	8007d40 <USBD_StdEPReq+0xd0>
 8007cf0:	2a03      	cmp	r2, #3
 8007cf2:	d1c9      	bne.n	8007c88 <USBD_StdEPReq+0x18>
 8007cf4:	886b      	ldrh	r3, [r5, #2]
 8007cf6:	b92b      	cbnz	r3, 8007d04 <USBD_StdEPReq+0x94>
 8007cf8:	064a      	lsls	r2, r1, #25
 8007cfa:	d003      	beq.n	8007d04 <USBD_StdEPReq+0x94>
 8007cfc:	88eb      	ldrh	r3, [r5, #6]
 8007cfe:	b90b      	cbnz	r3, 8007d04 <USBD_StdEPReq+0x94>
 8007d00:	f7ff fc8d 	bl	800761e <USBD_LL_StallEP>
 8007d04:	4620      	mov	r0, r4
 8007d06:	f000 f919 	bl	8007f3c <USBD_CtlSendStatus>
 8007d0a:	2000      	movs	r0, #0
 8007d0c:	bd70      	pop	{r4, r5, r6, pc}
 8007d0e:	f890 329c 	ldrb.w	r3, [r0, #668]	@ 0x29c
 8007d12:	2b02      	cmp	r3, #2
 8007d14:	b2da      	uxtb	r2, r3
 8007d16:	d013      	beq.n	8007d40 <USBD_StdEPReq+0xd0>
 8007d18:	2a03      	cmp	r2, #3
 8007d1a:	d1b5      	bne.n	8007c88 <USBD_StdEPReq+0x18>
 8007d1c:	886b      	ldrh	r3, [r5, #2]
 8007d1e:	2b00      	cmp	r3, #0
 8007d20:	d1f3      	bne.n	8007d0a <USBD_StdEPReq+0x9a>
 8007d22:	064e      	lsls	r6, r1, #25
 8007d24:	d001      	beq.n	8007d2a <USBD_StdEPReq+0xba>
 8007d26:	f7ff fc83 	bl	8007630 <USBD_LL_ClearStallEP>
 8007d2a:	4620      	mov	r0, r4
 8007d2c:	f000 f906 	bl	8007f3c <USBD_CtlSendStatus>
 8007d30:	f8d4 32b8 	ldr.w	r3, [r4, #696]	@ 0x2b8
 8007d34:	4629      	mov	r1, r5
 8007d36:	4620      	mov	r0, r4
 8007d38:	689b      	ldr	r3, [r3, #8]
 8007d3a:	e8bd 4070 	ldmia.w	sp!, {r4, r5, r6, lr}
 8007d3e:	4718      	bx	r3
 8007d40:	064b      	lsls	r3, r1, #25
 8007d42:	d0a1      	beq.n	8007c88 <USBD_StdEPReq+0x18>
 8007d44:	f7ff fc6b 	bl	800761e <USBD_LL_StallEP>
 8007d48:	2180      	movs	r1, #128	@ 0x80
 8007d4a:	4620      	mov	r0, r4
 8007d4c:	f7ff fc67 	bl	800761e <USBD_LL_StallEP>
 8007d50:	e7db      	b.n	8007d0a <USBD_StdEPReq+0x9a>
 8007d52:	0649      	lsls	r1, r1, #25
 8007d54:	d198      	bne.n	8007c88 <USBD_StdEPReq+0x18>
 8007d56:	0613      	lsls	r3, r2, #24
 8007d58:	bf4c      	ite	mi
 8007d5a:	f104 0114 	addmi.w	r1, r4, #20
 8007d5e:	f504 71aa 	addpl.w	r1, r4, #340	@ 0x154
 8007d62:	2300      	movs	r3, #0
 8007d64:	600b      	str	r3, [r1, #0]
 8007d66:	2202      	movs	r2, #2
 8007d68:	4620      	mov	r0, r4
 8007d6a:	f000 f8bd 	bl	8007ee8 <USBD_CtlSendData>
 8007d6e:	e7cc      	b.n	8007d0a <USBD_StdEPReq+0x9a>
 8007d70:	f8b3 3164 	ldrh.w	r3, [r3, #356]	@ 0x164
 8007d74:	2b00      	cmp	r3, #0
 8007d76:	d087      	beq.n	8007c88 <USBD_StdEPReq+0x18>
 8007d78:	2514      	movs	r5, #20
 8007d7a:	fb05 4501 	mla	r5, r5, r1, r4
 8007d7e:	f505 75aa 	add.w	r5, r5, #340	@ 0x154
 8007d82:	2900      	cmp	r1, #0
 8007d84:	d1a8      	bne.n	8007cd8 <USBD_StdEPReq+0x68>
 8007d86:	2300      	movs	r3, #0
 8007d88:	602b      	str	r3, [r5, #0]
 8007d8a:	2202      	movs	r2, #2
 8007d8c:	4629      	mov	r1, r5
 8007d8e:	e7eb      	b.n	8007d68 <USBD_StdEPReq+0xf8>
 8007d90:	6028      	str	r0, [r5, #0]
 8007d92:	e7fa      	b.n	8007d8a <USBD_StdEPReq+0x11a>

08007d94 <USBD_ParseSetupRequest>:
 8007d94:	780b      	ldrb	r3, [r1, #0]
 8007d96:	7003      	strb	r3, [r0, #0]
 8007d98:	784b      	ldrb	r3, [r1, #1]
 8007d9a:	7043      	strb	r3, [r0, #1]
 8007d9c:	884b      	ldrh	r3, [r1, #2]
 8007d9e:	8043      	strh	r3, [r0, #2]
 8007da0:	888b      	ldrh	r3, [r1, #4]
 8007da2:	8083      	strh	r3, [r0, #4]
 8007da4:	88cb      	ldrh	r3, [r1, #6]
 8007da6:	80c3      	strh	r3, [r0, #6]
 8007da8:	4770      	bx	lr

08007daa <USBD_CtlError>:
 8007daa:	b510      	push	{r4, lr}
 8007dac:	2180      	movs	r1, #128	@ 0x80
 8007dae:	4604      	mov	r4, r0
 8007db0:	f7ff fc35 	bl	800761e <USBD_LL_StallEP>
 8007db4:	4620      	mov	r0, r4
 8007db6:	2100      	movs	r1, #0
 8007db8:	e8bd 4010 	ldmia.w	sp!, {r4, lr}
 8007dbc:	f7ff bc2f 	b.w	800761e <USBD_LL_StallEP>

08007dc0 <USBD_GetString>:
 8007dc0:	b570      	push	{r4, r5, r6, lr}
 8007dc2:	460d      	mov	r5, r1
 8007dc4:	4616      	mov	r6, r2
 8007dc6:	4604      	mov	r4, r0
 8007dc8:	b170      	cbz	r0, 8007de8 <USBD_GetString+0x28>
 8007dca:	f7f8 fa09 	bl	80001e0 <strlen>
 8007dce:	b2c3      	uxtb	r3, r0
 8007dd0:	3301      	adds	r3, #1
 8007dd2:	005b      	lsls	r3, r3, #1
 8007dd4:	8033      	strh	r3, [r6, #0]
 8007dd6:	702b      	strb	r3, [r5, #0]
 8007dd8:	2303      	movs	r3, #3
 8007dda:	706b      	strb	r3, [r5, #1]
 8007ddc:	3c01      	subs	r4, #1
 8007dde:	2302      	movs	r3, #2
 8007de0:	2100      	movs	r1, #0
 8007de2:	f814 2f01 	ldrb.w	r2, [r4, #1]!
 8007de6:	b902      	cbnz	r2, 8007dea <USBD_GetString+0x2a>
 8007de8:	bd70      	pop	{r4, r5, r6, pc}
 8007dea:	54ea      	strb	r2, [r5, r3]
 8007dec:	1c5a      	adds	r2, r3, #1
 8007dee:	b2d2      	uxtb	r2, r2
 8007df0:	3302      	adds	r3, #2
 8007df2:	54a9      	strb	r1, [r5, r2]
 8007df4:	b2db      	uxtb	r3, r3
 8007df6:	e7f4      	b.n	8007de2 <USBD_GetString+0x22>

08007df8 <USBD_DeviceDescriptor>:
 8007df8:	2312      	movs	r3, #18
 8007dfa:	4801      	ldr	r0, [pc, #4]	@ (8007e00 <USBD_DeviceDescriptor+0x8>)
 8007dfc:	800b      	strh	r3, [r1, #0]
 8007dfe:	4770      	bx	lr
 8007e00:	20000398 	.word	0x20000398

08007e04 <USBD_LangIDStrDescriptor>:
 8007e04:	2304      	movs	r3, #4
 8007e06:	4801      	ldr	r0, [pc, #4]	@ (8007e0c <USBD_LangIDStrDescriptor+0x8>)
 8007e08:	800b      	strh	r3, [r1, #0]
 8007e0a:	4770      	bx	lr
 8007e0c:	20000394 	.word	0x20000394

08007e10 <IntToUnicode>:
 8007e10:	2300      	movs	r3, #0
 8007e12:	b570      	push	{r4, r5, r6, lr}
 8007e14:	1c4d      	adds	r5, r1, #1
 8007e16:	461e      	mov	r6, r3
 8007e18:	0f04      	lsrs	r4, r0, #28
 8007e1a:	f1b0 4f20 	cmp.w	r0, #2684354560	@ 0xa0000000
 8007e1e:	bf34      	ite	cc
 8007e20:	3430      	addcc	r4, #48	@ 0x30
 8007e22:	3437      	addcs	r4, #55	@ 0x37
 8007e24:	f801 4013 	strb.w	r4, [r1, r3, lsl #1]
 8007e28:	f805 6013 	strb.w	r6, [r5, r3, lsl #1]
 8007e2c:	3301      	adds	r3, #1
 8007e2e:	b2dc      	uxtb	r4, r3
 8007e30:	42a2      	cmp	r2, r4
 8007e32:	ea4f 1000 	mov.w	r0, r0, lsl #4
 8007e36:	d8ef      	bhi.n	8007e18 <IntToUnicode+0x8>
 8007e38:	bd70      	pop	{r4, r5, r6, pc}
	...

08007e3c <USBD_SerialStrDescriptor>:
 8007e3c:	231a      	movs	r3, #26
 8007e3e:	b510      	push	{r4, lr}
 8007e40:	800b      	strh	r3, [r1, #0]
 8007e42:	4b0a      	ldr	r3, [pc, #40]	@ (8007e6c <USBD_SerialStrDescriptor+0x30>)
 8007e44:	f8d3 0a10 	ldr.w	r0, [r3, #2576]	@ 0xa10
 8007e48:	f8d3 2a18 	ldr.w	r2, [r3, #2584]	@ 0xa18
 8007e4c:	1880      	adds	r0, r0, r2
 8007e4e:	d00a      	beq.n	8007e66 <USBD_SerialStrDescriptor+0x2a>
 8007e50:	f8d3 4a14 	ldr.w	r4, [r3, #2580]	@ 0xa14
 8007e54:	4906      	ldr	r1, [pc, #24]	@ (8007e70 <USBD_SerialStrDescriptor+0x34>)
 8007e56:	2208      	movs	r2, #8
 8007e58:	f7ff ffda 	bl	8007e10 <IntToUnicode>
 8007e5c:	2204      	movs	r2, #4
 8007e5e:	3110      	adds	r1, #16
 8007e60:	4620      	mov	r0, r4
 8007e62:	f7ff ffd5 	bl	8007e10 <IntToUnicode>
 8007e66:	4803      	ldr	r0, [pc, #12]	@ (8007e74 <USBD_SerialStrDescriptor+0x38>)
 8007e68:	bd10      	pop	{r4, pc}
 8007e6a:	bf00      	nop
 8007e6c:	1fff7000 	.word	0x1fff7000
 8007e70:	2000037a 	.word	0x2000037a
 8007e74:	20000378 	.word	0x20000378

08007e78 <USBD_ManufacturerStrDescriptor>:
 8007e78:	b510      	push	{r4, lr}
 8007e7a:	4c04      	ldr	r4, [pc, #16]	@ (8007e8c <USBD_ManufacturerStrDescriptor+0x14>)
 8007e7c:	4804      	ldr	r0, [pc, #16]	@ (8007e90 <USBD_ManufacturerStrDescriptor+0x18>)
 8007e7e:	460a      	mov	r2, r1
 8007e80:	4621      	mov	r1, r4
 8007e82:	f7ff ff9d 	bl	8007dc0 <USBD_GetString>
 8007e86:	4620      	mov	r0, r4
 8007e88:	bd10      	pop	{r4, pc}
 8007e8a:	bf00      	nop
 8007e8c:	20009998 	.word	0x20009998
 8007e90:	0800ac1d 	.word	0x0800ac1d

08007e94 <USBD_ProductStrDescriptor>:
 8007e94:	b510      	push	{r4, lr}
 8007e96:	4c04      	ldr	r4, [pc, #16]	@ (8007ea8 <USBD_ProductStrDescriptor+0x14>)
 8007e98:	4804      	ldr	r0, [pc, #16]	@ (8007eac <USBD_ProductStrDescriptor+0x18>)
 8007e9a:	460a      	mov	r2, r1
 8007e9c:	4621      	mov	r1, r4
 8007e9e:	f7ff ff8f 	bl	8007dc0 <USBD_GetString>
 8007ea2:	4620      	mov	r0, r4
 8007ea4:	bd10      	pop	{r4, pc}
 8007ea6:	bf00      	nop
 8007ea8:	20009998 	.word	0x20009998
 8007eac:	0800ac30 	.word	0x0800ac30

08007eb0 <USBD_ConfigStrDescriptor>:
 8007eb0:	b510      	push	{r4, lr}
 8007eb2:	4c04      	ldr	r4, [pc, #16]	@ (8007ec4 <USBD_ConfigStrDescriptor+0x14>)
 8007eb4:	4804      	ldr	r0, [pc, #16]	@ (8007ec8 <USBD_ConfigStrDescriptor+0x18>)
 8007eb6:	460a      	mov	r2, r1
 8007eb8:	4621      	mov	r1, r4
 8007eba:	f7ff ff81 	bl	8007dc0 <USBD_GetString>
 8007ebe:	4620      	mov	r0, r4
 8007ec0:	bd10      	pop	{r4, pc}
 8007ec2:	bf00      	nop
 8007ec4:	20009998 	.word	0x20009998
 8007ec8:	0800ac47 	.word	0x0800ac47

08007ecc <USBD_InterfaceStrDescriptor>:
 8007ecc:	b510      	push	{r4, lr}
 8007ece:	4c04      	ldr	r4, [pc, #16]	@ (8007ee0 <USBD_InterfaceStrDescriptor+0x14>)
 8007ed0:	4804      	ldr	r0, [pc, #16]	@ (8007ee4 <USBD_InterfaceStrDescriptor+0x18>)
 8007ed2:	460a      	mov	r2, r1
 8007ed4:	4621      	mov	r1, r4
 8007ed6:	f7ff ff73 	bl	8007dc0 <USBD_GetString>
 8007eda:	4620      	mov	r0, r4
 8007edc:	bd10      	pop	{r4, pc}
 8007ede:	bf00      	nop
 8007ee0:	20009998 	.word	0x20009998
 8007ee4:	0800ac57 	.word	0x0800ac57

08007ee8 <USBD_CtlSendData>:
 8007ee8:	b510      	push	{r4, lr}
 8007eea:	4613      	mov	r3, r2
 8007eec:	2202      	movs	r2, #2
 8007eee:	e9c0 3306 	strd	r3, r3, [r0, #24]
 8007ef2:	f8c0 2294 	str.w	r2, [r0, #660]	@ 0x294
 8007ef6:	460a      	mov	r2, r1
 8007ef8:	2100      	movs	r1, #0
 8007efa:	f7ff fbab 	bl	8007654 <USBD_LL_Transmit>
 8007efe:	2000      	movs	r0, #0
 8007f00:	bd10      	pop	{r4, pc}

08007f02 <USBD_CtlContinueSendData>:
 8007f02:	b508      	push	{r3, lr}
 8007f04:	4613      	mov	r3, r2
 8007f06:	460a      	mov	r2, r1
 8007f08:	2100      	movs	r1, #0
 8007f0a:	f7ff fba3 	bl	8007654 <USBD_LL_Transmit>
 8007f0e:	2000      	movs	r0, #0
 8007f10:	bd08      	pop	{r3, pc}

08007f12 <USBD_CtlPrepareRx>:
 8007f12:	b510      	push	{r4, lr}
 8007f14:	4613      	mov	r3, r2
 8007f16:	2203      	movs	r2, #3
 8007f18:	e9c0 3356 	strd	r3, r3, [r0, #344]	@ 0x158
 8007f1c:	f8c0 2294 	str.w	r2, [r0, #660]	@ 0x294
 8007f20:	460a      	mov	r2, r1
 8007f22:	2100      	movs	r1, #0
 8007f24:	f7ff fb9f 	bl	8007666 <USBD_LL_PrepareReceive>
 8007f28:	2000      	movs	r0, #0
 8007f2a:	bd10      	pop	{r4, pc}

08007f2c <USBD_CtlContinueRx>:
 8007f2c:	b508      	push	{r3, lr}
 8007f2e:	4613      	mov	r3, r2
 8007f30:	460a      	mov	r2, r1
 8007f32:	2100      	movs	r1, #0
 8007f34:	f7ff fb97 	bl	8007666 <USBD_LL_PrepareReceive>
 8007f38:	2000      	movs	r0, #0
 8007f3a:	bd08      	pop	{r3, pc}

08007f3c <USBD_CtlSendStatus>:
 8007f3c:	b508      	push	{r3, lr}
 8007f3e:	2204      	movs	r2, #4
 8007f40:	2300      	movs	r3, #0
 8007f42:	f8c0 2294 	str.w	r2, [r0, #660]	@ 0x294
 8007f46:	4619      	mov	r1, r3
 8007f48:	461a      	mov	r2, r3
 8007f4a:	f7ff fb83 	bl	8007654 <USBD_LL_Transmit>
 8007f4e:	2000      	movs	r0, #0
 8007f50:	bd08      	pop	{r3, pc}

08007f52 <USBD_CtlReceiveStatus>:
 8007f52:	b508      	push	{r3, lr}
 8007f54:	2205      	movs	r2, #5
 8007f56:	2300      	movs	r3, #0
 8007f58:	f8c0 2294 	str.w	r2, [r0, #660]	@ 0x294
 8007f5c:	4619      	mov	r1, r3
 8007f5e:	461a      	mov	r2, r3
 8007f60:	f7ff fb81 	bl	8007666 <USBD_LL_PrepareReceive>
 8007f64:	2000      	movs	r0, #0
 8007f66:	bd08      	pop	{r3, pc}

08007f68 <USBD_CUSTOM_HID_GetFSCfgDesc>:
 8007f68:	2329      	movs	r3, #41	@ 0x29
 8007f6a:	8003      	strh	r3, [r0, #0]
 8007f6c:	4800      	ldr	r0, [pc, #0]	@ (8007f70 <USBD_CUSTOM_HID_GetFSCfgDesc+0x8>)
 8007f6e:	4770      	bx	lr
 8007f70:	20000438 	.word	0x20000438

08007f74 <USBD_CUSTOM_HID_GetHSCfgDesc>:
 8007f74:	2329      	movs	r3, #41	@ 0x29
 8007f76:	8003      	strh	r3, [r0, #0]
 8007f78:	4800      	ldr	r0, [pc, #0]	@ (8007f7c <USBD_CUSTOM_HID_GetHSCfgDesc+0x8>)
 8007f7a:	4770      	bx	lr
 8007f7c:	2000040c 	.word	0x2000040c

08007f80 <USBD_CUSTOM_HID_GetOtherSpeedCfgDesc>:
 8007f80:	2329      	movs	r3, #41	@ 0x29
 8007f82:	8003      	strh	r3, [r0, #0]
 8007f84:	4800      	ldr	r0, [pc, #0]	@ (8007f88 <USBD_CUSTOM_HID_GetOtherSpeedCfgDesc+0x8>)
 8007f86:	4770      	bx	lr
 8007f88:	200003e0 	.word	0x200003e0

08007f8c <USBD_CUSTOM_HID_DataIn>:
 8007f8c:	f8d0 32d8 	ldr.w	r3, [r0, #728]	@ 0x2d8
 8007f90:	2000      	movs	r0, #0
 8007f92:	7518      	strb	r0, [r3, #20]
 8007f94:	4770      	bx	lr

08007f96 <USBD_CUSTOM_HID_DataOut>:
 8007f96:	b508      	push	{r3, lr}
 8007f98:	f8d0 32d8 	ldr.w	r3, [r0, #728]	@ 0x2d8
 8007f9c:	b13b      	cbz	r3, 8007fae <USBD_CUSTOM_HID_DataOut+0x18>
 8007f9e:	f8d0 22dc 	ldr.w	r2, [r0, #732]	@ 0x2dc
 8007fa2:	7859      	ldrb	r1, [r3, #1]
 8007fa4:	68d2      	ldr	r2, [r2, #12]
 8007fa6:	7818      	ldrb	r0, [r3, #0]
 8007fa8:	4790      	blx	r2
 8007faa:	2000      	movs	r0, #0
 8007fac:	bd08      	pop	{r3, pc}
 8007fae:	2003      	movs	r0, #3
 8007fb0:	e7fc      	b.n	8007fac <USBD_CUSTOM_HID_DataOut+0x16>

08007fb2 <USBD_CUSTOM_HID_EP0_RxReady>:
 8007fb2:	b510      	push	{r4, lr}
 8007fb4:	f8d0 42d8 	ldr.w	r4, [r0, #728]	@ 0x2d8
 8007fb8:	b16c      	cbz	r4, 8007fd6 <USBD_CUSTOM_HID_EP0_RxReady+0x24>
 8007fba:	6923      	ldr	r3, [r4, #16]
 8007fbc:	2b01      	cmp	r3, #1
 8007fbe:	d001      	beq.n	8007fc4 <USBD_CUSTOM_HID_EP0_RxReady+0x12>
 8007fc0:	2000      	movs	r0, #0
 8007fc2:	bd10      	pop	{r4, pc}
 8007fc4:	f8d0 32dc 	ldr.w	r3, [r0, #732]	@ 0x2dc
 8007fc8:	7861      	ldrb	r1, [r4, #1]
 8007fca:	68db      	ldr	r3, [r3, #12]
 8007fcc:	7820      	ldrb	r0, [r4, #0]
 8007fce:	4798      	blx	r3
 8007fd0:	2300      	movs	r3, #0
 8007fd2:	6123      	str	r3, [r4, #16]
 8007fd4:	e7f4      	b.n	8007fc0 <USBD_CUSTOM_HID_EP0_RxReady+0xe>
 8007fd6:	2003      	movs	r0, #3
 8007fd8:	e7f3      	b.n	8007fc2 <USBD_CUSTOM_HID_EP0_RxReady+0x10>
	...

08007fdc <USBD_CUSTOM_HID_GetDeviceQualifierDesc>:
 8007fdc:	230a      	movs	r3, #10
 8007fde:	8003      	strh	r3, [r0, #0]
 8007fe0:	4800      	ldr	r0, [pc, #0]	@ (8007fe4 <USBD_CUSTOM_HID_GetDeviceQualifierDesc+0x8>)
 8007fe2:	4770      	bx	lr
 8007fe4:	200003c8 	.word	0x200003c8

08007fe8 <USBD_CUSTOM_HID_Setup>:
 8007fe8:	b513      	push	{r0, r1, r4, lr}
 8007fea:	f8d0 32d8 	ldr.w	r3, [r0, #728]	@ 0x2d8
 8007fee:	2200      	movs	r2, #0
 8007ff0:	f8ad 2006 	strh.w	r2, [sp, #6]
 8007ff4:	2b00      	cmp	r3, #0
 8007ff6:	d051      	beq.n	800809c <USBD_CUSTOM_HID_Setup+0xb4>
 8007ff8:	780a      	ldrb	r2, [r1, #0]
 8007ffa:	f012 0260 	ands.w	r2, r2, #96	@ 0x60
 8007ffe:	d025      	beq.n	800804c <USBD_CUSTOM_HID_Setup+0x64>
 8008000:	2a20      	cmp	r2, #32
 8008002:	d149      	bne.n	8008098 <USBD_CUSTOM_HID_Setup+0xb0>
 8008004:	784a      	ldrb	r2, [r1, #1]
 8008006:	3a02      	subs	r2, #2
 8008008:	2a09      	cmp	r2, #9
 800800a:	d845      	bhi.n	8008098 <USBD_CUSTOM_HID_Setup+0xb0>
 800800c:	e8df f002 	tbb	[pc, r2]
 8008010:	44440a13 	.word	0x44440a13
 8008014:	17444444 	.word	0x17444444
 8008018:	050f      	.short	0x050f
 800801a:	788a      	ldrb	r2, [r1, #2]
 800801c:	605a      	str	r2, [r3, #4]
 800801e:	2000      	movs	r0, #0
 8008020:	b002      	add	sp, #8
 8008022:	bd10      	pop	{r4, pc}
 8008024:	2201      	movs	r2, #1
 8008026:	1d19      	adds	r1, r3, #4
 8008028:	f7ff ff5e 	bl	8007ee8 <USBD_CtlSendData>
 800802c:	e7f7      	b.n	800801e <USBD_CUSTOM_HID_Setup+0x36>
 800802e:	884a      	ldrh	r2, [r1, #2]
 8008030:	0a12      	lsrs	r2, r2, #8
 8008032:	609a      	str	r2, [r3, #8]
 8008034:	e7f3      	b.n	800801e <USBD_CUSTOM_HID_Setup+0x36>
 8008036:	2201      	movs	r2, #1
 8008038:	f103 0108 	add.w	r1, r3, #8
 800803c:	e7f4      	b.n	8008028 <USBD_CUSTOM_HID_Setup+0x40>
 800803e:	2201      	movs	r2, #1
 8008040:	611a      	str	r2, [r3, #16]
 8008042:	88ca      	ldrh	r2, [r1, #6]
 8008044:	4619      	mov	r1, r3
 8008046:	f7ff ff64 	bl	8007f12 <USBD_CtlPrepareRx>
 800804a:	e7e8      	b.n	800801e <USBD_CUSTOM_HID_Setup+0x36>
 800804c:	784a      	ldrb	r2, [r1, #1]
 800804e:	2a0b      	cmp	r2, #11
 8008050:	d822      	bhi.n	8008098 <USBD_CUSTOM_HID_Setup+0xb0>
 8008052:	a401      	add	r4, pc, #4	@ (adr r4, 8008058 <USBD_CUSTOM_HID_Setup+0x70>)
 8008054:	f854 f022 	ldr.w	pc, [r4, r2, lsl #2]
 8008058:	08008089 	.word	0x08008089
 800805c:	0800801f 	.word	0x0800801f
 8008060:	08008099 	.word	0x08008099
 8008064:	08008099 	.word	0x08008099
 8008068:	08008099 	.word	0x08008099
 800806c:	08008099 	.word	0x08008099
 8008070:	080080a1 	.word	0x080080a1
 8008074:	08008099 	.word	0x08008099
 8008078:	08008099 	.word	0x08008099
 800807c:	08008099 	.word	0x08008099
 8008080:	080080cf 	.word	0x080080cf
 8008084:	080080df 	.word	0x080080df
 8008088:	f890 329c 	ldrb.w	r3, [r0, #668]	@ 0x29c
 800808c:	2b03      	cmp	r3, #3
 800808e:	d103      	bne.n	8008098 <USBD_CUSTOM_HID_Setup+0xb0>
 8008090:	2202      	movs	r2, #2
 8008092:	f10d 0106 	add.w	r1, sp, #6
 8008096:	e7c7      	b.n	8008028 <USBD_CUSTOM_HID_Setup+0x40>
 8008098:	f7ff fe87 	bl	8007daa <USBD_CtlError>
 800809c:	2003      	movs	r0, #3
 800809e:	e7bf      	b.n	8008020 <USBD_CUSTOM_HID_Setup+0x38>
 80080a0:	884b      	ldrh	r3, [r1, #2]
 80080a2:	0a1b      	lsrs	r3, r3, #8
 80080a4:	2b22      	cmp	r3, #34	@ 0x22
 80080a6:	d107      	bne.n	80080b8 <USBD_CUSTOM_HID_Setup+0xd0>
 80080a8:	88ca      	ldrh	r2, [r1, #6]
 80080aa:	f8d0 32dc 	ldr.w	r3, [r0, #732]	@ 0x2dc
 80080ae:	2a63      	cmp	r2, #99	@ 0x63
 80080b0:	6819      	ldr	r1, [r3, #0]
 80080b2:	bf28      	it	cs
 80080b4:	2263      	movcs	r2, #99	@ 0x63
 80080b6:	e7b7      	b.n	8008028 <USBD_CUSTOM_HID_Setup+0x40>
 80080b8:	2b21      	cmp	r3, #33	@ 0x21
 80080ba:	d105      	bne.n	80080c8 <USBD_CUSTOM_HID_Setup+0xe0>
 80080bc:	88ca      	ldrh	r2, [r1, #6]
 80080be:	490b      	ldr	r1, [pc, #44]	@ (80080ec <USBD_CUSTOM_HID_Setup+0x104>)
 80080c0:	2a09      	cmp	r2, #9
 80080c2:	bf28      	it	cs
 80080c4:	2209      	movcs	r2, #9
 80080c6:	e7af      	b.n	8008028 <USBD_CUSTOM_HID_Setup+0x40>
 80080c8:	2100      	movs	r1, #0
 80080ca:	460a      	mov	r2, r1
 80080cc:	e7ac      	b.n	8008028 <USBD_CUSTOM_HID_Setup+0x40>
 80080ce:	f890 229c 	ldrb.w	r2, [r0, #668]	@ 0x29c
 80080d2:	2a03      	cmp	r2, #3
 80080d4:	d1e0      	bne.n	8008098 <USBD_CUSTOM_HID_Setup+0xb0>
 80080d6:	2201      	movs	r2, #1
 80080d8:	f103 010c 	add.w	r1, r3, #12
 80080dc:	e7a4      	b.n	8008028 <USBD_CUSTOM_HID_Setup+0x40>
 80080de:	f890 229c 	ldrb.w	r2, [r0, #668]	@ 0x29c
 80080e2:	2a03      	cmp	r2, #3
 80080e4:	d1d8      	bne.n	8008098 <USBD_CUSTOM_HID_Setup+0xb0>
 80080e6:	788a      	ldrb	r2, [r1, #2]
 80080e8:	60da      	str	r2, [r3, #12]
 80080ea:	e798      	b.n	800801e <USBD_CUSTOM_HID_Setup+0x36>
 80080ec:	200003d4 	.word	0x200003d4

080080f0 <USBD_CUSTOM_HID_DeInit>:
 80080f0:	b5f8      	push	{r3, r4, r5, r6, r7, lr}
 80080f2:	4d12      	ldr	r5, [pc, #72]	@ (800813c <USBD_CUSTOM_HID_DeInit+0x4c>)
 80080f4:	4f12      	ldr	r7, [pc, #72]	@ (8008140 <USBD_CUSTOM_HID_DeInit+0x50>)
 80080f6:	7829      	ldrb	r1, [r5, #0]
 80080f8:	4604      	mov	r4, r0
 80080fa:	f7ff fa87 	bl	800760c <USBD_LL_CloseEP>
 80080fe:	782b      	ldrb	r3, [r5, #0]
 8008100:	7839      	ldrb	r1, [r7, #0]
 8008102:	2614      	movs	r6, #20
 8008104:	f003 030f 	and.w	r3, r3, #15
 8008108:	fb06 4303 	mla	r3, r6, r3, r4
 800810c:	2500      	movs	r5, #0
 800810e:	625d      	str	r5, [r3, #36]	@ 0x24
 8008110:	4620      	mov	r0, r4
 8008112:	f7ff fa7b 	bl	800760c <USBD_LL_CloseEP>
 8008116:	783b      	ldrb	r3, [r7, #0]
 8008118:	f003 030f 	and.w	r3, r3, #15
 800811c:	fb06 4303 	mla	r3, r6, r3, r4
 8008120:	f8c3 5164 	str.w	r5, [r3, #356]	@ 0x164
 8008124:	f8d4 32d8 	ldr.w	r3, [r4, #728]	@ 0x2d8
 8008128:	b12b      	cbz	r3, 8008136 <USBD_CUSTOM_HID_DeInit+0x46>
 800812a:	f8d4 32dc 	ldr.w	r3, [r4, #732]	@ 0x2dc
 800812e:	689b      	ldr	r3, [r3, #8]
 8008130:	4798      	blx	r3
 8008132:	f8c4 52d8 	str.w	r5, [r4, #728]	@ 0x2d8
 8008136:	2000      	movs	r0, #0
 8008138:	bdf8      	pop	{r3, r4, r5, r6, r7, pc}
 800813a:	bf00      	nop
 800813c:	200004a1 	.word	0x200004a1
 8008140:	200004a0 	.word	0x200004a0

08008144 <USBD_CUSTOM_HID_Init>:
 8008144:	e92d 41f0 	stmdb	sp!, {r4, r5, r6, r7, r8, lr}
 8008148:	4d1f      	ldr	r5, [pc, #124]	@ (80081c8 <USBD_CUSTOM_HID_Init+0x84>)
 800814a:	4f20      	ldr	r7, [pc, #128]	@ (80081cc <USBD_CUSTOM_HID_Init+0x88>)
 800814c:	782b      	ldrb	r3, [r5, #0]
 800814e:	7839      	ldrb	r1, [r7, #0]
 8008150:	4e1f      	ldr	r6, [pc, #124]	@ (80081d0 <USBD_CUSTOM_HID_Init+0x8c>)
 8008152:	f8c0 62d8 	str.w	r6, [r0, #728]	@ 0x2d8
 8008156:	f04f 0814 	mov.w	r8, #20
 800815a:	f001 020f 	and.w	r2, r1, #15
 800815e:	f003 030f 	and.w	r3, r3, #15
 8008162:	fb08 0202 	mla	r2, r8, r2, r0
 8008166:	fb08 0303 	mla	r3, r8, r3, r0
 800816a:	f04f 0c05 	mov.w	ip, #5
 800816e:	f8a2 c026 	strh.w	ip, [r2, #38]	@ 0x26
 8008172:	f8a3 c166 	strh.w	ip, [r3, #358]	@ 0x166
 8008176:	2203      	movs	r2, #3
 8008178:	2340      	movs	r3, #64	@ 0x40
 800817a:	4604      	mov	r4, r0
 800817c:	f7ff fa3a 	bl	80075f4 <USBD_LL_OpenEP>
 8008180:	783b      	ldrb	r3, [r7, #0]
 8008182:	7829      	ldrb	r1, [r5, #0]
 8008184:	f003 030f 	and.w	r3, r3, #15
 8008188:	fb08 4303 	mla	r3, r8, r3, r4
 800818c:	2701      	movs	r7, #1
 800818e:	849f      	strh	r7, [r3, #36]	@ 0x24
 8008190:	2203      	movs	r2, #3
 8008192:	2340      	movs	r3, #64	@ 0x40
 8008194:	4620      	mov	r0, r4
 8008196:	f7ff fa2d 	bl	80075f4 <USBD_LL_OpenEP>
 800819a:	782b      	ldrb	r3, [r5, #0]
 800819c:	f003 030f 	and.w	r3, r3, #15
 80081a0:	fb08 4303 	mla	r3, r8, r3, r4
 80081a4:	f8a3 7164 	strh.w	r7, [r3, #356]	@ 0x164
 80081a8:	f8d4 32dc 	ldr.w	r3, [r4, #732]	@ 0x2dc
 80081ac:	2700      	movs	r7, #0
 80081ae:	7537      	strb	r7, [r6, #20]
 80081b0:	685b      	ldr	r3, [r3, #4]
 80081b2:	4798      	blx	r3
 80081b4:	7829      	ldrb	r1, [r5, #0]
 80081b6:	2302      	movs	r3, #2
 80081b8:	4632      	mov	r2, r6
 80081ba:	4620      	mov	r0, r4
 80081bc:	f7ff fa53 	bl	8007666 <USBD_LL_PrepareReceive>
 80081c0:	4638      	mov	r0, r7
 80081c2:	e8bd 81f0 	ldmia.w	sp!, {r4, r5, r6, r7, r8, pc}
 80081c6:	bf00      	nop
 80081c8:	200004a0 	.word	0x200004a0
 80081cc:	200004a1 	.word	0x200004a1
 80081d0:	20009b98 	.word	0x20009b98

080081d4 <USBD_CUSTOM_HID_SendReport>:
 80081d4:	b538      	push	{r3, r4, r5, lr}
 80081d6:	4613      	mov	r3, r2
 80081d8:	f8d0 22d8 	ldr.w	r2, [r0, #728]	@ 0x2d8
 80081dc:	b17a      	cbz	r2, 80081fe <USBD_CUSTOM_HID_SendReport+0x2a>
 80081de:	f890 429c 	ldrb.w	r4, [r0, #668]	@ 0x29c
 80081e2:	2c03      	cmp	r4, #3
 80081e4:	d001      	beq.n	80081ea <USBD_CUSTOM_HID_SendReport+0x16>
 80081e6:	2000      	movs	r0, #0
 80081e8:	bd38      	pop	{r3, r4, r5, pc}
 80081ea:	7d15      	ldrb	r5, [r2, #20]
 80081ec:	2401      	movs	r4, #1
 80081ee:	b945      	cbnz	r5, 8008202 <USBD_CUSTOM_HID_SendReport+0x2e>
 80081f0:	7514      	strb	r4, [r2, #20]
 80081f2:	460a      	mov	r2, r1
 80081f4:	4904      	ldr	r1, [pc, #16]	@ (8008208 <USBD_CUSTOM_HID_SendReport+0x34>)
 80081f6:	7809      	ldrb	r1, [r1, #0]
 80081f8:	f7ff fa2c 	bl	8007654 <USBD_LL_Transmit>
 80081fc:	e7f3      	b.n	80081e6 <USBD_CUSTOM_HID_SendReport+0x12>
 80081fe:	2003      	movs	r0, #3
 8008200:	e7f2      	b.n	80081e8 <USBD_CUSTOM_HID_SendReport+0x14>
 8008202:	4620      	mov	r0, r4
 8008204:	e7f0      	b.n	80081e8 <USBD_CUSTOM_HID_SendReport+0x14>
 8008206:	bf00      	nop
 8008208:	200004a1 	.word	0x200004a1

0800820c <USBD_CUSTOM_HID_ReceivePacket>:
 800820c:	f8d0 22d8 	ldr.w	r2, [r0, #728]	@ 0x2d8
 8008210:	b508      	push	{r3, lr}
 8008212:	b132      	cbz	r2, 8008222 <USBD_CUSTOM_HID_ReceivePacket+0x16>
 8008214:	4904      	ldr	r1, [pc, #16]	@ (8008228 <USBD_CUSTOM_HID_ReceivePacket+0x1c>)
 8008216:	2302      	movs	r3, #2
 8008218:	7809      	ldrb	r1, [r1, #0]
 800821a:	f7ff fa24 	bl	8007666 <USBD_LL_PrepareReceive>
 800821e:	2000      	movs	r0, #0
 8008220:	bd08      	pop	{r3, pc}
 8008222:	2003      	movs	r0, #3
 8008224:	e7fc      	b.n	8008220 <USBD_CUSTOM_HID_ReceivePacket+0x14>
 8008226:	bf00      	nop
 8008228:	200004a0 	.word	0x200004a0

0800822c <USBD_CUSTOM_HID_RegisterInterface>:
 800822c:	b119      	cbz	r1, 8008236 <USBD_CUSTOM_HID_RegisterInterface+0xa>
 800822e:	f8c0 12dc 	str.w	r1, [r0, #732]	@ 0x2dc
 8008232:	2000      	movs	r0, #0
 8008234:	4770      	bx	lr
 8008236:	2003      	movs	r0, #3
 8008238:	4770      	bx	lr
	...

0800823c <USBD_Update_HID_Custom_DESC>:
 800823c:	b510      	push	{r4, lr}
 800823e:	f89d 4008 	ldrb.w	r4, [sp, #8]
 8008242:	7742      	strb	r2, [r0, #29]
 8008244:	f880 3024 	strb.w	r3, [r0, #36]	@ 0x24
 8008248:	72c1      	strb	r1, [r0, #11]
 800824a:	7444      	strb	r4, [r0, #17]
 800824c:	4804      	ldr	r0, [pc, #16]	@ (8008260 <USBD_Update_HID_Custom_DESC+0x24>)
 800824e:	7002      	strb	r2, [r0, #0]
 8008250:	4a04      	ldr	r2, [pc, #16]	@ (8008264 <USBD_Update_HID_Custom_DESC+0x28>)
 8008252:	7013      	strb	r3, [r2, #0]
 8008254:	4b04      	ldr	r3, [pc, #16]	@ (8008268 <USBD_Update_HID_Custom_DESC+0x2c>)
 8008256:	7019      	strb	r1, [r3, #0]
 8008258:	4b04      	ldr	r3, [pc, #16]	@ (800826c <USBD_Update_HID_Custom_DESC+0x30>)
 800825a:	701c      	strb	r4, [r3, #0]
 800825c:	bd10      	pop	{r4, pc}
 800825e:	bf00      	nop
 8008260:	200004a1 	.word	0x200004a1
 8008264:	200004a0 	.word	0x200004a0
 8008268:	20009bb1 	.word	0x20009bb1
 800826c:	20009bb0 	.word	0x20009bb0

08008270 <CUSTOM_HID_Init>:
 8008270:	2000      	movs	r0, #0
 8008272:	4770      	bx	lr

08008274 <CUSTOM_HID_OutEvent>:
 8008274:	2801      	cmp	r0, #1
 8008276:	b508      	push	{r3, lr}
 8008278:	4602      	mov	r2, r0
 800827a:	d10b      	bne.n	8008294 <CUSTOM_HID_OutEvent+0x20>
 800827c:	078b      	lsls	r3, r1, #30
 800827e:	bf48      	it	mi
 8008280:	2200      	movmi	r2, #0
 8008282:	4808      	ldr	r0, [pc, #32]	@ (80082a4 <CUSTOM_HID_OutEvent+0x30>)
 8008284:	2180      	movs	r1, #128	@ 0x80
 8008286:	f7fa f9a5 	bl	80025d4 <HAL_GPIO_WritePin>
 800828a:	4a07      	ldr	r2, [pc, #28]	@ (80082a8 <CUSTOM_HID_OutEvent+0x34>)
 800828c:	7813      	ldrb	r3, [r2, #0]
 800828e:	3301      	adds	r3, #1
 8008290:	b2db      	uxtb	r3, r3
 8008292:	7013      	strb	r3, [r2, #0]
 8008294:	4805      	ldr	r0, [pc, #20]	@ (80082ac <CUSTOM_HID_OutEvent+0x38>)
 8008296:	f7ff ffb9 	bl	800820c <USBD_CUSTOM_HID_ReceivePacket>
 800829a:	3800      	subs	r0, #0
 800829c:	bf18      	it	ne
 800829e:	2001      	movne	r0, #1
 80082a0:	4240      	negs	r0, r0
 80082a2:	bd08      	pop	{r3, pc}
 80082a4:	40020000 	.word	0x40020000
 80082a8:	20009bb2 	.word	0x20009bb2
 80082ac:	20009674 	.word	0x20009674

080082b0 <CUSTOM_HID_DeInit>:
 80082b0:	2000      	movs	r0, #0
 80082b2:	4770      	bx	lr

080082b4 <SysTick_Handler>:
 80082b4:	b508      	push	{r3, lr}
 80082b6:	f04f 23e0 	mov.w	r3, #3758153728	@ 0xe000e000
 80082ba:	691b      	ldr	r3, [r3, #16]
 80082bc:	f001 fb20 	bl	8009900 <xTaskGetSchedulerState>
 80082c0:	2801      	cmp	r0, #1
 80082c2:	d003      	beq.n	80082cc <SysTick_Handler+0x18>
 80082c4:	e8bd 4008 	ldmia.w	sp!, {r3, lr}
 80082c8:	f000 baac 	b.w	8008824 <xPortSysTickHandler>
 80082cc:	bd08      	pop	{r3, pc}
	...

080082d0 <osKernelInitialize>:
 80082d0:	f3ef 8305 	mrs	r3, IPSR
 80082d4:	b92b      	cbnz	r3, 80082e2 <osKernelInitialize+0x12>
 80082d6:	4b06      	ldr	r3, [pc, #24]	@ (80082f0 <osKernelInitialize+0x20>)
 80082d8:	6818      	ldr	r0, [r3, #0]
 80082da:	b928      	cbnz	r0, 80082e8 <osKernelInitialize+0x18>
 80082dc:	2201      	movs	r2, #1
 80082de:	601a      	str	r2, [r3, #0]
 80082e0:	4770      	bx	lr
 80082e2:	f06f 0005 	mvn.w	r0, #5
 80082e6:	4770      	bx	lr
 80082e8:	f04f 30ff 	mov.w	r0, #4294967295
 80082ec:	4770      	bx	lr
 80082ee:	bf00      	nop
 80082f0:	2000a26c 	.word	0x2000a26c

080082f4 <osKernelStart>:
 80082f4:	b510      	push	{r4, lr}
 80082f6:	f3ef 8405 	mrs	r4, IPSR
 80082fa:	b95c      	cbnz	r4, 8008314 <osKernelStart+0x20>
 80082fc:	4b08      	ldr	r3, [pc, #32]	@ (8008320 <osKernelStart+0x2c>)
 80082fe:	681a      	ldr	r2, [r3, #0]
 8008300:	2a01      	cmp	r2, #1
 8008302:	d10a      	bne.n	800831a <osKernelStart+0x26>
 8008304:	4a07      	ldr	r2, [pc, #28]	@ (8008324 <osKernelStart+0x30>)
 8008306:	77d4      	strb	r4, [r2, #31]
 8008308:	2202      	movs	r2, #2
 800830a:	601a      	str	r2, [r3, #0]
 800830c:	f001 f824 	bl	8009358 <vTaskStartScheduler>
 8008310:	4620      	mov	r0, r4
 8008312:	bd10      	pop	{r4, pc}
 8008314:	f06f 0005 	mvn.w	r0, #5
 8008318:	e7fb      	b.n	8008312 <osKernelStart+0x1e>
 800831a:	f04f 30ff 	mov.w	r0, #4294967295
 800831e:	e7f8      	b.n	8008312 <osKernelStart+0x1e>
 8008320:	2000a26c 	.word	0x2000a26c
 8008324:	e000ed00 	.word	0xe000ed00

08008328 <osKernelGetTickCount>:
 8008328:	f3ef 8305 	mrs	r3, IPSR
 800832c:	b10b      	cbz	r3, 8008332 <osKernelGetTickCount+0xa>
 800832e:	f001 b867 	b.w	8009400 <xTaskGetTickCountFromISR>
 8008332:	f001 b85f 	b.w	80093f4 <xTaskGetTickCount>

08008336 <osThreadNew>:
 8008336:	b5f0      	push	{r4, r5, r6, r7, lr}
 8008338:	b087      	sub	sp, #28
 800833a:	4614      	mov	r4, r2
 800833c:	2200      	movs	r2, #0
 800833e:	460b      	mov	r3, r1
 8008340:	9205      	str	r2, [sp, #20]
 8008342:	f3ef 8205 	mrs	r2, IPSR
 8008346:	b9fa      	cbnz	r2, 8008388 <osThreadNew+0x52>
 8008348:	b1f0      	cbz	r0, 8008388 <osThreadNew+0x52>
 800834a:	b354      	cbz	r4, 80083a2 <osThreadNew+0x6c>
 800834c:	69a5      	ldr	r5, [r4, #24]
 800834e:	b125      	cbz	r5, 800835a <osThreadNew+0x24>
 8008350:	1e69      	subs	r1, r5, #1
 8008352:	2937      	cmp	r1, #55	@ 0x37
 8008354:	d902      	bls.n	800835c <osThreadNew+0x26>
 8008356:	2000      	movs	r0, #0
 8008358:	e017      	b.n	800838a <osThreadNew+0x54>
 800835a:	2518      	movs	r5, #24
 800835c:	6862      	ldr	r2, [r4, #4]
 800835e:	07d2      	lsls	r2, r2, #31
 8008360:	d4f9      	bmi.n	8008356 <osThreadNew+0x20>
 8008362:	6966      	ldr	r6, [r4, #20]
 8008364:	b19e      	cbz	r6, 800838e <osThreadNew+0x58>
 8008366:	08b2      	lsrs	r2, r6, #2
 8008368:	e9d4 7c02 	ldrd	r7, ip, [r4, #8]
 800836c:	6821      	ldr	r1, [r4, #0]
 800836e:	b187      	cbz	r7, 8008392 <osThreadNew+0x5c>
 8008370:	f1bc 0f5b 	cmp.w	ip, #91	@ 0x5b
 8008374:	d908      	bls.n	8008388 <osThreadNew+0x52>
 8008376:	6924      	ldr	r4, [r4, #16]
 8008378:	b134      	cbz	r4, 8008388 <osThreadNew+0x52>
 800837a:	b12e      	cbz	r6, 8008388 <osThreadNew+0x52>
 800837c:	e9cd 4701 	strd	r4, r7, [sp, #4]
 8008380:	9500      	str	r5, [sp, #0]
 8008382:	f000 ff82 	bl	800928a <xTaskCreateStatic>
 8008386:	9005      	str	r0, [sp, #20]
 8008388:	9805      	ldr	r0, [sp, #20]
 800838a:	b007      	add	sp, #28
 800838c:	bdf0      	pop	{r4, r5, r6, r7, pc}
 800838e:	2280      	movs	r2, #128	@ 0x80
 8008390:	e7ea      	b.n	8008368 <osThreadNew+0x32>
 8008392:	f1bc 0f00 	cmp.w	ip, #0
 8008396:	d1f7      	bne.n	8008388 <osThreadNew+0x52>
 8008398:	6924      	ldr	r4, [r4, #16]
 800839a:	2c00      	cmp	r4, #0
 800839c:	d1f4      	bne.n	8008388 <osThreadNew+0x52>
 800839e:	460c      	mov	r4, r1
 80083a0:	e001      	b.n	80083a6 <osThreadNew+0x70>
 80083a2:	2518      	movs	r5, #24
 80083a4:	2280      	movs	r2, #128	@ 0x80
 80083a6:	a905      	add	r1, sp, #20
 80083a8:	e9cd 5100 	strd	r5, r1, [sp]
 80083ac:	b292      	uxth	r2, r2
 80083ae:	4621      	mov	r1, r4
 80083b0:	f000 ffa3 	bl	80092fa <xTaskCreate>
 80083b4:	2801      	cmp	r0, #1
 80083b6:	bf1c      	itt	ne
 80083b8:	2300      	movne	r3, #0
 80083ba:	9305      	strne	r3, [sp, #20]
 80083bc:	e7e4      	b.n	8008388 <osThreadNew+0x52>

080083be <osDelay>:
 80083be:	b508      	push	{r3, lr}
 80083c0:	f3ef 8205 	mrs	r2, IPSR
 80083c4:	b922      	cbnz	r2, 80083d0 <osDelay+0x12>
 80083c6:	b108      	cbz	r0, 80083cc <osDelay+0xe>
 80083c8:	f001 f976 	bl	80096b8 <vTaskDelay>
 80083cc:	2000      	movs	r0, #0
 80083ce:	bd08      	pop	{r3, pc}
 80083d0:	f06f 0005 	mvn.w	r0, #5
 80083d4:	e7fb      	b.n	80083ce <osDelay+0x10>
	...

080083d8 <vApplicationGetIdleTaskMemory>:
 80083d8:	4b03      	ldr	r3, [pc, #12]	@ (80083e8 <vApplicationGetIdleTaskMemory+0x10>)
 80083da:	6003      	str	r3, [r0, #0]
 80083dc:	4b03      	ldr	r3, [pc, #12]	@ (80083ec <vApplicationGetIdleTaskMemory+0x14>)
 80083de:	600b      	str	r3, [r1, #0]
 80083e0:	2380      	movs	r3, #128	@ 0x80
 80083e2:	6013      	str	r3, [r2, #0]
 80083e4:	4770      	bx	lr
 80083e6:	bf00      	nop
 80083e8:	2000a210 	.word	0x2000a210
 80083ec:	2000a010 	.word	0x2000a010

080083f0 <vApplicationGetTimerTaskMemory>:
 80083f0:	4b03      	ldr	r3, [pc, #12]	@ (8008400 <vApplicationGetTimerTaskMemory+0x10>)
 80083f2:	6003      	str	r3, [r0, #0]
 80083f4:	4b03      	ldr	r3, [pc, #12]	@ (8008404 <vApplicationGetTimerTaskMemory+0x14>)
 80083f6:	600b      	str	r3, [r1, #0]
 80083f8:	f44f 7380 	mov.w	r3, #256	@ 0x100
 80083fc:	6013      	str	r3, [r2, #0]
 80083fe:	4770      	bx	lr
 8008400:	20009fb4 	.word	0x20009fb4
 8008404:	20009bb4 	.word	0x20009bb4

08008408 <prvInsertBlockIntoFreeList>:
 8008408:	b510      	push	{r4, lr}
 800840a:	4b10      	ldr	r3, [pc, #64]	@ (800844c <prvInsertBlockIntoFreeList+0x44>)
 800840c:	461a      	mov	r2, r3
 800840e:	681b      	ldr	r3, [r3, #0]
 8008410:	4283      	cmp	r3, r0
 8008412:	d3fb      	bcc.n	800840c <prvInsertBlockIntoFreeList+0x4>
 8008414:	6854      	ldr	r4, [r2, #4]
 8008416:	1911      	adds	r1, r2, r4
 8008418:	4288      	cmp	r0, r1
 800841a:	bf01      	itttt	eq
 800841c:	6841      	ldreq	r1, [r0, #4]
 800841e:	4610      	moveq	r0, r2
 8008420:	1909      	addeq	r1, r1, r4
 8008422:	6051      	streq	r1, [r2, #4]
 8008424:	6844      	ldr	r4, [r0, #4]
 8008426:	1901      	adds	r1, r0, r4
 8008428:	428b      	cmp	r3, r1
 800842a:	d10c      	bne.n	8008446 <prvInsertBlockIntoFreeList+0x3e>
 800842c:	4908      	ldr	r1, [pc, #32]	@ (8008450 <prvInsertBlockIntoFreeList+0x48>)
 800842e:	6809      	ldr	r1, [r1, #0]
 8008430:	428b      	cmp	r3, r1
 8008432:	d003      	beq.n	800843c <prvInsertBlockIntoFreeList+0x34>
 8008434:	6859      	ldr	r1, [r3, #4]
 8008436:	4421      	add	r1, r4
 8008438:	6041      	str	r1, [r0, #4]
 800843a:	6819      	ldr	r1, [r3, #0]
 800843c:	6001      	str	r1, [r0, #0]
 800843e:	4290      	cmp	r0, r2
 8008440:	bf18      	it	ne
 8008442:	6010      	strne	r0, [r2, #0]
 8008444:	bd10      	pop	{r4, pc}
 8008446:	4619      	mov	r1, r3
 8008448:	e7f8      	b.n	800843c <prvInsertBlockIntoFreeList+0x34>
 800844a:	bf00      	nop
 800844c:	2000a288 	.word	0x2000a288
 8008450:	2000a284 	.word	0x2000a284

08008454 <pvPortMalloc>:
 8008454:	e92d 41f0 	stmdb	sp!, {r4, r5, r6, r7, r8, lr}
 8008458:	4604      	mov	r4, r0
 800845a:	f000 ffc3 	bl	80093e4 <vTaskSuspendAll>
 800845e:	4942      	ldr	r1, [pc, #264]	@ (8008568 <pvPortMalloc+0x114>)
 8008460:	4d42      	ldr	r5, [pc, #264]	@ (800856c <pvPortMalloc+0x118>)
 8008462:	680b      	ldr	r3, [r1, #0]
 8008464:	bb0b      	cbnz	r3, 80084aa <pvPortMalloc+0x56>
 8008466:	4a42      	ldr	r2, [pc, #264]	@ (8008570 <pvPortMalloc+0x11c>)
 8008468:	0756      	lsls	r6, r2, #29
 800846a:	bf1f      	itttt	ne
 800846c:	1dd0      	addne	r0, r2, #7
 800846e:	f020 0007 	bicne.w	r0, r0, #7
 8008472:	f502 5270 	addne.w	r2, r2, #15360	@ 0x3c00
 8008476:	1a13      	subne	r3, r2, r0
 8008478:	bf0c      	ite	eq
 800847a:	f44f 5370 	moveq.w	r3, #15360	@ 0x3c00
 800847e:	4602      	movne	r2, r0
 8008480:	4413      	add	r3, r2
 8008482:	4e3c      	ldr	r6, [pc, #240]	@ (8008574 <pvPortMalloc+0x120>)
 8008484:	3b08      	subs	r3, #8
 8008486:	f023 0307 	bic.w	r3, r3, #7
 800848a:	2000      	movs	r0, #0
 800848c:	6070      	str	r0, [r6, #4]
 800848e:	6032      	str	r2, [r6, #0]
 8008490:	e9c3 0000 	strd	r0, r0, [r3]
 8008494:	1a98      	subs	r0, r3, r2
 8008496:	e9c2 3000 	strd	r3, r0, [r2]
 800849a:	600b      	str	r3, [r1, #0]
 800849c:	4b36      	ldr	r3, [pc, #216]	@ (8008578 <pvPortMalloc+0x124>)
 800849e:	6018      	str	r0, [r3, #0]
 80084a0:	4b36      	ldr	r3, [pc, #216]	@ (800857c <pvPortMalloc+0x128>)
 80084a2:	6018      	str	r0, [r3, #0]
 80084a4:	f04f 4300 	mov.w	r3, #2147483648	@ 0x80000000
 80084a8:	602b      	str	r3, [r5, #0]
 80084aa:	682e      	ldr	r6, [r5, #0]
 80084ac:	4226      	tst	r6, r4
 80084ae:	d155      	bne.n	800855c <pvPortMalloc+0x108>
 80084b0:	2c00      	cmp	r4, #0
 80084b2:	d046      	beq.n	8008542 <pvPortMalloc+0xee>
 80084b4:	f104 0308 	add.w	r3, r4, #8
 80084b8:	0760      	lsls	r0, r4, #29
 80084ba:	bf1c      	itt	ne
 80084bc:	f023 0307 	bicne.w	r3, r3, #7
 80084c0:	3308      	addne	r3, #8
 80084c2:	2b00      	cmp	r3, #0
 80084c4:	d04a      	beq.n	800855c <pvPortMalloc+0x108>
 80084c6:	4f2d      	ldr	r7, [pc, #180]	@ (800857c <pvPortMalloc+0x128>)
 80084c8:	683c      	ldr	r4, [r7, #0]
 80084ca:	429c      	cmp	r4, r3
 80084cc:	d346      	bcc.n	800855c <pvPortMalloc+0x108>
 80084ce:	4a29      	ldr	r2, [pc, #164]	@ (8008574 <pvPortMalloc+0x120>)
 80084d0:	6815      	ldr	r5, [r2, #0]
 80084d2:	6868      	ldr	r0, [r5, #4]
 80084d4:	4298      	cmp	r0, r3
 80084d6:	d204      	bcs.n	80084e2 <pvPortMalloc+0x8e>
 80084d8:	f8d5 c000 	ldr.w	ip, [r5]
 80084dc:	f1bc 0f00 	cmp.w	ip, #0
 80084e0:	d115      	bne.n	800850e <pvPortMalloc+0xba>
 80084e2:	6809      	ldr	r1, [r1, #0]
 80084e4:	42a9      	cmp	r1, r5
 80084e6:	d039      	beq.n	800855c <pvPortMalloc+0x108>
 80084e8:	6829      	ldr	r1, [r5, #0]
 80084ea:	f8d2 8000 	ldr.w	r8, [r2]
 80084ee:	6011      	str	r1, [r2, #0]
 80084f0:	1ac2      	subs	r2, r0, r3
 80084f2:	2a10      	cmp	r2, #16
 80084f4:	d912      	bls.n	800851c <pvPortMalloc+0xc8>
 80084f6:	18e8      	adds	r0, r5, r3
 80084f8:	0741      	lsls	r1, r0, #29
 80084fa:	d00b      	beq.n	8008514 <pvPortMalloc+0xc0>
 80084fc:	f04f 0350 	mov.w	r3, #80	@ 0x50
 8008500:	f383 8811 	msr	BASEPRI, r3
 8008504:	f3bf 8f6f 	isb	sy
 8008508:	f3bf 8f4f 	dsb	sy
 800850c:	e7fe      	b.n	800850c <pvPortMalloc+0xb8>
 800850e:	462a      	mov	r2, r5
 8008510:	4665      	mov	r5, ip
 8008512:	e7de      	b.n	80084d2 <pvPortMalloc+0x7e>
 8008514:	6042      	str	r2, [r0, #4]
 8008516:	606b      	str	r3, [r5, #4]
 8008518:	f7ff ff76 	bl	8008408 <prvInsertBlockIntoFreeList>
 800851c:	686a      	ldr	r2, [r5, #4]
 800851e:	4916      	ldr	r1, [pc, #88]	@ (8008578 <pvPortMalloc+0x124>)
 8008520:	1aa4      	subs	r4, r4, r2
 8008522:	4316      	orrs	r6, r2
 8008524:	4a16      	ldr	r2, [pc, #88]	@ (8008580 <pvPortMalloc+0x12c>)
 8008526:	6808      	ldr	r0, [r1, #0]
 8008528:	603c      	str	r4, [r7, #0]
 800852a:	2300      	movs	r3, #0
 800852c:	602b      	str	r3, [r5, #0]
 800852e:	6813      	ldr	r3, [r2, #0]
 8008530:	606e      	str	r6, [r5, #4]
 8008532:	4284      	cmp	r4, r0
 8008534:	f103 0301 	add.w	r3, r3, #1
 8008538:	bf38      	it	cc
 800853a:	600c      	strcc	r4, [r1, #0]
 800853c:	6013      	str	r3, [r2, #0]
 800853e:	f108 0408 	add.w	r4, r8, #8
 8008542:	f000 fffb 	bl	800953c <xTaskResumeAll>
 8008546:	0763      	lsls	r3, r4, #29
 8008548:	d00a      	beq.n	8008560 <pvPortMalloc+0x10c>
 800854a:	f04f 0350 	mov.w	r3, #80	@ 0x50
 800854e:	f383 8811 	msr	BASEPRI, r3
 8008552:	f3bf 8f6f 	isb	sy
 8008556:	f3bf 8f4f 	dsb	sy
 800855a:	e7fe      	b.n	800855a <pvPortMalloc+0x106>
 800855c:	2400      	movs	r4, #0
 800855e:	e7f0      	b.n	8008542 <pvPortMalloc+0xee>
 8008560:	4620      	mov	r0, r4
 8008562:	e8bd 81f0 	ldmia.w	sp!, {r4, r5, r6, r7, r8, pc}
 8008566:	bf00      	nop
 8008568:	2000a284 	.word	0x2000a284
 800856c:	2000a270 	.word	0x2000a270
 8008570:	2000a290 	.word	0x2000a290
 8008574:	2000a288 	.word	0x2000a288
 8008578:	2000a27c 	.word	0x2000a27c
 800857c:	2000a280 	.word	0x2000a280
 8008580:	2000a278 	.word	0x2000a278

08008584 <vPortFree>:
 8008584:	b510      	push	{r4, lr}
 8008586:	4604      	mov	r4, r0
 8008588:	b390      	cbz	r0, 80085f0 <vPortFree+0x6c>
 800858a:	4a1a      	ldr	r2, [pc, #104]	@ (80085f4 <vPortFree+0x70>)
 800858c:	f850 3c04 	ldr.w	r3, [r0, #-4]
 8008590:	6812      	ldr	r2, [r2, #0]
 8008592:	4213      	tst	r3, r2
 8008594:	d108      	bne.n	80085a8 <vPortFree+0x24>
 8008596:	f04f 0350 	mov.w	r3, #80	@ 0x50
 800859a:	f383 8811 	msr	BASEPRI, r3
 800859e:	f3bf 8f6f 	isb	sy
 80085a2:	f3bf 8f4f 	dsb	sy
 80085a6:	e7fe      	b.n	80085a6 <vPortFree+0x22>
 80085a8:	f850 1c08 	ldr.w	r1, [r0, #-8]
 80085ac:	b141      	cbz	r1, 80085c0 <vPortFree+0x3c>
 80085ae:	f04f 0350 	mov.w	r3, #80	@ 0x50
 80085b2:	f383 8811 	msr	BASEPRI, r3
 80085b6:	f3bf 8f6f 	isb	sy
 80085ba:	f3bf 8f4f 	dsb	sy
 80085be:	e7fe      	b.n	80085be <vPortFree+0x3a>
 80085c0:	ea23 0302 	bic.w	r3, r3, r2
 80085c4:	f840 3c04 	str.w	r3, [r0, #-4]
 80085c8:	f000 ff0c 	bl	80093e4 <vTaskSuspendAll>
 80085cc:	4a0a      	ldr	r2, [pc, #40]	@ (80085f8 <vPortFree+0x74>)
 80085ce:	f854 3c04 	ldr.w	r3, [r4, #-4]
 80085d2:	6811      	ldr	r1, [r2, #0]
 80085d4:	f1a4 0008 	sub.w	r0, r4, #8
 80085d8:	440b      	add	r3, r1
 80085da:	6013      	str	r3, [r2, #0]
 80085dc:	f7ff ff14 	bl	8008408 <prvInsertBlockIntoFreeList>
 80085e0:	4a06      	ldr	r2, [pc, #24]	@ (80085fc <vPortFree+0x78>)
 80085e2:	6813      	ldr	r3, [r2, #0]
 80085e4:	e8bd 4010 	ldmia.w	sp!, {r4, lr}
 80085e8:	3301      	adds	r3, #1
 80085ea:	6013      	str	r3, [r2, #0]
 80085ec:	f000 bfa6 	b.w	800953c <xTaskResumeAll>
 80085f0:	bd10      	pop	{r4, pc}
 80085f2:	bf00      	nop
 80085f4:	2000a270 	.word	0x2000a270
 80085f8:	2000a280 	.word	0x2000a280
 80085fc:	2000a274 	.word	0x2000a274

08008600 <vListInitialise>:
 8008600:	f100 0308 	add.w	r3, r0, #8
 8008604:	f04f 32ff 	mov.w	r2, #4294967295
 8008608:	e9c0 2302 	strd	r2, r3, [r0, #8]
 800860c:	6043      	str	r3, [r0, #4]
 800860e:	6103      	str	r3, [r0, #16]
 8008610:	2300      	movs	r3, #0
 8008612:	6003      	str	r3, [r0, #0]
 8008614:	4770      	bx	lr

08008616 <vListInitialiseItem>:
 8008616:	2300      	movs	r3, #0
 8008618:	6103      	str	r3, [r0, #16]
 800861a:	4770      	bx	lr

0800861c <vListInsertEnd>:
 800861c:	6843      	ldr	r3, [r0, #4]
 800861e:	604b      	str	r3, [r1, #4]
 8008620:	689a      	ldr	r2, [r3, #8]
 8008622:	608a      	str	r2, [r1, #8]
 8008624:	6051      	str	r1, [r2, #4]
 8008626:	6099      	str	r1, [r3, #8]
 8008628:	6803      	ldr	r3, [r0, #0]
 800862a:	6108      	str	r0, [r1, #16]
 800862c:	3301      	adds	r3, #1
 800862e:	6003      	str	r3, [r0, #0]
 8008630:	4770      	bx	lr

08008632 <vListInsert>:
 8008632:	b530      	push	{r4, r5, lr}
 8008634:	680c      	ldr	r4, [r1, #0]
 8008636:	1c63      	adds	r3, r4, #1
 8008638:	d10a      	bne.n	8008650 <vListInsert+0x1e>
 800863a:	6903      	ldr	r3, [r0, #16]
 800863c:	685a      	ldr	r2, [r3, #4]
 800863e:	604a      	str	r2, [r1, #4]
 8008640:	6091      	str	r1, [r2, #8]
 8008642:	608b      	str	r3, [r1, #8]
 8008644:	6059      	str	r1, [r3, #4]
 8008646:	6803      	ldr	r3, [r0, #0]
 8008648:	6108      	str	r0, [r1, #16]
 800864a:	3301      	adds	r3, #1
 800864c:	6003      	str	r3, [r0, #0]
 800864e:	bd30      	pop	{r4, r5, pc}
 8008650:	f100 0208 	add.w	r2, r0, #8
 8008654:	4613      	mov	r3, r2
 8008656:	6852      	ldr	r2, [r2, #4]
 8008658:	6815      	ldr	r5, [r2, #0]
 800865a:	42a5      	cmp	r5, r4
 800865c:	d9fa      	bls.n	8008654 <vListInsert+0x22>
 800865e:	e7ed      	b.n	800863c <vListInsert+0xa>

08008660 <uxListRemove>:
 8008660:	e9d0 1201 	ldrd	r1, r2, [r0, #4]
 8008664:	6903      	ldr	r3, [r0, #16]
 8008666:	608a      	str	r2, [r1, #8]
 8008668:	6051      	str	r1, [r2, #4]
 800866a:	6859      	ldr	r1, [r3, #4]
 800866c:	4281      	cmp	r1, r0
 800866e:	bf08      	it	eq
 8008670:	605a      	streq	r2, [r3, #4]
 8008672:	2200      	movs	r2, #0
 8008674:	6102      	str	r2, [r0, #16]
 8008676:	681a      	ldr	r2, [r3, #0]
 8008678:	3a01      	subs	r2, #1
 800867a:	601a      	str	r2, [r3, #0]
 800867c:	6818      	ldr	r0, [r3, #0]
 800867e:	4770      	bx	lr

08008680 <prvPortStartFirstTask>:
 8008680:	4808      	ldr	r0, [pc, #32]	@ (80086a4 <prvPortStartFirstTask+0x24>)
 8008682:	6800      	ldr	r0, [r0, #0]
 8008684:	6800      	ldr	r0, [r0, #0]
 8008686:	f380 8808 	msr	MSP, r0
 800868a:	f04f 0000 	mov.w	r0, #0
 800868e:	f380 8814 	msr	CONTROL, r0
 8008692:	b662      	cpsie	i
 8008694:	b661      	cpsie	f
 8008696:	f3bf 8f4f 	dsb	sy
 800869a:	f3bf 8f6f 	isb	sy
 800869e:	df00      	svc	0
 80086a0:	bf00      	nop
 80086a2:	0000      	.short	0x0000
 80086a4:	e000ed08 	.word	0xe000ed08

080086a8 <vPortEnableVFP>:
 80086a8:	f8df 000c 	ldr.w	r0, [pc, #12]	@ 80086b8 <vPortEnableVFP+0x10>
 80086ac:	6801      	ldr	r1, [r0, #0]
 80086ae:	f441 0170 	orr.w	r1, r1, #15728640	@ 0xf00000
 80086b2:	6001      	str	r1, [r0, #0]
 80086b4:	4770      	bx	lr
 80086b6:	0000      	.short	0x0000
 80086b8:	e000ed88 	.word	0xe000ed88

080086bc <prvTaskExitError>:
 80086bc:	b082      	sub	sp, #8
 80086be:	2300      	movs	r3, #0
 80086c0:	9301      	str	r3, [sp, #4]
 80086c2:	4b0d      	ldr	r3, [pc, #52]	@ (80086f8 <prvTaskExitError+0x3c>)
 80086c4:	681b      	ldr	r3, [r3, #0]
 80086c6:	3301      	adds	r3, #1
 80086c8:	d008      	beq.n	80086dc <prvTaskExitError+0x20>
 80086ca:	f04f 0350 	mov.w	r3, #80	@ 0x50
 80086ce:	f383 8811 	msr	BASEPRI, r3
 80086d2:	f3bf 8f6f 	isb	sy
 80086d6:	f3bf 8f4f 	dsb	sy
 80086da:	e7fe      	b.n	80086da <prvTaskExitError+0x1e>
 80086dc:	f04f 0350 	mov.w	r3, #80	@ 0x50
 80086e0:	f383 8811 	msr	BASEPRI, r3
 80086e4:	f3bf 8f6f 	isb	sy
 80086e8:	f3bf 8f4f 	dsb	sy
 80086ec:	9b01      	ldr	r3, [sp, #4]
 80086ee:	2b00      	cmp	r3, #0
 80086f0:	d0fc      	beq.n	80086ec <prvTaskExitError+0x30>
 80086f2:	b002      	add	sp, #8
 80086f4:	4770      	bx	lr
 80086f6:	bf00      	nop
 80086f8:	20000518 	.word	0x20000518

080086fc <pxPortInitialiseStack>:
 80086fc:	f04f 7380 	mov.w	r3, #16777216	@ 0x1000000
 8008700:	f840 3c04 	str.w	r3, [r0, #-4]
 8008704:	4b07      	ldr	r3, [pc, #28]	@ (8008724 <pxPortInitialiseStack+0x28>)
 8008706:	f840 3c0c 	str.w	r3, [r0, #-12]
 800870a:	f021 0101 	bic.w	r1, r1, #1
 800870e:	f06f 0302 	mvn.w	r3, #2
 8008712:	f840 1c08 	str.w	r1, [r0, #-8]
 8008716:	f840 2c20 	str.w	r2, [r0, #-32]
 800871a:	f840 3c24 	str.w	r3, [r0, #-36]
 800871e:	3844      	subs	r0, #68	@ 0x44
 8008720:	4770      	bx	lr
 8008722:	bf00      	nop
 8008724:	080086bd 	.word	0x080086bd
	...

08008730 <SVC_Handler>:
 8008730:	4b07      	ldr	r3, [pc, #28]	@ (8008750 <pxCurrentTCBConst2>)
 8008732:	6819      	ldr	r1, [r3, #0]
 8008734:	6808      	ldr	r0, [r1, #0]
 8008736:	e8b0 4ff0 	ldmia.w	r0!, {r4, r5, r6, r7, r8, r9, sl, fp, lr}
 800873a:	f380 8809 	msr	PSP, r0
 800873e:	f3bf 8f6f 	isb	sy
 8008742:	f04f 0000 	mov.w	r0, #0
 8008746:	f380 8811 	msr	BASEPRI, r0
 800874a:	4770      	bx	lr
 800874c:	f3af 8000 	nop.w

08008750 <pxCurrentTCBConst2>:
 8008750:	2000e3d0 	.word	0x2000e3d0

08008754 <vPortEnterCritical>:
 8008754:	f04f 0350 	mov.w	r3, #80	@ 0x50
 8008758:	f383 8811 	msr	BASEPRI, r3
 800875c:	f3bf 8f6f 	isb	sy
 8008760:	f3bf 8f4f 	dsb	sy
 8008764:	4a0a      	ldr	r2, [pc, #40]	@ (8008790 <vPortEnterCritical+0x3c>)
 8008766:	6813      	ldr	r3, [r2, #0]
 8008768:	3301      	adds	r3, #1
 800876a:	2b01      	cmp	r3, #1
 800876c:	6013      	str	r3, [r2, #0]
 800876e:	d10e      	bne.n	800878e <vPortEnterCritical+0x3a>
 8008770:	f04f 23e0 	mov.w	r3, #3758153728	@ 0xe000e000
 8008774:	f8d3 3d04 	ldr.w	r3, [r3, #3332]	@ 0xd04
 8008778:	b2db      	uxtb	r3, r3
 800877a:	b143      	cbz	r3, 800878e <vPortEnterCritical+0x3a>
 800877c:	f04f 0350 	mov.w	r3, #80	@ 0x50
 8008780:	f383 8811 	msr	BASEPRI, r3
 8008784:	f3bf 8f6f 	isb	sy
 8008788:	f3bf 8f4f 	dsb	sy
 800878c:	e7fe      	b.n	800878c <vPortEnterCritical+0x38>
 800878e:	4770      	bx	lr
 8008790:	20000518 	.word	0x20000518

08008794 <vPortExitCritical>:
 8008794:	4a08      	ldr	r2, [pc, #32]	@ (80087b8 <vPortExitCritical+0x24>)
 8008796:	6813      	ldr	r3, [r2, #0]
 8008798:	b943      	cbnz	r3, 80087ac <vPortExitCritical+0x18>
 800879a:	f04f 0350 	mov.w	r3, #80	@ 0x50
 800879e:	f383 8811 	msr	BASEPRI, r3
 80087a2:	f3bf 8f6f 	isb	sy
 80087a6:	f3bf 8f4f 	dsb	sy
 80087aa:	e7fe      	b.n	80087aa <vPortExitCritical+0x16>
 80087ac:	3b01      	subs	r3, #1
 80087ae:	6013      	str	r3, [r2, #0]
 80087b0:	b90b      	cbnz	r3, 80087b6 <vPortExitCritical+0x22>
 80087b2:	f383 8811 	msr	BASEPRI, r3
 80087b6:	4770      	bx	lr
 80087b8:	20000518 	.word	0x20000518
 80087bc:	00000000 	.word	0x00000000

080087c0 <PendSV_Handler>:
 80087c0:	f3ef 8009 	mrs	r0, PSP
 80087c4:	f3bf 8f6f 	isb	sy
 80087c8:	4b15      	ldr	r3, [pc, #84]	@ (8008820 <pxCurrentTCBConst>)
 80087ca:	681a      	ldr	r2, [r3, #0]
 80087cc:	f01e 0f10 	tst.w	lr, #16
 80087d0:	bf08      	it	eq
 80087d2:	ed20 8a10 	vstmdbeq	r0!, {s16-s31}
 80087d6:	e920 4ff0 	stmdb	r0!, {r4, r5, r6, r7, r8, r9, sl, fp, lr}
 80087da:	6010      	str	r0, [r2, #0]
 80087dc:	e92d 0009 	stmdb	sp!, {r0, r3}
 80087e0:	f04f 0050 	mov.w	r0, #80	@ 0x50
 80087e4:	f380 8811 	msr	BASEPRI, r0
 80087e8:	f3bf 8f4f 	dsb	sy
 80087ec:	f3bf 8f6f 	isb	sy
 80087f0:	f000 ff86 	bl	8009700 <vTaskSwitchContext>
 80087f4:	f04f 0000 	mov.w	r0, #0
 80087f8:	f380 8811 	msr	BASEPRI, r0
 80087fc:	bc09      	pop	{r0, r3}
 80087fe:	6819      	ldr	r1, [r3, #0]
 8008800:	6808      	ldr	r0, [r1, #0]
 8008802:	e8b0 4ff0 	ldmia.w	r0!, {r4, r5, r6, r7, r8, r9, sl, fp, lr}
 8008806:	f01e 0f10 	tst.w	lr, #16
 800880a:	bf08      	it	eq
 800880c:	ecb0 8a10 	vldmiaeq	r0!, {s16-s31}
 8008810:	f380 8809 	msr	PSP, r0
 8008814:	f3bf 8f6f 	isb	sy
 8008818:	4770      	bx	lr
 800881a:	bf00      	nop
 800881c:	f3af 8000 	nop.w

08008820 <pxCurrentTCBConst>:
 8008820:	2000e3d0 	.word	0x2000e3d0

08008824 <xPortSysTickHandler>:
 8008824:	b508      	push	{r3, lr}
 8008826:	f04f 0350 	mov.w	r3, #80	@ 0x50
 800882a:	f383 8811 	msr	BASEPRI, r3
 800882e:	f3bf 8f6f 	isb	sy
 8008832:	f3bf 8f4f 	dsb	sy
 8008836:	f000 fdeb 	bl	8009410 <xTaskIncrementTick>
 800883a:	b128      	cbz	r0, 8008848 <xPortSysTickHandler+0x24>
 800883c:	f04f 23e0 	mov.w	r3, #3758153728	@ 0xe000e000
 8008840:	f04f 5280 	mov.w	r2, #268435456	@ 0x10000000
 8008844:	f8c3 2d04 	str.w	r2, [r3, #3332]	@ 0xd04
 8008848:	2300      	movs	r3, #0
 800884a:	f383 8811 	msr	BASEPRI, r3
 800884e:	bd08      	pop	{r3, pc}

08008850 <vPortSetupTimerInterrupt>:
 8008850:	f04f 22e0 	mov.w	r2, #3758153728	@ 0xe000e000
 8008854:	2300      	movs	r3, #0
 8008856:	6113      	str	r3, [r2, #16]
 8008858:	6193      	str	r3, [r2, #24]
 800885a:	4b05      	ldr	r3, [pc, #20]	@ (8008870 <vPortSetupTimerInterrupt+0x20>)
 800885c:	f44f 717a 	mov.w	r1, #1000	@ 0x3e8
 8008860:	681b      	ldr	r3, [r3, #0]
 8008862:	fbb3 f3f1 	udiv	r3, r3, r1
 8008866:	3b01      	subs	r3, #1
 8008868:	6153      	str	r3, [r2, #20]
 800886a:	2307      	movs	r3, #7
 800886c:	6113      	str	r3, [r2, #16]
 800886e:	4770      	bx	lr
 8008870:	20000004 	.word	0x20000004

08008874 <xPortStartScheduler>:
 8008874:	f04f 23e0 	mov.w	r3, #3758153728	@ 0xe000e000
 8008878:	b537      	push	{r0, r1, r2, r4, r5, lr}
 800887a:	f8d3 1d00 	ldr.w	r1, [r3, #3328]	@ 0xd00
 800887e:	4a38      	ldr	r2, [pc, #224]	@ (8008960 <xPortStartScheduler+0xec>)
 8008880:	4291      	cmp	r1, r2
 8008882:	d108      	bne.n	8008896 <xPortStartScheduler+0x22>
 8008884:	f04f 0350 	mov.w	r3, #80	@ 0x50
 8008888:	f383 8811 	msr	BASEPRI, r3
 800888c:	f3bf 8f6f 	isb	sy
 8008890:	f3bf 8f4f 	dsb	sy
 8008894:	e7fe      	b.n	8008894 <xPortStartScheduler+0x20>
 8008896:	f8d3 2d00 	ldr.w	r2, [r3, #3328]	@ 0xd00
 800889a:	4b32      	ldr	r3, [pc, #200]	@ (8008964 <xPortStartScheduler+0xf0>)
 800889c:	429a      	cmp	r2, r3
 800889e:	d108      	bne.n	80088b2 <xPortStartScheduler+0x3e>
 80088a0:	f04f 0350 	mov.w	r3, #80	@ 0x50
 80088a4:	f383 8811 	msr	BASEPRI, r3
 80088a8:	f3bf 8f6f 	isb	sy
 80088ac:	f3bf 8f4f 	dsb	sy
 80088b0:	e7fe      	b.n	80088b0 <xPortStartScheduler+0x3c>
 80088b2:	4b2d      	ldr	r3, [pc, #180]	@ (8008968 <xPortStartScheduler+0xf4>)
 80088b4:	781a      	ldrb	r2, [r3, #0]
 80088b6:	b2d2      	uxtb	r2, r2
 80088b8:	9201      	str	r2, [sp, #4]
 80088ba:	22ff      	movs	r2, #255	@ 0xff
 80088bc:	701a      	strb	r2, [r3, #0]
 80088be:	781b      	ldrb	r3, [r3, #0]
 80088c0:	4a2a      	ldr	r2, [pc, #168]	@ (800896c <xPortStartScheduler+0xf8>)
 80088c2:	b2db      	uxtb	r3, r3
 80088c4:	f88d 3003 	strb.w	r3, [sp, #3]
 80088c8:	f89d 3003 	ldrb.w	r3, [sp, #3]
 80088cc:	f003 0350 	and.w	r3, r3, #80	@ 0x50
 80088d0:	7013      	strb	r3, [r2, #0]
 80088d2:	4a27      	ldr	r2, [pc, #156]	@ (8008970 <xPortStartScheduler+0xfc>)
 80088d4:	2307      	movs	r3, #7
 80088d6:	6013      	str	r3, [r2, #0]
 80088d8:	f89d 1003 	ldrb.w	r1, [sp, #3]
 80088dc:	6813      	ldr	r3, [r2, #0]
 80088de:	0609      	lsls	r1, r1, #24
 80088e0:	d40a      	bmi.n	80088f8 <xPortStartScheduler+0x84>
 80088e2:	2b03      	cmp	r3, #3
 80088e4:	d011      	beq.n	800890a <xPortStartScheduler+0x96>
 80088e6:	f04f 0350 	mov.w	r3, #80	@ 0x50
 80088ea:	f383 8811 	msr	BASEPRI, r3
 80088ee:	f3bf 8f6f 	isb	sy
 80088f2:	f3bf 8f4f 	dsb	sy
 80088f6:	e7fe      	b.n	80088f6 <xPortStartScheduler+0x82>
 80088f8:	3b01      	subs	r3, #1
 80088fa:	6013      	str	r3, [r2, #0]
 80088fc:	f89d 3003 	ldrb.w	r3, [sp, #3]
 8008900:	005b      	lsls	r3, r3, #1
 8008902:	b2db      	uxtb	r3, r3
 8008904:	f88d 3003 	strb.w	r3, [sp, #3]
 8008908:	e7e6      	b.n	80088d8 <xPortStartScheduler+0x64>
 800890a:	f44f 7340 	mov.w	r3, #768	@ 0x300
 800890e:	6013      	str	r3, [r2, #0]
 8008910:	9b01      	ldr	r3, [sp, #4]
 8008912:	4a15      	ldr	r2, [pc, #84]	@ (8008968 <xPortStartScheduler+0xf4>)
 8008914:	f04f 24e0 	mov.w	r4, #3758153728	@ 0xe000e000
 8008918:	b2db      	uxtb	r3, r3
 800891a:	7013      	strb	r3, [r2, #0]
 800891c:	f8d4 3d20 	ldr.w	r3, [r4, #3360]	@ 0xd20
 8008920:	f443 0370 	orr.w	r3, r3, #15728640	@ 0xf00000
 8008924:	f8c4 3d20 	str.w	r3, [r4, #3360]	@ 0xd20
 8008928:	f8d4 3d20 	ldr.w	r3, [r4, #3360]	@ 0xd20
 800892c:	f043 4370 	orr.w	r3, r3, #4026531840	@ 0xf0000000
 8008930:	f8c4 3d20 	str.w	r3, [r4, #3360]	@ 0xd20
 8008934:	f7ff ff8c 	bl	8008850 <vPortSetupTimerInterrupt>
 8008938:	4b0e      	ldr	r3, [pc, #56]	@ (8008974 <xPortStartScheduler+0x100>)
 800893a:	2500      	movs	r5, #0
 800893c:	601d      	str	r5, [r3, #0]
 800893e:	f7ff feb3 	bl	80086a8 <vPortEnableVFP>
 8008942:	f8d4 3f34 	ldr.w	r3, [r4, #3892]	@ 0xf34
 8008946:	f043 4340 	orr.w	r3, r3, #3221225472	@ 0xc0000000
 800894a:	f8c4 3f34 	str.w	r3, [r4, #3892]	@ 0xf34
 800894e:	f7ff fe97 	bl	8008680 <prvPortStartFirstTask>
 8008952:	f000 fed5 	bl	8009700 <vTaskSwitchContext>
 8008956:	f7ff feb1 	bl	80086bc <prvTaskExitError>
 800895a:	4628      	mov	r0, r5
 800895c:	b003      	add	sp, #12
 800895e:	bd30      	pop	{r4, r5, pc}
 8008960:	410fc271 	.word	0x410fc271
 8008964:	410fc270 	.word	0x410fc270
 8008968:	e000e400 	.word	0xe000e400
 800896c:	2000de94 	.word	0x2000de94
 8008970:	2000de90 	.word	0x2000de90
 8008974:	20000518 	.word	0x20000518

08008978 <vPortValidateInterruptPriority>:
 8008978:	f3ef 8305 	mrs	r3, IPSR
 800897c:	2b0f      	cmp	r3, #15
 800897e:	d90e      	bls.n	800899e <vPortValidateInterruptPriority+0x26>
 8008980:	4a11      	ldr	r2, [pc, #68]	@ (80089c8 <vPortValidateInterruptPriority+0x50>)
 8008982:	5c9b      	ldrb	r3, [r3, r2]
 8008984:	4a11      	ldr	r2, [pc, #68]	@ (80089cc <vPortValidateInterruptPriority+0x54>)
 8008986:	7812      	ldrb	r2, [r2, #0]
 8008988:	429a      	cmp	r2, r3
 800898a:	d908      	bls.n	800899e <vPortValidateInterruptPriority+0x26>
 800898c:	f04f 0350 	mov.w	r3, #80	@ 0x50
 8008990:	f383 8811 	msr	BASEPRI, r3
 8008994:	f3bf 8f6f 	isb	sy
 8008998:	f3bf 8f4f 	dsb	sy
 800899c:	e7fe      	b.n	800899c <vPortValidateInterruptPriority+0x24>
 800899e:	f04f 23e0 	mov.w	r3, #3758153728	@ 0xe000e000
 80089a2:	4a0b      	ldr	r2, [pc, #44]	@ (80089d0 <vPortValidateInterruptPriority+0x58>)
 80089a4:	f8d3 3d0c 	ldr.w	r3, [r3, #3340]	@ 0xd0c
 80089a8:	6812      	ldr	r2, [r2, #0]
 80089aa:	f403 63e0 	and.w	r3, r3, #1792	@ 0x700
 80089ae:	4293      	cmp	r3, r2
 80089b0:	d908      	bls.n	80089c4 <vPortValidateInterruptPriority+0x4c>
 80089b2:	f04f 0350 	mov.w	r3, #80	@ 0x50
 80089b6:	f383 8811 	msr	BASEPRI, r3
 80089ba:	f3bf 8f6f 	isb	sy
 80089be:	f3bf 8f4f 	dsb	sy
 80089c2:	e7fe      	b.n	80089c2 <vPortValidateInterruptPriority+0x4a>
 80089c4:	4770      	bx	lr
 80089c6:	bf00      	nop
 80089c8:	e000e3f0 	.word	0xe000e3f0
 80089cc:	2000de94 	.word	0x2000de94
 80089d0:	2000de90 	.word	0x2000de90

080089d4 <prvIsQueueEmpty>:
 80089d4:	b510      	push	{r4, lr}
 80089d6:	4604      	mov	r4, r0
 80089d8:	f7ff febc 	bl	8008754 <vPortEnterCritical>
 80089dc:	6ba4      	ldr	r4, [r4, #56]	@ 0x38
 80089de:	f7ff fed9 	bl	8008794 <vPortExitCritical>
 80089e2:	fab4 f084 	clz	r0, r4
 80089e6:	0940      	lsrs	r0, r0, #5
 80089e8:	bd10      	pop	{r4, pc}

080089ea <prvCopyDataToQueue>:
 80089ea:	b570      	push	{r4, r5, r6, lr}
 80089ec:	4616      	mov	r6, r2
 80089ee:	6c02      	ldr	r2, [r0, #64]	@ 0x40
 80089f0:	6b85      	ldr	r5, [r0, #56]	@ 0x38
 80089f2:	4604      	mov	r4, r0
 80089f4:	b942      	cbnz	r2, 8008a08 <prvCopyDataToQueue+0x1e>
 80089f6:	6806      	ldr	r6, [r0, #0]
 80089f8:	b99e      	cbnz	r6, 8008a22 <prvCopyDataToQueue+0x38>
 80089fa:	6880      	ldr	r0, [r0, #8]
 80089fc:	f000 ff90 	bl	8009920 <xTaskPriorityDisinherit>
 8008a00:	60a6      	str	r6, [r4, #8]
 8008a02:	3501      	adds	r5, #1
 8008a04:	63a5      	str	r5, [r4, #56]	@ 0x38
 8008a06:	bd70      	pop	{r4, r5, r6, pc}
 8008a08:	b96e      	cbnz	r6, 8008a26 <prvCopyDataToQueue+0x3c>
 8008a0a:	6840      	ldr	r0, [r0, #4]
 8008a0c:	f001 fa3e 	bl	8009e8c <memcpy>
 8008a10:	6863      	ldr	r3, [r4, #4]
 8008a12:	6c22      	ldr	r2, [r4, #64]	@ 0x40
 8008a14:	4413      	add	r3, r2
 8008a16:	68a2      	ldr	r2, [r4, #8]
 8008a18:	6063      	str	r3, [r4, #4]
 8008a1a:	4293      	cmp	r3, r2
 8008a1c:	bf24      	itt	cs
 8008a1e:	6823      	ldrcs	r3, [r4, #0]
 8008a20:	6063      	strcs	r3, [r4, #4]
 8008a22:	2000      	movs	r0, #0
 8008a24:	e7ed      	b.n	8008a02 <prvCopyDataToQueue+0x18>
 8008a26:	68c0      	ldr	r0, [r0, #12]
 8008a28:	f001 fa30 	bl	8009e8c <memcpy>
 8008a2c:	6c22      	ldr	r2, [r4, #64]	@ 0x40
 8008a2e:	68e3      	ldr	r3, [r4, #12]
 8008a30:	4251      	negs	r1, r2
 8008a32:	1a9b      	subs	r3, r3, r2
 8008a34:	6822      	ldr	r2, [r4, #0]
 8008a36:	60e3      	str	r3, [r4, #12]
 8008a38:	4293      	cmp	r3, r2
 8008a3a:	bf3e      	ittt	cc
 8008a3c:	68a3      	ldrcc	r3, [r4, #8]
 8008a3e:	185b      	addcc	r3, r3, r1
 8008a40:	60e3      	strcc	r3, [r4, #12]
 8008a42:	2e02      	cmp	r6, #2
 8008a44:	d1ed      	bne.n	8008a22 <prvCopyDataToQueue+0x38>
 8008a46:	b10d      	cbz	r5, 8008a4c <prvCopyDataToQueue+0x62>
 8008a48:	3d01      	subs	r5, #1
 8008a4a:	e7ea      	b.n	8008a22 <prvCopyDataToQueue+0x38>
 8008a4c:	4628      	mov	r0, r5
 8008a4e:	e7d8      	b.n	8008a02 <prvCopyDataToQueue+0x18>

08008a50 <prvCopyDataFromQueue>:
 8008a50:	4603      	mov	r3, r0
 8008a52:	b410      	push	{r4}
 8008a54:	6c1a      	ldr	r2, [r3, #64]	@ 0x40
 8008a56:	4608      	mov	r0, r1
 8008a58:	b16a      	cbz	r2, 8008a76 <prvCopyDataFromQueue+0x26>
 8008a5a:	68dc      	ldr	r4, [r3, #12]
 8008a5c:	6899      	ldr	r1, [r3, #8]
 8008a5e:	4414      	add	r4, r2
 8008a60:	428c      	cmp	r4, r1
 8008a62:	bf28      	it	cs
 8008a64:	6819      	ldrcs	r1, [r3, #0]
 8008a66:	60dc      	str	r4, [r3, #12]
 8008a68:	bf28      	it	cs
 8008a6a:	60d9      	strcs	r1, [r3, #12]
 8008a6c:	68d9      	ldr	r1, [r3, #12]
 8008a6e:	f85d 4b04 	ldr.w	r4, [sp], #4
 8008a72:	f001 ba0b 	b.w	8009e8c <memcpy>
 8008a76:	f85d 4b04 	ldr.w	r4, [sp], #4
 8008a7a:	4770      	bx	lr

08008a7c <prvUnlockQueue>:
 8008a7c:	b570      	push	{r4, r5, r6, lr}
 8008a7e:	4604      	mov	r4, r0
 8008a80:	f7ff fe68 	bl	8008754 <vPortEnterCritical>
 8008a84:	f894 5045 	ldrb.w	r5, [r4, #69]	@ 0x45
 8008a88:	f104 0624 	add.w	r6, r4, #36	@ 0x24
 8008a8c:	b26d      	sxtb	r5, r5
 8008a8e:	2d00      	cmp	r5, #0
 8008a90:	dd01      	ble.n	8008a96 <prvUnlockQueue+0x1a>
 8008a92:	6a63      	ldr	r3, [r4, #36]	@ 0x24
 8008a94:	b9b3      	cbnz	r3, 8008ac4 <prvUnlockQueue+0x48>
 8008a96:	23ff      	movs	r3, #255	@ 0xff
 8008a98:	f884 3045 	strb.w	r3, [r4, #69]	@ 0x45
 8008a9c:	f7ff fe7a 	bl	8008794 <vPortExitCritical>
 8008aa0:	f7ff fe58 	bl	8008754 <vPortEnterCritical>
 8008aa4:	f894 5044 	ldrb.w	r5, [r4, #68]	@ 0x44
 8008aa8:	f104 0610 	add.w	r6, r4, #16
 8008aac:	b26d      	sxtb	r5, r5
 8008aae:	2d00      	cmp	r5, #0
 8008ab0:	dd01      	ble.n	8008ab6 <prvUnlockQueue+0x3a>
 8008ab2:	6923      	ldr	r3, [r4, #16]
 8008ab4:	b97b      	cbnz	r3, 8008ad6 <prvUnlockQueue+0x5a>
 8008ab6:	23ff      	movs	r3, #255	@ 0xff
 8008ab8:	f884 3044 	strb.w	r3, [r4, #68]	@ 0x44
 8008abc:	e8bd 4070 	ldmia.w	sp!, {r4, r5, r6, lr}
 8008ac0:	f7ff be68 	b.w	8008794 <vPortExitCritical>
 8008ac4:	4630      	mov	r0, r6
 8008ac6:	f000 fe8d 	bl	80097e4 <xTaskRemoveFromEventList>
 8008aca:	b108      	cbz	r0, 8008ad0 <prvUnlockQueue+0x54>
 8008acc:	f000 ff12 	bl	80098f4 <vTaskMissedYield>
 8008ad0:	3d01      	subs	r5, #1
 8008ad2:	b26d      	sxtb	r5, r5
 8008ad4:	e7db      	b.n	8008a8e <prvUnlockQueue+0x12>
 8008ad6:	4630      	mov	r0, r6
 8008ad8:	f000 fe84 	bl	80097e4 <xTaskRemoveFromEventList>
 8008adc:	b108      	cbz	r0, 8008ae2 <prvUnlockQueue+0x66>
 8008ade:	f000 ff09 	bl	80098f4 <vTaskMissedYield>
 8008ae2:	3d01      	subs	r5, #1
 8008ae4:	b26d      	sxtb	r5, r5
 8008ae6:	e7e2      	b.n	8008aae <prvUnlockQueue+0x32>

08008ae8 <xQueueGenericReset>:
 8008ae8:	b538      	push	{r3, r4, r5, lr}
 8008aea:	460d      	mov	r5, r1
 8008aec:	4604      	mov	r4, r0
 8008aee:	b940      	cbnz	r0, 8008b02 <xQueueGenericReset+0x1a>
 8008af0:	f04f 0350 	mov.w	r3, #80	@ 0x50
 8008af4:	f383 8811 	msr	BASEPRI, r3
 8008af8:	f3bf 8f6f 	isb	sy
 8008afc:	f3bf 8f4f 	dsb	sy
 8008b00:	e7fe      	b.n	8008b00 <xQueueGenericReset+0x18>
 8008b02:	f7ff fe27 	bl	8008754 <vPortEnterCritical>
 8008b06:	e9d4 310f 	ldrd	r3, r1, [r4, #60]	@ 0x3c
 8008b0a:	6822      	ldr	r2, [r4, #0]
 8008b0c:	6062      	str	r2, [r4, #4]
 8008b0e:	434b      	muls	r3, r1
 8008b10:	18d0      	adds	r0, r2, r3
 8008b12:	1a5b      	subs	r3, r3, r1
 8008b14:	441a      	add	r2, r3
 8008b16:	60a0      	str	r0, [r4, #8]
 8008b18:	23ff      	movs	r3, #255	@ 0xff
 8008b1a:	2000      	movs	r0, #0
 8008b1c:	63a0      	str	r0, [r4, #56]	@ 0x38
 8008b1e:	60e2      	str	r2, [r4, #12]
 8008b20:	f884 3044 	strb.w	r3, [r4, #68]	@ 0x44
 8008b24:	f884 3045 	strb.w	r3, [r4, #69]	@ 0x45
 8008b28:	b9a5      	cbnz	r5, 8008b54 <xQueueGenericReset+0x6c>
 8008b2a:	6923      	ldr	r3, [r4, #16]
 8008b2c:	b173      	cbz	r3, 8008b4c <xQueueGenericReset+0x64>
 8008b2e:	f104 0010 	add.w	r0, r4, #16
 8008b32:	f000 fe57 	bl	80097e4 <xTaskRemoveFromEventList>
 8008b36:	b148      	cbz	r0, 8008b4c <xQueueGenericReset+0x64>
 8008b38:	f04f 23e0 	mov.w	r3, #3758153728	@ 0xe000e000
 8008b3c:	f04f 5280 	mov.w	r2, #268435456	@ 0x10000000
 8008b40:	f8c3 2d04 	str.w	r2, [r3, #3332]	@ 0xd04
 8008b44:	f3bf 8f4f 	dsb	sy
 8008b48:	f3bf 8f6f 	isb	sy
 8008b4c:	f7ff fe22 	bl	8008794 <vPortExitCritical>
 8008b50:	2001      	movs	r0, #1
 8008b52:	bd38      	pop	{r3, r4, r5, pc}
 8008b54:	f104 0010 	add.w	r0, r4, #16
 8008b58:	f7ff fd52 	bl	8008600 <vListInitialise>
 8008b5c:	f104 0024 	add.w	r0, r4, #36	@ 0x24
 8008b60:	f7ff fd4e 	bl	8008600 <vListInitialise>
 8008b64:	e7f2      	b.n	8008b4c <xQueueGenericReset+0x64>

08008b66 <xQueueGenericCreateStatic>:
 8008b66:	b537      	push	{r0, r1, r2, r4, r5, lr}
 8008b68:	460d      	mov	r5, r1
 8008b6a:	461c      	mov	r4, r3
 8008b6c:	b940      	cbnz	r0, 8008b80 <xQueueGenericCreateStatic+0x1a>
 8008b6e:	f04f 0350 	mov.w	r3, #80	@ 0x50
 8008b72:	f383 8811 	msr	BASEPRI, r3
 8008b76:	f3bf 8f6f 	isb	sy
 8008b7a:	f3bf 8f4f 	dsb	sy
 8008b7e:	e7fe      	b.n	8008b7e <xQueueGenericCreateStatic+0x18>
 8008b80:	b943      	cbnz	r3, 8008b94 <xQueueGenericCreateStatic+0x2e>
 8008b82:	f04f 0350 	mov.w	r3, #80	@ 0x50
 8008b86:	f383 8811 	msr	BASEPRI, r3
 8008b8a:	f3bf 8f6f 	isb	sy
 8008b8e:	f3bf 8f4f 	dsb	sy
 8008b92:	e7fe      	b.n	8008b92 <xQueueGenericCreateStatic+0x2c>
 8008b94:	b14a      	cbz	r2, 8008baa <xQueueGenericCreateStatic+0x44>
 8008b96:	b991      	cbnz	r1, 8008bbe <xQueueGenericCreateStatic+0x58>
 8008b98:	f04f 0350 	mov.w	r3, #80	@ 0x50
 8008b9c:	f383 8811 	msr	BASEPRI, r3
 8008ba0:	f3bf 8f6f 	isb	sy
 8008ba4:	f3bf 8f4f 	dsb	sy
 8008ba8:	e7fe      	b.n	8008ba8 <xQueueGenericCreateStatic+0x42>
 8008baa:	b141      	cbz	r1, 8008bbe <xQueueGenericCreateStatic+0x58>
 8008bac:	f04f 0350 	mov.w	r3, #80	@ 0x50
 8008bb0:	f383 8811 	msr	BASEPRI, r3
 8008bb4:	f3bf 8f6f 	isb	sy
 8008bb8:	f3bf 8f4f 	dsb	sy
 8008bbc:	e7fe      	b.n	8008bbc <xQueueGenericCreateStatic+0x56>
 8008bbe:	2350      	movs	r3, #80	@ 0x50
 8008bc0:	9301      	str	r3, [sp, #4]
 8008bc2:	9b01      	ldr	r3, [sp, #4]
 8008bc4:	2b50      	cmp	r3, #80	@ 0x50
 8008bc6:	d008      	beq.n	8008bda <xQueueGenericCreateStatic+0x74>
 8008bc8:	f04f 0350 	mov.w	r3, #80	@ 0x50
 8008bcc:	f383 8811 	msr	BASEPRI, r3
 8008bd0:	f3bf 8f6f 	isb	sy
 8008bd4:	f3bf 8f4f 	dsb	sy
 8008bd8:	e7fe      	b.n	8008bd8 <xQueueGenericCreateStatic+0x72>
 8008bda:	2101      	movs	r1, #1
 8008bdc:	2d00      	cmp	r5, #0
 8008bde:	bf08      	it	eq
 8008be0:	4622      	moveq	r2, r4
 8008be2:	e9c4 050f 	strd	r0, r5, [r4, #60]	@ 0x3c
 8008be6:	f884 1046 	strb.w	r1, [r4, #70]	@ 0x46
 8008bea:	6022      	str	r2, [r4, #0]
 8008bec:	4620      	mov	r0, r4
 8008bee:	9b01      	ldr	r3, [sp, #4]
 8008bf0:	f7ff ff7a 	bl	8008ae8 <xQueueGenericReset>
 8008bf4:	f89d 3018 	ldrb.w	r3, [sp, #24]
 8008bf8:	f884 304c 	strb.w	r3, [r4, #76]	@ 0x4c
 8008bfc:	4620      	mov	r0, r4
 8008bfe:	b003      	add	sp, #12
 8008c00:	bd30      	pop	{r4, r5, pc}

08008c02 <xQueueGenericSend>:
 8008c02:	e92d 41ff 	stmdb	sp!, {r0, r1, r2, r3, r4, r5, r6, r7, r8, lr}
 8008c06:	460f      	mov	r7, r1
 8008c08:	9201      	str	r2, [sp, #4]
 8008c0a:	461e      	mov	r6, r3
 8008c0c:	4604      	mov	r4, r0
 8008c0e:	b940      	cbnz	r0, 8008c22 <xQueueGenericSend+0x20>
 8008c10:	f04f 0350 	mov.w	r3, #80	@ 0x50
 8008c14:	f383 8811 	msr	BASEPRI, r3
 8008c18:	f3bf 8f6f 	isb	sy
 8008c1c:	f3bf 8f4f 	dsb	sy
 8008c20:	e7fe      	b.n	8008c20 <xQueueGenericSend+0x1e>
 8008c22:	b951      	cbnz	r1, 8008c3a <xQueueGenericSend+0x38>
 8008c24:	6c03      	ldr	r3, [r0, #64]	@ 0x40
 8008c26:	b143      	cbz	r3, 8008c3a <xQueueGenericSend+0x38>
 8008c28:	f04f 0350 	mov.w	r3, #80	@ 0x50
 8008c2c:	f383 8811 	msr	BASEPRI, r3
 8008c30:	f3bf 8f6f 	isb	sy
 8008c34:	f3bf 8f4f 	dsb	sy
 8008c38:	e7fe      	b.n	8008c38 <xQueueGenericSend+0x36>
 8008c3a:	2e02      	cmp	r6, #2
 8008c3c:	d10b      	bne.n	8008c56 <xQueueGenericSend+0x54>
 8008c3e:	6be3      	ldr	r3, [r4, #60]	@ 0x3c
 8008c40:	2b01      	cmp	r3, #1
 8008c42:	d008      	beq.n	8008c56 <xQueueGenericSend+0x54>
 8008c44:	f04f 0350 	mov.w	r3, #80	@ 0x50
 8008c48:	f383 8811 	msr	BASEPRI, r3
 8008c4c:	f3bf 8f6f 	isb	sy
 8008c50:	f3bf 8f4f 	dsb	sy
 8008c54:	e7fe      	b.n	8008c54 <xQueueGenericSend+0x52>
 8008c56:	f000 fe53 	bl	8009900 <xTaskGetSchedulerState>
 8008c5a:	4605      	mov	r5, r0
 8008c5c:	b320      	cbz	r0, 8008ca8 <xQueueGenericSend+0xa6>
 8008c5e:	2500      	movs	r5, #0
 8008c60:	f04f 0800 	mov.w	r8, #0
 8008c64:	f7ff fd76 	bl	8008754 <vPortEnterCritical>
 8008c68:	6ba2      	ldr	r2, [r4, #56]	@ 0x38
 8008c6a:	6be3      	ldr	r3, [r4, #60]	@ 0x3c
 8008c6c:	429a      	cmp	r2, r3
 8008c6e:	d227      	bcs.n	8008cc0 <xQueueGenericSend+0xbe>
 8008c70:	4632      	mov	r2, r6
 8008c72:	4639      	mov	r1, r7
 8008c74:	4620      	mov	r0, r4
 8008c76:	f7ff feb8 	bl	80089ea <prvCopyDataToQueue>
 8008c7a:	6a63      	ldr	r3, [r4, #36]	@ 0x24
 8008c7c:	b11b      	cbz	r3, 8008c86 <xQueueGenericSend+0x84>
 8008c7e:	f104 0024 	add.w	r0, r4, #36	@ 0x24
 8008c82:	f000 fdaf 	bl	80097e4 <xTaskRemoveFromEventList>
 8008c86:	b148      	cbz	r0, 8008c9c <xQueueGenericSend+0x9a>
 8008c88:	f04f 23e0 	mov.w	r3, #3758153728	@ 0xe000e000
 8008c8c:	f04f 5280 	mov.w	r2, #268435456	@ 0x10000000
 8008c90:	f8c3 2d04 	str.w	r2, [r3, #3332]	@ 0xd04
 8008c94:	f3bf 8f4f 	dsb	sy
 8008c98:	f3bf 8f6f 	isb	sy
 8008c9c:	f7ff fd7a 	bl	8008794 <vPortExitCritical>
 8008ca0:	2001      	movs	r0, #1
 8008ca2:	b004      	add	sp, #16
 8008ca4:	e8bd 81f0 	ldmia.w	sp!, {r4, r5, r6, r7, r8, pc}
 8008ca8:	9b01      	ldr	r3, [sp, #4]
 8008caa:	2b00      	cmp	r3, #0
 8008cac:	d0d8      	beq.n	8008c60 <xQueueGenericSend+0x5e>
 8008cae:	f04f 0350 	mov.w	r3, #80	@ 0x50
 8008cb2:	f383 8811 	msr	BASEPRI, r3
 8008cb6:	f3bf 8f6f 	isb	sy
 8008cba:	f3bf 8f4f 	dsb	sy
 8008cbe:	e7fe      	b.n	8008cbe <xQueueGenericSend+0xbc>
 8008cc0:	2e02      	cmp	r6, #2
 8008cc2:	d0d5      	beq.n	8008c70 <xQueueGenericSend+0x6e>
 8008cc4:	9b01      	ldr	r3, [sp, #4]
 8008cc6:	b91b      	cbnz	r3, 8008cd0 <xQueueGenericSend+0xce>
 8008cc8:	f7ff fd64 	bl	8008794 <vPortExitCritical>
 8008ccc:	2000      	movs	r0, #0
 8008cce:	e7e8      	b.n	8008ca2 <xQueueGenericSend+0xa0>
 8008cd0:	b915      	cbnz	r5, 8008cd8 <xQueueGenericSend+0xd6>
 8008cd2:	a802      	add	r0, sp, #8
 8008cd4:	f000 fdc6 	bl	8009864 <vTaskInternalSetTimeOutState>
 8008cd8:	f7ff fd5c 	bl	8008794 <vPortExitCritical>
 8008cdc:	f000 fb82 	bl	80093e4 <vTaskSuspendAll>
 8008ce0:	f7ff fd38 	bl	8008754 <vPortEnterCritical>
 8008ce4:	f894 3044 	ldrb.w	r3, [r4, #68]	@ 0x44
 8008ce8:	2bff      	cmp	r3, #255	@ 0xff
 8008cea:	bf08      	it	eq
 8008cec:	f884 8044 	strbeq.w	r8, [r4, #68]	@ 0x44
 8008cf0:	f894 3045 	ldrb.w	r3, [r4, #69]	@ 0x45
 8008cf4:	2bff      	cmp	r3, #255	@ 0xff
 8008cf6:	bf08      	it	eq
 8008cf8:	f884 8045 	strbeq.w	r8, [r4, #69]	@ 0x45
 8008cfc:	f7ff fd4a 	bl	8008794 <vPortExitCritical>
 8008d00:	a901      	add	r1, sp, #4
 8008d02:	a802      	add	r0, sp, #8
 8008d04:	f000 fdba 	bl	800987c <xTaskCheckForTimeOut>
 8008d08:	bb38      	cbnz	r0, 8008d5a <xQueueGenericSend+0x158>
 8008d0a:	f7ff fd23 	bl	8008754 <vPortEnterCritical>
 8008d0e:	6ba2      	ldr	r2, [r4, #56]	@ 0x38
 8008d10:	6be3      	ldr	r3, [r4, #60]	@ 0x3c
 8008d12:	429a      	cmp	r2, r3
 8008d14:	d10e      	bne.n	8008d34 <xQueueGenericSend+0x132>
 8008d16:	f7ff fd3d 	bl	8008794 <vPortExitCritical>
 8008d1a:	9901      	ldr	r1, [sp, #4]
 8008d1c:	f104 0010 	add.w	r0, r4, #16
 8008d20:	f000 fd28 	bl	8009774 <vTaskPlaceOnEventList>
 8008d24:	4620      	mov	r0, r4
 8008d26:	f7ff fea9 	bl	8008a7c <prvUnlockQueue>
 8008d2a:	f000 fc07 	bl	800953c <xTaskResumeAll>
 8008d2e:	b148      	cbz	r0, 8008d44 <xQueueGenericSend+0x142>
 8008d30:	2501      	movs	r5, #1
 8008d32:	e797      	b.n	8008c64 <xQueueGenericSend+0x62>
 8008d34:	f7ff fd2e 	bl	8008794 <vPortExitCritical>
 8008d38:	4620      	mov	r0, r4
 8008d3a:	f7ff fe9f 	bl	8008a7c <prvUnlockQueue>
 8008d3e:	f000 fbfd 	bl	800953c <xTaskResumeAll>
 8008d42:	e7f5      	b.n	8008d30 <xQueueGenericSend+0x12e>
 8008d44:	f04f 23e0 	mov.w	r3, #3758153728	@ 0xe000e000
 8008d48:	f04f 5280 	mov.w	r2, #268435456	@ 0x10000000
 8008d4c:	f8c3 2d04 	str.w	r2, [r3, #3332]	@ 0xd04
 8008d50:	f3bf 8f4f 	dsb	sy
 8008d54:	f3bf 8f6f 	isb	sy
 8008d58:	e7ea      	b.n	8008d30 <xQueueGenericSend+0x12e>
 8008d5a:	4620      	mov	r0, r4
 8008d5c:	f7ff fe8e 	bl	8008a7c <prvUnlockQueue>
 8008d60:	f000 fbec 	bl	800953c <xTaskResumeAll>
 8008d64:	e7b2      	b.n	8008ccc <xQueueGenericSend+0xca>

08008d66 <xQueueGenericSendFromISR>:
 8008d66:	e92d 43f8 	stmdb	sp!, {r3, r4, r5, r6, r7, r8, r9, lr}
 8008d6a:	4689      	mov	r9, r1
 8008d6c:	4617      	mov	r7, r2
 8008d6e:	461e      	mov	r6, r3
 8008d70:	4604      	mov	r4, r0
 8008d72:	b940      	cbnz	r0, 8008d86 <xQueueGenericSendFromISR+0x20>
 8008d74:	f04f 0350 	mov.w	r3, #80	@ 0x50
 8008d78:	f383 8811 	msr	BASEPRI, r3
 8008d7c:	f3bf 8f6f 	isb	sy
 8008d80:	f3bf 8f4f 	dsb	sy
 8008d84:	e7fe      	b.n	8008d84 <xQueueGenericSendFromISR+0x1e>
 8008d86:	b951      	cbnz	r1, 8008d9e <xQueueGenericSendFromISR+0x38>
 8008d88:	6c03      	ldr	r3, [r0, #64]	@ 0x40
 8008d8a:	b143      	cbz	r3, 8008d9e <xQueueGenericSendFromISR+0x38>
 8008d8c:	f04f 0350 	mov.w	r3, #80	@ 0x50
 8008d90:	f383 8811 	msr	BASEPRI, r3
 8008d94:	f3bf 8f6f 	isb	sy
 8008d98:	f3bf 8f4f 	dsb	sy
 8008d9c:	e7fe      	b.n	8008d9c <xQueueGenericSendFromISR+0x36>
 8008d9e:	2e02      	cmp	r6, #2
 8008da0:	d10b      	bne.n	8008dba <xQueueGenericSendFromISR+0x54>
 8008da2:	6be3      	ldr	r3, [r4, #60]	@ 0x3c
 8008da4:	2b01      	cmp	r3, #1
 8008da6:	d008      	beq.n	8008dba <xQueueGenericSendFromISR+0x54>
 8008da8:	f04f 0350 	mov.w	r3, #80	@ 0x50
 8008dac:	f383 8811 	msr	BASEPRI, r3
 8008db0:	f3bf 8f6f 	isb	sy
 8008db4:	f3bf 8f4f 	dsb	sy
 8008db8:	e7fe      	b.n	8008db8 <xQueueGenericSendFromISR+0x52>
 8008dba:	f7ff fddd 	bl	8008978 <vPortValidateInterruptPriority>
 8008dbe:	f3ef 8811 	mrs	r8, BASEPRI
 8008dc2:	f04f 0350 	mov.w	r3, #80	@ 0x50
 8008dc6:	f383 8811 	msr	BASEPRI, r3
 8008dca:	f3bf 8f6f 	isb	sy
 8008dce:	f3bf 8f4f 	dsb	sy
 8008dd2:	6ba2      	ldr	r2, [r4, #56]	@ 0x38
 8008dd4:	6be3      	ldr	r3, [r4, #60]	@ 0x3c
 8008dd6:	429a      	cmp	r2, r3
 8008dd8:	d301      	bcc.n	8008dde <xQueueGenericSendFromISR+0x78>
 8008dda:	2e02      	cmp	r6, #2
 8008ddc:	d11e      	bne.n	8008e1c <xQueueGenericSendFromISR+0xb6>
 8008dde:	f894 5045 	ldrb.w	r5, [r4, #69]	@ 0x45
 8008de2:	6ba3      	ldr	r3, [r4, #56]	@ 0x38
 8008de4:	b26d      	sxtb	r5, r5
 8008de6:	4632      	mov	r2, r6
 8008de8:	4649      	mov	r1, r9
 8008dea:	4620      	mov	r0, r4
 8008dec:	f7ff fdfd 	bl	80089ea <prvCopyDataToQueue>
 8008df0:	1c6b      	adds	r3, r5, #1
 8008df2:	d10e      	bne.n	8008e12 <xQueueGenericSendFromISR+0xac>
 8008df4:	6a63      	ldr	r3, [r4, #36]	@ 0x24
 8008df6:	b13b      	cbz	r3, 8008e08 <xQueueGenericSendFromISR+0xa2>
 8008df8:	f104 0024 	add.w	r0, r4, #36	@ 0x24
 8008dfc:	f000 fcf2 	bl	80097e4 <xTaskRemoveFromEventList>
 8008e00:	b110      	cbz	r0, 8008e08 <xQueueGenericSendFromISR+0xa2>
 8008e02:	b10f      	cbz	r7, 8008e08 <xQueueGenericSendFromISR+0xa2>
 8008e04:	2301      	movs	r3, #1
 8008e06:	603b      	str	r3, [r7, #0]
 8008e08:	2001      	movs	r0, #1
 8008e0a:	f388 8811 	msr	BASEPRI, r8
 8008e0e:	e8bd 83f8 	ldmia.w	sp!, {r3, r4, r5, r6, r7, r8, r9, pc}
 8008e12:	3501      	adds	r5, #1
 8008e14:	b26d      	sxtb	r5, r5
 8008e16:	f884 5045 	strb.w	r5, [r4, #69]	@ 0x45
 8008e1a:	e7f5      	b.n	8008e08 <xQueueGenericSendFromISR+0xa2>
 8008e1c:	2000      	movs	r0, #0
 8008e1e:	e7f4      	b.n	8008e0a <xQueueGenericSendFromISR+0xa4>

08008e20 <xQueueReceive>:
 8008e20:	e92d 41ff 	stmdb	sp!, {r0, r1, r2, r3, r4, r5, r6, r7, r8, lr}
 8008e24:	460e      	mov	r6, r1
 8008e26:	9201      	str	r2, [sp, #4]
 8008e28:	4604      	mov	r4, r0
 8008e2a:	b940      	cbnz	r0, 8008e3e <xQueueReceive+0x1e>
 8008e2c:	f04f 0350 	mov.w	r3, #80	@ 0x50
 8008e30:	f383 8811 	msr	BASEPRI, r3
 8008e34:	f3bf 8f6f 	isb	sy
 8008e38:	f3bf 8f4f 	dsb	sy
 8008e3c:	e7fe      	b.n	8008e3c <xQueueReceive+0x1c>
 8008e3e:	b951      	cbnz	r1, 8008e56 <xQueueReceive+0x36>
 8008e40:	6c03      	ldr	r3, [r0, #64]	@ 0x40
 8008e42:	b143      	cbz	r3, 8008e56 <xQueueReceive+0x36>
 8008e44:	f04f 0350 	mov.w	r3, #80	@ 0x50
 8008e48:	f383 8811 	msr	BASEPRI, r3
 8008e4c:	f3bf 8f6f 	isb	sy
 8008e50:	f3bf 8f4f 	dsb	sy
 8008e54:	e7fe      	b.n	8008e54 <xQueueReceive+0x34>
 8008e56:	f000 fd53 	bl	8009900 <xTaskGetSchedulerState>
 8008e5a:	4605      	mov	r5, r0
 8008e5c:	b318      	cbz	r0, 8008ea6 <xQueueReceive+0x86>
 8008e5e:	2500      	movs	r5, #0
 8008e60:	f04f 0800 	mov.w	r8, #0
 8008e64:	f7ff fc76 	bl	8008754 <vPortEnterCritical>
 8008e68:	6ba7      	ldr	r7, [r4, #56]	@ 0x38
 8008e6a:	b347      	cbz	r7, 8008ebe <xQueueReceive+0x9e>
 8008e6c:	4631      	mov	r1, r6
 8008e6e:	4620      	mov	r0, r4
 8008e70:	3f01      	subs	r7, #1
 8008e72:	f7ff fded 	bl	8008a50 <prvCopyDataFromQueue>
 8008e76:	63a7      	str	r7, [r4, #56]	@ 0x38
 8008e78:	6923      	ldr	r3, [r4, #16]
 8008e7a:	b173      	cbz	r3, 8008e9a <xQueueReceive+0x7a>
 8008e7c:	f104 0010 	add.w	r0, r4, #16
 8008e80:	f000 fcb0 	bl	80097e4 <xTaskRemoveFromEventList>
 8008e84:	b148      	cbz	r0, 8008e9a <xQueueReceive+0x7a>
 8008e86:	f04f 23e0 	mov.w	r3, #3758153728	@ 0xe000e000
 8008e8a:	f04f 5280 	mov.w	r2, #268435456	@ 0x10000000
 8008e8e:	f8c3 2d04 	str.w	r2, [r3, #3332]	@ 0xd04
 8008e92:	f3bf 8f4f 	dsb	sy
 8008e96:	f3bf 8f6f 	isb	sy
 8008e9a:	f7ff fc7b 	bl	8008794 <vPortExitCritical>
 8008e9e:	2001      	movs	r0, #1
 8008ea0:	b004      	add	sp, #16
 8008ea2:	e8bd 81f0 	ldmia.w	sp!, {r4, r5, r6, r7, r8, pc}
 8008ea6:	9b01      	ldr	r3, [sp, #4]
 8008ea8:	2b00      	cmp	r3, #0
 8008eaa:	d0d9      	beq.n	8008e60 <xQueueReceive+0x40>
 8008eac:	f04f 0350 	mov.w	r3, #80	@ 0x50
 8008eb0:	f383 8811 	msr	BASEPRI, r3
 8008eb4:	f3bf 8f6f 	isb	sy
 8008eb8:	f3bf 8f4f 	dsb	sy
 8008ebc:	e7fe      	b.n	8008ebc <xQueueReceive+0x9c>
 8008ebe:	9b01      	ldr	r3, [sp, #4]
 8008ec0:	b91b      	cbnz	r3, 8008eca <xQueueReceive+0xaa>
 8008ec2:	f7ff fc67 	bl	8008794 <vPortExitCritical>
 8008ec6:	2000      	movs	r0, #0
 8008ec8:	e7ea      	b.n	8008ea0 <xQueueReceive+0x80>
 8008eca:	b915      	cbnz	r5, 8008ed2 <xQueueReceive+0xb2>
 8008ecc:	a802      	add	r0, sp, #8
 8008ece:	f000 fcc9 	bl	8009864 <vTaskInternalSetTimeOutState>
 8008ed2:	f7ff fc5f 	bl	8008794 <vPortExitCritical>
 8008ed6:	f000 fa85 	bl	80093e4 <vTaskSuspendAll>
 8008eda:	f7ff fc3b 	bl	8008754 <vPortEnterCritical>
 8008ede:	f894 3044 	ldrb.w	r3, [r4, #68]	@ 0x44
 8008ee2:	2bff      	cmp	r3, #255	@ 0xff
 8008ee4:	bf08      	it	eq
 8008ee6:	f884 8044 	strbeq.w	r8, [r4, #68]	@ 0x44
 8008eea:	f894 3045 	ldrb.w	r3, [r4, #69]	@ 0x45
 8008eee:	2bff      	cmp	r3, #255	@ 0xff
 8008ef0:	bf08      	it	eq
 8008ef2:	f884 8045 	strbeq.w	r8, [r4, #69]	@ 0x45
 8008ef6:	f7ff fc4d 	bl	8008794 <vPortExitCritical>
 8008efa:	a901      	add	r1, sp, #4
 8008efc:	a802      	add	r0, sp, #8
 8008efe:	f000 fcbd 	bl	800987c <xTaskCheckForTimeOut>
 8008f02:	bb00      	cbnz	r0, 8008f46 <xQueueReceive+0x126>
 8008f04:	4620      	mov	r0, r4
 8008f06:	f7ff fd65 	bl	80089d4 <prvIsQueueEmpty>
 8008f0a:	b1b0      	cbz	r0, 8008f3a <xQueueReceive+0x11a>
 8008f0c:	9901      	ldr	r1, [sp, #4]
 8008f0e:	f104 0024 	add.w	r0, r4, #36	@ 0x24
 8008f12:	f000 fc2f 	bl	8009774 <vTaskPlaceOnEventList>
 8008f16:	4620      	mov	r0, r4
 8008f18:	f7ff fdb0 	bl	8008a7c <prvUnlockQueue>
 8008f1c:	f000 fb0e 	bl	800953c <xTaskResumeAll>
 8008f20:	b948      	cbnz	r0, 8008f36 <xQueueReceive+0x116>
 8008f22:	f04f 23e0 	mov.w	r3, #3758153728	@ 0xe000e000
 8008f26:	f04f 5280 	mov.w	r2, #268435456	@ 0x10000000
 8008f2a:	f8c3 2d04 	str.w	r2, [r3, #3332]	@ 0xd04
 8008f2e:	f3bf 8f4f 	dsb	sy
 8008f32:	f3bf 8f6f 	isb	sy
 8008f36:	2501      	movs	r5, #1
 8008f38:	e794      	b.n	8008e64 <xQueueReceive+0x44>
 8008f3a:	4620      	mov	r0, r4
 8008f3c:	f7ff fd9e 	bl	8008a7c <prvUnlockQueue>
 8008f40:	f000 fafc 	bl	800953c <xTaskResumeAll>
 8008f44:	e7f7      	b.n	8008f36 <xQueueReceive+0x116>
 8008f46:	4620      	mov	r0, r4
 8008f48:	f7ff fd98 	bl	8008a7c <prvUnlockQueue>
 8008f4c:	f000 faf6 	bl	800953c <xTaskResumeAll>
 8008f50:	4620      	mov	r0, r4
 8008f52:	f7ff fd3f 	bl	80089d4 <prvIsQueueEmpty>
 8008f56:	2800      	cmp	r0, #0
 8008f58:	d0ed      	beq.n	8008f36 <xQueueReceive+0x116>
 8008f5a:	e7b4      	b.n	8008ec6 <xQueueReceive+0xa6>

08008f5c <vQueueAddToRegistry>:
 8008f5c:	b530      	push	{r4, r5, lr}
 8008f5e:	4a07      	ldr	r2, [pc, #28]	@ (8008f7c <vQueueAddToRegistry+0x20>)
 8008f60:	2300      	movs	r3, #0
 8008f62:	f852 5033 	ldr.w	r5, [r2, r3, lsl #3]
 8008f66:	eb02 04c3 	add.w	r4, r2, r3, lsl #3
 8008f6a:	b91d      	cbnz	r5, 8008f74 <vQueueAddToRegistry+0x18>
 8008f6c:	f842 1033 	str.w	r1, [r2, r3, lsl #3]
 8008f70:	6060      	str	r0, [r4, #4]
 8008f72:	bd30      	pop	{r4, r5, pc}
 8008f74:	3301      	adds	r3, #1
 8008f76:	2b08      	cmp	r3, #8
 8008f78:	d1f3      	bne.n	8008f62 <vQueueAddToRegistry+0x6>
 8008f7a:	e7fa      	b.n	8008f72 <vQueueAddToRegistry+0x16>
 8008f7c:	2000de98 	.word	0x2000de98

08008f80 <vQueueWaitForMessageRestricted>:
 8008f80:	b570      	push	{r4, r5, r6, lr}
 8008f82:	4604      	mov	r4, r0
 8008f84:	460d      	mov	r5, r1
 8008f86:	4616      	mov	r6, r2
 8008f88:	f7ff fbe4 	bl	8008754 <vPortEnterCritical>
 8008f8c:	f894 3044 	ldrb.w	r3, [r4, #68]	@ 0x44
 8008f90:	2bff      	cmp	r3, #255	@ 0xff
 8008f92:	bf04      	itt	eq
 8008f94:	2300      	moveq	r3, #0
 8008f96:	f884 3044 	strbeq.w	r3, [r4, #68]	@ 0x44
 8008f9a:	f894 3045 	ldrb.w	r3, [r4, #69]	@ 0x45
 8008f9e:	2bff      	cmp	r3, #255	@ 0xff
 8008fa0:	bf04      	itt	eq
 8008fa2:	2300      	moveq	r3, #0
 8008fa4:	f884 3045 	strbeq.w	r3, [r4, #69]	@ 0x45
 8008fa8:	f7ff fbf4 	bl	8008794 <vPortExitCritical>
 8008fac:	6ba3      	ldr	r3, [r4, #56]	@ 0x38
 8008fae:	b92b      	cbnz	r3, 8008fbc <vQueueWaitForMessageRestricted+0x3c>
 8008fb0:	4632      	mov	r2, r6
 8008fb2:	4629      	mov	r1, r5
 8008fb4:	f104 0024 	add.w	r0, r4, #36	@ 0x24
 8008fb8:	f000 fbf6 	bl	80097a8 <vTaskPlaceOnEventListRestricted>
 8008fbc:	4620      	mov	r0, r4
 8008fbe:	e8bd 4070 	ldmia.w	sp!, {r4, r5, r6, lr}
 8008fc2:	f7ff bd5b 	b.w	8008a7c <prvUnlockQueue>
	...

08008fc8 <prvAddNewTaskToReadyList>:
 8008fc8:	e92d 41f0 	stmdb	sp!, {r4, r5, r6, r7, r8, lr}
 8008fcc:	4604      	mov	r4, r0
 8008fce:	f7ff fbc1 	bl	8008754 <vPortEnterCritical>
 8008fd2:	4b30      	ldr	r3, [pc, #192]	@ (8009094 <prvAddNewTaskToReadyList+0xcc>)
 8008fd4:	4e30      	ldr	r6, [pc, #192]	@ (8009098 <prvAddNewTaskToReadyList+0xd0>)
 8008fd6:	681a      	ldr	r2, [r3, #0]
 8008fd8:	4f30      	ldr	r7, [pc, #192]	@ (800909c <prvAddNewTaskToReadyList+0xd4>)
 8008fda:	3201      	adds	r2, #1
 8008fdc:	601a      	str	r2, [r3, #0]
 8008fde:	6835      	ldr	r5, [r6, #0]
 8008fe0:	2d00      	cmp	r5, #0
 8008fe2:	d14b      	bne.n	800907c <prvAddNewTaskToReadyList+0xb4>
 8008fe4:	6034      	str	r4, [r6, #0]
 8008fe6:	681b      	ldr	r3, [r3, #0]
 8008fe8:	2b01      	cmp	r3, #1
 8008fea:	d11f      	bne.n	800902c <prvAddNewTaskToReadyList+0x64>
 8008fec:	46b8      	mov	r8, r7
 8008fee:	4640      	mov	r0, r8
 8008ff0:	3501      	adds	r5, #1
 8008ff2:	f7ff fb05 	bl	8008600 <vListInitialise>
 8008ff6:	2d38      	cmp	r5, #56	@ 0x38
 8008ff8:	f108 0814 	add.w	r8, r8, #20
 8008ffc:	d1f7      	bne.n	8008fee <prvAddNewTaskToReadyList+0x26>
 8008ffe:	f8df 80c4 	ldr.w	r8, [pc, #196]	@ 80090c4 <prvAddNewTaskToReadyList+0xfc>
 8009002:	4d27      	ldr	r5, [pc, #156]	@ (80090a0 <prvAddNewTaskToReadyList+0xd8>)
 8009004:	4640      	mov	r0, r8
 8009006:	f7ff fafb 	bl	8008600 <vListInitialise>
 800900a:	4628      	mov	r0, r5
 800900c:	f7ff faf8 	bl	8008600 <vListInitialise>
 8009010:	4824      	ldr	r0, [pc, #144]	@ (80090a4 <prvAddNewTaskToReadyList+0xdc>)
 8009012:	f7ff faf5 	bl	8008600 <vListInitialise>
 8009016:	4824      	ldr	r0, [pc, #144]	@ (80090a8 <prvAddNewTaskToReadyList+0xe0>)
 8009018:	f7ff faf2 	bl	8008600 <vListInitialise>
 800901c:	4823      	ldr	r0, [pc, #140]	@ (80090ac <prvAddNewTaskToReadyList+0xe4>)
 800901e:	f7ff faef 	bl	8008600 <vListInitialise>
 8009022:	4b23      	ldr	r3, [pc, #140]	@ (80090b0 <prvAddNewTaskToReadyList+0xe8>)
 8009024:	f8c3 8000 	str.w	r8, [r3]
 8009028:	4b22      	ldr	r3, [pc, #136]	@ (80090b4 <prvAddNewTaskToReadyList+0xec>)
 800902a:	601d      	str	r5, [r3, #0]
 800902c:	4a22      	ldr	r2, [pc, #136]	@ (80090b8 <prvAddNewTaskToReadyList+0xf0>)
 800902e:	6813      	ldr	r3, [r2, #0]
 8009030:	3301      	adds	r3, #1
 8009032:	6013      	str	r3, [r2, #0]
 8009034:	4a21      	ldr	r2, [pc, #132]	@ (80090bc <prvAddNewTaskToReadyList+0xf4>)
 8009036:	6463      	str	r3, [r4, #68]	@ 0x44
 8009038:	6811      	ldr	r1, [r2, #0]
 800903a:	6ae3      	ldr	r3, [r4, #44]	@ 0x2c
 800903c:	2014      	movs	r0, #20
 800903e:	428b      	cmp	r3, r1
 8009040:	fb00 7003 	mla	r0, r0, r3, r7
 8009044:	f104 0104 	add.w	r1, r4, #4
 8009048:	bf88      	it	hi
 800904a:	6013      	strhi	r3, [r2, #0]
 800904c:	f7ff fae6 	bl	800861c <vListInsertEnd>
 8009050:	f7ff fba0 	bl	8008794 <vPortExitCritical>
 8009054:	4b1a      	ldr	r3, [pc, #104]	@ (80090c0 <prvAddNewTaskToReadyList+0xf8>)
 8009056:	681b      	ldr	r3, [r3, #0]
 8009058:	b173      	cbz	r3, 8009078 <prvAddNewTaskToReadyList+0xb0>
 800905a:	6833      	ldr	r3, [r6, #0]
 800905c:	6ada      	ldr	r2, [r3, #44]	@ 0x2c
 800905e:	6ae3      	ldr	r3, [r4, #44]	@ 0x2c
 8009060:	429a      	cmp	r2, r3
 8009062:	d209      	bcs.n	8009078 <prvAddNewTaskToReadyList+0xb0>
 8009064:	f04f 23e0 	mov.w	r3, #3758153728	@ 0xe000e000
 8009068:	f04f 5280 	mov.w	r2, #268435456	@ 0x10000000
 800906c:	f8c3 2d04 	str.w	r2, [r3, #3332]	@ 0xd04
 8009070:	f3bf 8f4f 	dsb	sy
 8009074:	f3bf 8f6f 	isb	sy
 8009078:	e8bd 81f0 	ldmia.w	sp!, {r4, r5, r6, r7, r8, pc}
 800907c:	4b10      	ldr	r3, [pc, #64]	@ (80090c0 <prvAddNewTaskToReadyList+0xf8>)
 800907e:	681a      	ldr	r2, [r3, #0]
 8009080:	6ae3      	ldr	r3, [r4, #44]	@ 0x2c
 8009082:	2a00      	cmp	r2, #0
 8009084:	d1d2      	bne.n	800902c <prvAddNewTaskToReadyList+0x64>
 8009086:	6832      	ldr	r2, [r6, #0]
 8009088:	6ad2      	ldr	r2, [r2, #44]	@ 0x2c
 800908a:	429a      	cmp	r2, r3
 800908c:	bf98      	it	ls
 800908e:	6034      	strls	r4, [r6, #0]
 8009090:	e7cc      	b.n	800902c <prvAddNewTaskToReadyList+0x64>
 8009092:	bf00      	nop
 8009094:	2000defc 	.word	0x2000defc
 8009098:	2000e3d0 	.word	0x2000e3d0
 800909c:	2000df70 	.word	0x2000df70
 80090a0:	2000df48 	.word	0x2000df48
 80090a4:	2000df2c 	.word	0x2000df2c
 80090a8:	2000df18 	.word	0x2000df18
 80090ac:	2000df00 	.word	0x2000df00
 80090b0:	2000df44 	.word	0x2000df44
 80090b4:	2000df40 	.word	0x2000df40
 80090b8:	2000dee0 	.word	0x2000dee0
 80090bc:	2000def4 	.word	0x2000def4
 80090c0:	2000def0 	.word	0x2000def0
 80090c4:	2000df5c 	.word	0x2000df5c

080090c8 <prvAddCurrentTaskToDelayedList>:
 80090c8:	b5f8      	push	{r3, r4, r5, r6, r7, lr}
 80090ca:	4b15      	ldr	r3, [pc, #84]	@ (8009120 <prvAddCurrentTaskToDelayedList+0x58>)
 80090cc:	4d15      	ldr	r5, [pc, #84]	@ (8009124 <prvAddCurrentTaskToDelayedList+0x5c>)
 80090ce:	681c      	ldr	r4, [r3, #0]
 80090d0:	4606      	mov	r6, r0
 80090d2:	6828      	ldr	r0, [r5, #0]
 80090d4:	3004      	adds	r0, #4
 80090d6:	460f      	mov	r7, r1
 80090d8:	f7ff fac2 	bl	8008660 <uxListRemove>
 80090dc:	1c73      	adds	r3, r6, #1
 80090de:	d107      	bne.n	80090f0 <prvAddCurrentTaskToDelayedList+0x28>
 80090e0:	b137      	cbz	r7, 80090f0 <prvAddCurrentTaskToDelayedList+0x28>
 80090e2:	6829      	ldr	r1, [r5, #0]
 80090e4:	4810      	ldr	r0, [pc, #64]	@ (8009128 <prvAddCurrentTaskToDelayedList+0x60>)
 80090e6:	e8bd 40f8 	ldmia.w	sp!, {r3, r4, r5, r6, r7, lr}
 80090ea:	3104      	adds	r1, #4
 80090ec:	f7ff ba96 	b.w	800861c <vListInsertEnd>
 80090f0:	682b      	ldr	r3, [r5, #0]
 80090f2:	19a4      	adds	r4, r4, r6
 80090f4:	605c      	str	r4, [r3, #4]
 80090f6:	d307      	bcc.n	8009108 <prvAddCurrentTaskToDelayedList+0x40>
 80090f8:	4b0c      	ldr	r3, [pc, #48]	@ (800912c <prvAddCurrentTaskToDelayedList+0x64>)
 80090fa:	6818      	ldr	r0, [r3, #0]
 80090fc:	6829      	ldr	r1, [r5, #0]
 80090fe:	e8bd 40f8 	ldmia.w	sp!, {r3, r4, r5, r6, r7, lr}
 8009102:	3104      	adds	r1, #4
 8009104:	f7ff ba95 	b.w	8008632 <vListInsert>
 8009108:	4b09      	ldr	r3, [pc, #36]	@ (8009130 <prvAddCurrentTaskToDelayedList+0x68>)
 800910a:	6818      	ldr	r0, [r3, #0]
 800910c:	6829      	ldr	r1, [r5, #0]
 800910e:	3104      	adds	r1, #4
 8009110:	f7ff fa8f 	bl	8008632 <vListInsert>
 8009114:	4b07      	ldr	r3, [pc, #28]	@ (8009134 <prvAddCurrentTaskToDelayedList+0x6c>)
 8009116:	681a      	ldr	r2, [r3, #0]
 8009118:	42a2      	cmp	r2, r4
 800911a:	bf88      	it	hi
 800911c:	601c      	strhi	r4, [r3, #0]
 800911e:	bdf8      	pop	{r3, r4, r5, r6, r7, pc}
 8009120:	2000def8 	.word	0x2000def8
 8009124:	2000e3d0 	.word	0x2000e3d0
 8009128:	2000df00 	.word	0x2000df00
 800912c:	2000df40 	.word	0x2000df40
 8009130:	2000df44 	.word	0x2000df44
 8009134:	2000dedc 	.word	0x2000dedc

08009138 <prvResetNextTaskUnblockTime>:
 8009138:	4a06      	ldr	r2, [pc, #24]	@ (8009154 <prvResetNextTaskUnblockTime+0x1c>)
 800913a:	6813      	ldr	r3, [r2, #0]
 800913c:	6819      	ldr	r1, [r3, #0]
 800913e:	4b06      	ldr	r3, [pc, #24]	@ (8009158 <prvResetNextTaskUnblockTime+0x20>)
 8009140:	b919      	cbnz	r1, 800914a <prvResetNextTaskUnblockTime+0x12>
 8009142:	f04f 32ff 	mov.w	r2, #4294967295
 8009146:	601a      	str	r2, [r3, #0]
 8009148:	4770      	bx	lr
 800914a:	6812      	ldr	r2, [r2, #0]
 800914c:	68d2      	ldr	r2, [r2, #12]
 800914e:	68d2      	ldr	r2, [r2, #12]
 8009150:	6852      	ldr	r2, [r2, #4]
 8009152:	e7f8      	b.n	8009146 <prvResetNextTaskUnblockTime+0xe>
 8009154:	2000df44 	.word	0x2000df44
 8009158:	2000dedc 	.word	0x2000dedc

0800915c <prvDeleteTCB>:
 800915c:	b510      	push	{r4, lr}
 800915e:	f890 3059 	ldrb.w	r3, [r0, #89]	@ 0x59
 8009162:	4604      	mov	r4, r0
 8009164:	b93b      	cbnz	r3, 8009176 <prvDeleteTCB+0x1a>
 8009166:	6b00      	ldr	r0, [r0, #48]	@ 0x30
 8009168:	f7ff fa0c 	bl	8008584 <vPortFree>
 800916c:	4620      	mov	r0, r4
 800916e:	e8bd 4010 	ldmia.w	sp!, {r4, lr}
 8009172:	f7ff ba07 	b.w	8008584 <vPortFree>
 8009176:	2b01      	cmp	r3, #1
 8009178:	d0f9      	beq.n	800916e <prvDeleteTCB+0x12>
 800917a:	2b02      	cmp	r3, #2
 800917c:	d008      	beq.n	8009190 <prvDeleteTCB+0x34>
 800917e:	f04f 0350 	mov.w	r3, #80	@ 0x50
 8009182:	f383 8811 	msr	BASEPRI, r3
 8009186:	f3bf 8f6f 	isb	sy
 800918a:	f3bf 8f4f 	dsb	sy
 800918e:	e7fe      	b.n	800918e <prvDeleteTCB+0x32>
 8009190:	bd10      	pop	{r4, pc}
	...

08009194 <prvIdleTask>:
 8009194:	b580      	push	{r7, lr}
 8009196:	4c13      	ldr	r4, [pc, #76]	@ (80091e4 <prvIdleTask+0x50>)
 8009198:	4f13      	ldr	r7, [pc, #76]	@ (80091e8 <prvIdleTask+0x54>)
 800919a:	4d14      	ldr	r5, [pc, #80]	@ (80091ec <prvIdleTask+0x58>)
 800919c:	6823      	ldr	r3, [r4, #0]
 800919e:	b973      	cbnz	r3, 80091be <prvIdleTask+0x2a>
 80091a0:	4b13      	ldr	r3, [pc, #76]	@ (80091f0 <prvIdleTask+0x5c>)
 80091a2:	681b      	ldr	r3, [r3, #0]
 80091a4:	2b01      	cmp	r3, #1
 80091a6:	d9f8      	bls.n	800919a <prvIdleTask+0x6>
 80091a8:	f04f 23e0 	mov.w	r3, #3758153728	@ 0xe000e000
 80091ac:	f04f 5280 	mov.w	r2, #268435456	@ 0x10000000
 80091b0:	f8c3 2d04 	str.w	r2, [r3, #3332]	@ 0xd04
 80091b4:	f3bf 8f4f 	dsb	sy
 80091b8:	f3bf 8f6f 	isb	sy
 80091bc:	e7ed      	b.n	800919a <prvIdleTask+0x6>
 80091be:	f7ff fac9 	bl	8008754 <vPortEnterCritical>
 80091c2:	68fb      	ldr	r3, [r7, #12]
 80091c4:	68de      	ldr	r6, [r3, #12]
 80091c6:	1d30      	adds	r0, r6, #4
 80091c8:	f7ff fa4a 	bl	8008660 <uxListRemove>
 80091cc:	682b      	ldr	r3, [r5, #0]
 80091ce:	3b01      	subs	r3, #1
 80091d0:	602b      	str	r3, [r5, #0]
 80091d2:	6823      	ldr	r3, [r4, #0]
 80091d4:	3b01      	subs	r3, #1
 80091d6:	6023      	str	r3, [r4, #0]
 80091d8:	f7ff fadc 	bl	8008794 <vPortExitCritical>
 80091dc:	4630      	mov	r0, r6
 80091de:	f7ff ffbd 	bl	800915c <prvDeleteTCB>
 80091e2:	e7db      	b.n	800919c <prvIdleTask+0x8>
 80091e4:	2000df14 	.word	0x2000df14
 80091e8:	2000df18 	.word	0x2000df18
 80091ec:	2000defc 	.word	0x2000defc
 80091f0:	2000df70 	.word	0x2000df70

080091f4 <prvInitialiseNewTask.constprop.0>:
 80091f4:	e92d 47f0 	stmdb	sp!, {r4, r5, r6, r7, r8, r9, sl, lr}
 80091f8:	e9dd 9409 	ldrd	r9, r4, [sp, #36]	@ 0x24
 80091fc:	0096      	lsls	r6, r2, #2
 80091fe:	4632      	mov	r2, r6
 8009200:	4607      	mov	r7, r0
 8009202:	460d      	mov	r5, r1
 8009204:	6b20      	ldr	r0, [r4, #48]	@ 0x30
 8009206:	21a5      	movs	r1, #165	@ 0xa5
 8009208:	4698      	mov	r8, r3
 800920a:	f000 fe0b 	bl	8009e24 <memset>
 800920e:	6b23      	ldr	r3, [r4, #48]	@ 0x30
 8009210:	3e04      	subs	r6, #4
 8009212:	441e      	add	r6, r3
 8009214:	f026 0607 	bic.w	r6, r6, #7
 8009218:	b3a5      	cbz	r5, 8009284 <prvInitialiseNewTask.constprop.0+0x90>
 800921a:	1e6b      	subs	r3, r5, #1
 800921c:	f104 0233 	add.w	r2, r4, #51	@ 0x33
 8009220:	350f      	adds	r5, #15
 8009222:	f813 1f01 	ldrb.w	r1, [r3, #1]!
 8009226:	f802 1f01 	strb.w	r1, [r2, #1]!
 800922a:	b109      	cbz	r1, 8009230 <prvInitialiseNewTask.constprop.0+0x3c>
 800922c:	42ab      	cmp	r3, r5
 800922e:	d1f8      	bne.n	8009222 <prvInitialiseNewTask.constprop.0+0x2e>
 8009230:	2300      	movs	r3, #0
 8009232:	f884 3043 	strb.w	r3, [r4, #67]	@ 0x43
 8009236:	9d08      	ldr	r5, [sp, #32]
 8009238:	2d37      	cmp	r5, #55	@ 0x37
 800923a:	bf28      	it	cs
 800923c:	2537      	movcs	r5, #55	@ 0x37
 800923e:	f04f 0a00 	mov.w	sl, #0
 8009242:	62e5      	str	r5, [r4, #44]	@ 0x2c
 8009244:	64e5      	str	r5, [r4, #76]	@ 0x4c
 8009246:	1d20      	adds	r0, r4, #4
 8009248:	f8c4 a050 	str.w	sl, [r4, #80]	@ 0x50
 800924c:	f7ff f9e3 	bl	8008616 <vListInitialiseItem>
 8009250:	f1c5 0538 	rsb	r5, r5, #56	@ 0x38
 8009254:	f104 0018 	add.w	r0, r4, #24
 8009258:	f7ff f9dd 	bl	8008616 <vListInitialiseItem>
 800925c:	f8c4 a054 	str.w	sl, [r4, #84]	@ 0x54
 8009260:	6124      	str	r4, [r4, #16]
 8009262:	61a5      	str	r5, [r4, #24]
 8009264:	6264      	str	r4, [r4, #36]	@ 0x24
 8009266:	f884 a058 	strb.w	sl, [r4, #88]	@ 0x58
 800926a:	4642      	mov	r2, r8
 800926c:	4639      	mov	r1, r7
 800926e:	4630      	mov	r0, r6
 8009270:	f7ff fa44 	bl	80086fc <pxPortInitialiseStack>
 8009274:	6020      	str	r0, [r4, #0]
 8009276:	f1b9 0f00 	cmp.w	r9, #0
 800927a:	d001      	beq.n	8009280 <prvInitialiseNewTask.constprop.0+0x8c>
 800927c:	f8c9 4000 	str.w	r4, [r9]
 8009280:	e8bd 87f0 	ldmia.w	sp!, {r4, r5, r6, r7, r8, r9, sl, pc}
 8009284:	f884 5034 	strb.w	r5, [r4, #52]	@ 0x34
 8009288:	e7d5      	b.n	8009236 <prvInitialiseNewTask.constprop.0+0x42>

0800928a <xTaskCreateStatic>:
 800928a:	b570      	push	{r4, r5, r6, lr}
 800928c:	b086      	sub	sp, #24
 800928e:	e9dd 540b 	ldrd	r5, r4, [sp, #44]	@ 0x2c
 8009292:	b945      	cbnz	r5, 80092a6 <xTaskCreateStatic+0x1c>
 8009294:	f04f 0350 	mov.w	r3, #80	@ 0x50
 8009298:	f383 8811 	msr	BASEPRI, r3
 800929c:	f3bf 8f6f 	isb	sy
 80092a0:	f3bf 8f4f 	dsb	sy
 80092a4:	e7fe      	b.n	80092a4 <xTaskCreateStatic+0x1a>
 80092a6:	b944      	cbnz	r4, 80092ba <xTaskCreateStatic+0x30>
 80092a8:	f04f 0350 	mov.w	r3, #80	@ 0x50
 80092ac:	f383 8811 	msr	BASEPRI, r3
 80092b0:	f3bf 8f6f 	isb	sy
 80092b4:	f3bf 8f4f 	dsb	sy
 80092b8:	e7fe      	b.n	80092b8 <xTaskCreateStatic+0x2e>
 80092ba:	265c      	movs	r6, #92	@ 0x5c
 80092bc:	9605      	str	r6, [sp, #20]
 80092be:	9e05      	ldr	r6, [sp, #20]
 80092c0:	2e5c      	cmp	r6, #92	@ 0x5c
 80092c2:	d008      	beq.n	80092d6 <xTaskCreateStatic+0x4c>
 80092c4:	f04f 0350 	mov.w	r3, #80	@ 0x50
 80092c8:	f383 8811 	msr	BASEPRI, r3
 80092cc:	f3bf 8f6f 	isb	sy
 80092d0:	f3bf 8f4f 	dsb	sy
 80092d4:	e7fe      	b.n	80092d4 <xTaskCreateStatic+0x4a>
 80092d6:	6325      	str	r5, [r4, #48]	@ 0x30
 80092d8:	2502      	movs	r5, #2
 80092da:	f884 5059 	strb.w	r5, [r4, #89]	@ 0x59
 80092de:	ad04      	add	r5, sp, #16
 80092e0:	9501      	str	r5, [sp, #4]
 80092e2:	9d0a      	ldr	r5, [sp, #40]	@ 0x28
 80092e4:	9402      	str	r4, [sp, #8]
 80092e6:	9500      	str	r5, [sp, #0]
 80092e8:	9e05      	ldr	r6, [sp, #20]
 80092ea:	f7ff ff83 	bl	80091f4 <prvInitialiseNewTask.constprop.0>
 80092ee:	4620      	mov	r0, r4
 80092f0:	f7ff fe6a 	bl	8008fc8 <prvAddNewTaskToReadyList>
 80092f4:	9804      	ldr	r0, [sp, #16]
 80092f6:	b006      	add	sp, #24
 80092f8:	bd70      	pop	{r4, r5, r6, pc}

080092fa <xTaskCreate>:
 80092fa:	e92d 43f0 	stmdb	sp!, {r4, r5, r6, r7, r8, r9, lr}
 80092fe:	4607      	mov	r7, r0
 8009300:	b085      	sub	sp, #20
 8009302:	0090      	lsls	r0, r2, #2
 8009304:	4688      	mov	r8, r1
 8009306:	4616      	mov	r6, r2
 8009308:	4699      	mov	r9, r3
 800930a:	f7ff f8a3 	bl	8008454 <pvPortMalloc>
 800930e:	4605      	mov	r5, r0
 8009310:	b920      	cbnz	r0, 800931c <xTaskCreate+0x22>
 8009312:	f04f 30ff 	mov.w	r0, #4294967295
 8009316:	b005      	add	sp, #20
 8009318:	e8bd 83f0 	ldmia.w	sp!, {r4, r5, r6, r7, r8, r9, pc}
 800931c:	205c      	movs	r0, #92	@ 0x5c
 800931e:	f7ff f899 	bl	8008454 <pvPortMalloc>
 8009322:	4604      	mov	r4, r0
 8009324:	b198      	cbz	r0, 800934e <xTaskCreate+0x54>
 8009326:	2300      	movs	r3, #0
 8009328:	f880 3059 	strb.w	r3, [r0, #89]	@ 0x59
 800932c:	9b0d      	ldr	r3, [sp, #52]	@ 0x34
 800932e:	6305      	str	r5, [r0, #48]	@ 0x30
 8009330:	9301      	str	r3, [sp, #4]
 8009332:	9b0c      	ldr	r3, [sp, #48]	@ 0x30
 8009334:	9002      	str	r0, [sp, #8]
 8009336:	9300      	str	r3, [sp, #0]
 8009338:	4632      	mov	r2, r6
 800933a:	464b      	mov	r3, r9
 800933c:	4641      	mov	r1, r8
 800933e:	4638      	mov	r0, r7
 8009340:	f7ff ff58 	bl	80091f4 <prvInitialiseNewTask.constprop.0>
 8009344:	4620      	mov	r0, r4
 8009346:	f7ff fe3f 	bl	8008fc8 <prvAddNewTaskToReadyList>
 800934a:	2001      	movs	r0, #1
 800934c:	e7e3      	b.n	8009316 <xTaskCreate+0x1c>
 800934e:	4628      	mov	r0, r5
 8009350:	f7ff f918 	bl	8008584 <vPortFree>
 8009354:	e7dd      	b.n	8009312 <xTaskCreate+0x18>
	...

08009358 <vTaskStartScheduler>:
 8009358:	b510      	push	{r4, lr}
 800935a:	b088      	sub	sp, #32
 800935c:	2400      	movs	r4, #0
 800935e:	aa07      	add	r2, sp, #28
 8009360:	a906      	add	r1, sp, #24
 8009362:	a805      	add	r0, sp, #20
 8009364:	e9cd 4405 	strd	r4, r4, [sp, #20]
 8009368:	f7ff f836 	bl	80083d8 <vApplicationGetIdleTaskMemory>
 800936c:	9b05      	ldr	r3, [sp, #20]
 800936e:	9302      	str	r3, [sp, #8]
 8009370:	9b06      	ldr	r3, [sp, #24]
 8009372:	9a07      	ldr	r2, [sp, #28]
 8009374:	4916      	ldr	r1, [pc, #88]	@ (80093d0 <vTaskStartScheduler+0x78>)
 8009376:	4817      	ldr	r0, [pc, #92]	@ (80093d4 <vTaskStartScheduler+0x7c>)
 8009378:	e9cd 4300 	strd	r4, r3, [sp]
 800937c:	4623      	mov	r3, r4
 800937e:	f7ff ff84 	bl	800928a <xTaskCreateStatic>
 8009382:	b318      	cbz	r0, 80093cc <vTaskStartScheduler+0x74>
 8009384:	f000 fb60 	bl	8009a48 <xTimerCreateTimerTask>
 8009388:	2801      	cmp	r0, #1
 800938a:	d114      	bne.n	80093b6 <vTaskStartScheduler+0x5e>
 800938c:	f04f 0350 	mov.w	r3, #80	@ 0x50
 8009390:	f383 8811 	msr	BASEPRI, r3
 8009394:	f3bf 8f6f 	isb	sy
 8009398:	f3bf 8f4f 	dsb	sy
 800939c:	4b0e      	ldr	r3, [pc, #56]	@ (80093d8 <vTaskStartScheduler+0x80>)
 800939e:	f04f 32ff 	mov.w	r2, #4294967295
 80093a2:	601a      	str	r2, [r3, #0]
 80093a4:	4b0d      	ldr	r3, [pc, #52]	@ (80093dc <vTaskStartScheduler+0x84>)
 80093a6:	6018      	str	r0, [r3, #0]
 80093a8:	4b0d      	ldr	r3, [pc, #52]	@ (80093e0 <vTaskStartScheduler+0x88>)
 80093aa:	601c      	str	r4, [r3, #0]
 80093ac:	b008      	add	sp, #32
 80093ae:	e8bd 4010 	ldmia.w	sp!, {r4, lr}
 80093b2:	f7ff ba5f 	b.w	8008874 <xPortStartScheduler>
 80093b6:	3001      	adds	r0, #1
 80093b8:	d108      	bne.n	80093cc <vTaskStartScheduler+0x74>
 80093ba:	f04f 0350 	mov.w	r3, #80	@ 0x50
 80093be:	f383 8811 	msr	BASEPRI, r3
 80093c2:	f3bf 8f6f 	isb	sy
 80093c6:	f3bf 8f4f 	dsb	sy
 80093ca:	e7fe      	b.n	80093ca <vTaskStartScheduler+0x72>
 80093cc:	b008      	add	sp, #32
 80093ce:	bd10      	pop	{r4, pc}
 80093d0:	0800ac6b 	.word	0x0800ac6b
 80093d4:	08009195 	.word	0x08009195
 80093d8:	2000dedc 	.word	0x2000dedc
 80093dc:	2000def0 	.word	0x2000def0
 80093e0:	2000def8 	.word	0x2000def8

080093e4 <vTaskSuspendAll>:
 80093e4:	4a02      	ldr	r2, [pc, #8]	@ (80093f0 <vTaskSuspendAll+0xc>)
 80093e6:	6813      	ldr	r3, [r2, #0]
 80093e8:	3301      	adds	r3, #1
 80093ea:	6013      	str	r3, [r2, #0]
 80093ec:	4770      	bx	lr
 80093ee:	bf00      	nop
 80093f0:	2000ded8 	.word	0x2000ded8

080093f4 <xTaskGetTickCount>:
 80093f4:	4b01      	ldr	r3, [pc, #4]	@ (80093fc <xTaskGetTickCount+0x8>)
 80093f6:	6818      	ldr	r0, [r3, #0]
 80093f8:	4770      	bx	lr
 80093fa:	bf00      	nop
 80093fc:	2000def8 	.word	0x2000def8

08009400 <xTaskGetTickCountFromISR>:
 8009400:	b508      	push	{r3, lr}
 8009402:	f7ff fab9 	bl	8008978 <vPortValidateInterruptPriority>
 8009406:	4b01      	ldr	r3, [pc, #4]	@ (800940c <xTaskGetTickCountFromISR+0xc>)
 8009408:	6818      	ldr	r0, [r3, #0]
 800940a:	bd08      	pop	{r3, pc}
 800940c:	2000def8 	.word	0x2000def8

08009410 <xTaskIncrementTick>:
 8009410:	4b3f      	ldr	r3, [pc, #252]	@ (8009510 <xTaskIncrementTick+0x100>)
 8009412:	681b      	ldr	r3, [r3, #0]
 8009414:	e92d 4ff7 	stmdb	sp!, {r0, r1, r2, r4, r5, r6, r7, r8, r9, sl, fp, lr}
 8009418:	2b00      	cmp	r3, #0
 800941a:	d172      	bne.n	8009502 <xTaskIncrementTick+0xf2>
 800941c:	4b3d      	ldr	r3, [pc, #244]	@ (8009514 <xTaskIncrementTick+0x104>)
 800941e:	681c      	ldr	r4, [r3, #0]
 8009420:	3401      	adds	r4, #1
 8009422:	601c      	str	r4, [r3, #0]
 8009424:	b9bc      	cbnz	r4, 8009456 <xTaskIncrementTick+0x46>
 8009426:	4b3c      	ldr	r3, [pc, #240]	@ (8009518 <xTaskIncrementTick+0x108>)
 8009428:	681a      	ldr	r2, [r3, #0]
 800942a:	6812      	ldr	r2, [r2, #0]
 800942c:	b142      	cbz	r2, 8009440 <xTaskIncrementTick+0x30>
 800942e:	f04f 0350 	mov.w	r3, #80	@ 0x50
 8009432:	f383 8811 	msr	BASEPRI, r3
 8009436:	f3bf 8f6f 	isb	sy
 800943a:	f3bf 8f4f 	dsb	sy
 800943e:	e7fe      	b.n	800943e <xTaskIncrementTick+0x2e>
 8009440:	4a36      	ldr	r2, [pc, #216]	@ (800951c <xTaskIncrementTick+0x10c>)
 8009442:	6819      	ldr	r1, [r3, #0]
 8009444:	6810      	ldr	r0, [r2, #0]
 8009446:	6018      	str	r0, [r3, #0]
 8009448:	6011      	str	r1, [r2, #0]
 800944a:	4a35      	ldr	r2, [pc, #212]	@ (8009520 <xTaskIncrementTick+0x110>)
 800944c:	6813      	ldr	r3, [r2, #0]
 800944e:	3301      	adds	r3, #1
 8009450:	6013      	str	r3, [r2, #0]
 8009452:	f7ff fe71 	bl	8009138 <prvResetNextTaskUnblockTime>
 8009456:	4d33      	ldr	r5, [pc, #204]	@ (8009524 <xTaskIncrementTick+0x114>)
 8009458:	4e33      	ldr	r6, [pc, #204]	@ (8009528 <xTaskIncrementTick+0x118>)
 800945a:	682b      	ldr	r3, [r5, #0]
 800945c:	4f33      	ldr	r7, [pc, #204]	@ (800952c <xTaskIncrementTick+0x11c>)
 800945e:	429c      	cmp	r4, r3
 8009460:	f04f 0b00 	mov.w	fp, #0
 8009464:	d212      	bcs.n	800948c <xTaskIncrementTick+0x7c>
 8009466:	683a      	ldr	r2, [r7, #0]
 8009468:	6ad2      	ldr	r2, [r2, #44]	@ 0x2c
 800946a:	2114      	movs	r1, #20
 800946c:	434a      	muls	r2, r1
 800946e:	58b2      	ldr	r2, [r6, r2]
 8009470:	2a02      	cmp	r2, #2
 8009472:	4a2f      	ldr	r2, [pc, #188]	@ (8009530 <xTaskIncrementTick+0x120>)
 8009474:	6812      	ldr	r2, [r2, #0]
 8009476:	bf28      	it	cs
 8009478:	f04f 0b01 	movcs.w	fp, #1
 800947c:	2a00      	cmp	r2, #0
 800947e:	bf18      	it	ne
 8009480:	f04f 0b01 	movne.w	fp, #1
 8009484:	4658      	mov	r0, fp
 8009486:	b003      	add	sp, #12
 8009488:	e8bd 8ff0 	ldmia.w	sp!, {r4, r5, r6, r7, r8, r9, sl, fp, pc}
 800948c:	f8df 9088 	ldr.w	r9, [pc, #136]	@ 8009518 <xTaskIncrementTick+0x108>
 8009490:	f8df a0a4 	ldr.w	sl, [pc, #164]	@ 8009538 <xTaskIncrementTick+0x128>
 8009494:	f8d9 2000 	ldr.w	r2, [r9]
 8009498:	6812      	ldr	r2, [r2, #0]
 800949a:	b91a      	cbnz	r2, 80094a4 <xTaskIncrementTick+0x94>
 800949c:	f04f 32ff 	mov.w	r2, #4294967295
 80094a0:	602a      	str	r2, [r5, #0]
 80094a2:	e7e0      	b.n	8009466 <xTaskIncrementTick+0x56>
 80094a4:	f8d9 2000 	ldr.w	r2, [r9]
 80094a8:	68d2      	ldr	r2, [r2, #12]
 80094aa:	f8d2 800c 	ldr.w	r8, [r2, #12]
 80094ae:	f8d8 1004 	ldr.w	r1, [r8, #4]
 80094b2:	428c      	cmp	r4, r1
 80094b4:	d201      	bcs.n	80094ba <xTaskIncrementTick+0xaa>
 80094b6:	6029      	str	r1, [r5, #0]
 80094b8:	e7d5      	b.n	8009466 <xTaskIncrementTick+0x56>
 80094ba:	f108 0304 	add.w	r3, r8, #4
 80094be:	4618      	mov	r0, r3
 80094c0:	9301      	str	r3, [sp, #4]
 80094c2:	f7ff f8cd 	bl	8008660 <uxListRemove>
 80094c6:	f8d8 1028 	ldr.w	r1, [r8, #40]	@ 0x28
 80094ca:	b119      	cbz	r1, 80094d4 <xTaskIncrementTick+0xc4>
 80094cc:	f108 0018 	add.w	r0, r8, #24
 80094d0:	f7ff f8c6 	bl	8008660 <uxListRemove>
 80094d4:	f8d8 002c 	ldr.w	r0, [r8, #44]	@ 0x2c
 80094d8:	f8da 1000 	ldr.w	r1, [sl]
 80094dc:	2314      	movs	r3, #20
 80094de:	4288      	cmp	r0, r1
 80094e0:	bf88      	it	hi
 80094e2:	f8ca 0000 	strhi.w	r0, [sl]
 80094e6:	9901      	ldr	r1, [sp, #4]
 80094e8:	fb03 6000 	mla	r0, r3, r0, r6
 80094ec:	f7ff f896 	bl	800861c <vListInsertEnd>
 80094f0:	6838      	ldr	r0, [r7, #0]
 80094f2:	f8d8 102c 	ldr.w	r1, [r8, #44]	@ 0x2c
 80094f6:	6ac2      	ldr	r2, [r0, #44]	@ 0x2c
 80094f8:	4291      	cmp	r1, r2
 80094fa:	bf28      	it	cs
 80094fc:	f04f 0b01 	movcs.w	fp, #1
 8009500:	e7c8      	b.n	8009494 <xTaskIncrementTick+0x84>
 8009502:	4a0c      	ldr	r2, [pc, #48]	@ (8009534 <xTaskIncrementTick+0x124>)
 8009504:	6813      	ldr	r3, [r2, #0]
 8009506:	3301      	adds	r3, #1
 8009508:	6013      	str	r3, [r2, #0]
 800950a:	f04f 0b00 	mov.w	fp, #0
 800950e:	e7b9      	b.n	8009484 <xTaskIncrementTick+0x74>
 8009510:	2000ded8 	.word	0x2000ded8
 8009514:	2000def8 	.word	0x2000def8
 8009518:	2000df44 	.word	0x2000df44
 800951c:	2000df40 	.word	0x2000df40
 8009520:	2000dee4 	.word	0x2000dee4
 8009524:	2000dedc 	.word	0x2000dedc
 8009528:	2000df70 	.word	0x2000df70
 800952c:	2000e3d0 	.word	0x2000e3d0
 8009530:	2000dee8 	.word	0x2000dee8
 8009534:	2000deec 	.word	0x2000deec
 8009538:	2000def4 	.word	0x2000def4

0800953c <xTaskResumeAll>:
 800953c:	e92d 41f0 	stmdb	sp!, {r4, r5, r6, r7, r8, lr}
 8009540:	4c30      	ldr	r4, [pc, #192]	@ (8009604 <xTaskResumeAll+0xc8>)
 8009542:	6823      	ldr	r3, [r4, #0]
 8009544:	b943      	cbnz	r3, 8009558 <xTaskResumeAll+0x1c>
 8009546:	f04f 0350 	mov.w	r3, #80	@ 0x50
 800954a:	f383 8811 	msr	BASEPRI, r3
 800954e:	f3bf 8f6f 	isb	sy
 8009552:	f3bf 8f4f 	dsb	sy
 8009556:	e7fe      	b.n	8009556 <xTaskResumeAll+0x1a>
 8009558:	f7ff f8fc 	bl	8008754 <vPortEnterCritical>
 800955c:	6823      	ldr	r3, [r4, #0]
 800955e:	3b01      	subs	r3, #1
 8009560:	6023      	str	r3, [r4, #0]
 8009562:	6824      	ldr	r4, [r4, #0]
 8009564:	b12c      	cbz	r4, 8009572 <xTaskResumeAll+0x36>
 8009566:	2400      	movs	r4, #0
 8009568:	f7ff f914 	bl	8008794 <vPortExitCritical>
 800956c:	4620      	mov	r0, r4
 800956e:	e8bd 81f0 	ldmia.w	sp!, {r4, r5, r6, r7, r8, pc}
 8009572:	4b25      	ldr	r3, [pc, #148]	@ (8009608 <xTaskResumeAll+0xcc>)
 8009574:	681b      	ldr	r3, [r3, #0]
 8009576:	2b00      	cmp	r3, #0
 8009578:	d0f5      	beq.n	8009566 <xTaskResumeAll+0x2a>
 800957a:	4d24      	ldr	r5, [pc, #144]	@ (800960c <xTaskResumeAll+0xd0>)
 800957c:	4e24      	ldr	r6, [pc, #144]	@ (8009610 <xTaskResumeAll+0xd4>)
 800957e:	f8df 80a0 	ldr.w	r8, [pc, #160]	@ 8009620 <xTaskResumeAll+0xe4>
 8009582:	e01d      	b.n	80095c0 <xTaskResumeAll+0x84>
 8009584:	68eb      	ldr	r3, [r5, #12]
 8009586:	68dc      	ldr	r4, [r3, #12]
 8009588:	1d27      	adds	r7, r4, #4
 800958a:	f104 0018 	add.w	r0, r4, #24
 800958e:	f7ff f867 	bl	8008660 <uxListRemove>
 8009592:	4638      	mov	r0, r7
 8009594:	f7ff f864 	bl	8008660 <uxListRemove>
 8009598:	6ae3      	ldr	r3, [r4, #44]	@ 0x2c
 800959a:	6832      	ldr	r2, [r6, #0]
 800959c:	2014      	movs	r0, #20
 800959e:	4293      	cmp	r3, r2
 80095a0:	fb00 8003 	mla	r0, r0, r3, r8
 80095a4:	4639      	mov	r1, r7
 80095a6:	bf88      	it	hi
 80095a8:	6033      	strhi	r3, [r6, #0]
 80095aa:	f7ff f837 	bl	800861c <vListInsertEnd>
 80095ae:	4b19      	ldr	r3, [pc, #100]	@ (8009614 <xTaskResumeAll+0xd8>)
 80095b0:	6ae2      	ldr	r2, [r4, #44]	@ 0x2c
 80095b2:	681b      	ldr	r3, [r3, #0]
 80095b4:	6adb      	ldr	r3, [r3, #44]	@ 0x2c
 80095b6:	429a      	cmp	r2, r3
 80095b8:	d302      	bcc.n	80095c0 <xTaskResumeAll+0x84>
 80095ba:	4b17      	ldr	r3, [pc, #92]	@ (8009618 <xTaskResumeAll+0xdc>)
 80095bc:	2201      	movs	r2, #1
 80095be:	601a      	str	r2, [r3, #0]
 80095c0:	682b      	ldr	r3, [r5, #0]
 80095c2:	2b00      	cmp	r3, #0
 80095c4:	d1de      	bne.n	8009584 <xTaskResumeAll+0x48>
 80095c6:	b10c      	cbz	r4, 80095cc <xTaskResumeAll+0x90>
 80095c8:	f7ff fdb6 	bl	8009138 <prvResetNextTaskUnblockTime>
 80095cc:	4d13      	ldr	r5, [pc, #76]	@ (800961c <xTaskResumeAll+0xe0>)
 80095ce:	682c      	ldr	r4, [r5, #0]
 80095d0:	b144      	cbz	r4, 80095e4 <xTaskResumeAll+0xa8>
 80095d2:	4e11      	ldr	r6, [pc, #68]	@ (8009618 <xTaskResumeAll+0xdc>)
 80095d4:	2701      	movs	r7, #1
 80095d6:	f7ff ff1b 	bl	8009410 <xTaskIncrementTick>
 80095da:	b100      	cbz	r0, 80095de <xTaskResumeAll+0xa2>
 80095dc:	6037      	str	r7, [r6, #0]
 80095de:	3c01      	subs	r4, #1
 80095e0:	d1f9      	bne.n	80095d6 <xTaskResumeAll+0x9a>
 80095e2:	602c      	str	r4, [r5, #0]
 80095e4:	4b0c      	ldr	r3, [pc, #48]	@ (8009618 <xTaskResumeAll+0xdc>)
 80095e6:	681b      	ldr	r3, [r3, #0]
 80095e8:	2b00      	cmp	r3, #0
 80095ea:	d0bc      	beq.n	8009566 <xTaskResumeAll+0x2a>
 80095ec:	f04f 23e0 	mov.w	r3, #3758153728	@ 0xe000e000
 80095f0:	f04f 5280 	mov.w	r2, #268435456	@ 0x10000000
 80095f4:	f8c3 2d04 	str.w	r2, [r3, #3332]	@ 0xd04
 80095f8:	f3bf 8f4f 	dsb	sy
 80095fc:	f3bf 8f6f 	isb	sy
 8009600:	2401      	movs	r4, #1
 8009602:	e7b1      	b.n	8009568 <xTaskResumeAll+0x2c>
 8009604:	2000ded8 	.word	0x2000ded8
 8009608:	2000defc 	.word	0x2000defc
 800960c:	2000df2c 	.word	0x2000df2c
 8009610:	2000def4 	.word	0x2000def4
 8009614:	2000e3d0 	.word	0x2000e3d0
 8009618:	2000dee8 	.word	0x2000dee8
 800961c:	2000deec 	.word	0x2000deec
 8009620:	2000df70 	.word	0x2000df70

08009624 <vTaskDelayUntil>:
 8009624:	b510      	push	{r4, lr}
 8009626:	b940      	cbnz	r0, 800963a <vTaskDelayUntil+0x16>
 8009628:	f04f 0350 	mov.w	r3, #80	@ 0x50
 800962c:	f383 8811 	msr	BASEPRI, r3
 8009630:	f3bf 8f6f 	isb	sy
 8009634:	f3bf 8f4f 	dsb	sy
 8009638:	e7fe      	b.n	8009638 <vTaskDelayUntil+0x14>
 800963a:	b941      	cbnz	r1, 800964e <vTaskDelayUntil+0x2a>
 800963c:	f04f 0350 	mov.w	r3, #80	@ 0x50
 8009640:	f383 8811 	msr	BASEPRI, r3
 8009644:	f3bf 8f6f 	isb	sy
 8009648:	f3bf 8f4f 	dsb	sy
 800964c:	e7fe      	b.n	800964c <vTaskDelayUntil+0x28>
 800964e:	4b18      	ldr	r3, [pc, #96]	@ (80096b0 <vTaskDelayUntil+0x8c>)
 8009650:	681b      	ldr	r3, [r3, #0]
 8009652:	b143      	cbz	r3, 8009666 <vTaskDelayUntil+0x42>
 8009654:	f04f 0350 	mov.w	r3, #80	@ 0x50
 8009658:	f383 8811 	msr	BASEPRI, r3
 800965c:	f3bf 8f6f 	isb	sy
 8009660:	f3bf 8f4f 	dsb	sy
 8009664:	e7fe      	b.n	8009664 <vTaskDelayUntil+0x40>
 8009666:	f7ff febd 	bl	80093e4 <vTaskSuspendAll>
 800966a:	4b12      	ldr	r3, [pc, #72]	@ (80096b4 <vTaskDelayUntil+0x90>)
 800966c:	6804      	ldr	r4, [r0, #0]
 800966e:	681a      	ldr	r2, [r3, #0]
 8009670:	1863      	adds	r3, r4, r1
 8009672:	bf2c      	ite	cs
 8009674:	2101      	movcs	r1, #1
 8009676:	2100      	movcc	r1, #0
 8009678:	4294      	cmp	r4, r2
 800967a:	d90f      	bls.n	800969c <vTaskDelayUntil+0x78>
 800967c:	b979      	cbnz	r1, 800969e <vTaskDelayUntil+0x7a>
 800967e:	6003      	str	r3, [r0, #0]
 8009680:	f7ff ff5c 	bl	800953c <xTaskResumeAll>
 8009684:	b948      	cbnz	r0, 800969a <vTaskDelayUntil+0x76>
 8009686:	f04f 23e0 	mov.w	r3, #3758153728	@ 0xe000e000
 800968a:	f04f 5280 	mov.w	r2, #268435456	@ 0x10000000
 800968e:	f8c3 2d04 	str.w	r2, [r3, #3332]	@ 0xd04
 8009692:	f3bf 8f4f 	dsb	sy
 8009696:	f3bf 8f6f 	isb	sy
 800969a:	bd10      	pop	{r4, pc}
 800969c:	b909      	cbnz	r1, 80096a2 <vTaskDelayUntil+0x7e>
 800969e:	429a      	cmp	r2, r3
 80096a0:	d2ed      	bcs.n	800967e <vTaskDelayUntil+0x5a>
 80096a2:	6003      	str	r3, [r0, #0]
 80096a4:	2100      	movs	r1, #0
 80096a6:	1a98      	subs	r0, r3, r2
 80096a8:	f7ff fd0e 	bl	80090c8 <prvAddCurrentTaskToDelayedList>
 80096ac:	e7e8      	b.n	8009680 <vTaskDelayUntil+0x5c>
 80096ae:	bf00      	nop
 80096b0:	2000ded8 	.word	0x2000ded8
 80096b4:	2000def8 	.word	0x2000def8

080096b8 <vTaskDelay>:
 80096b8:	b508      	push	{r3, lr}
 80096ba:	b950      	cbnz	r0, 80096d2 <vTaskDelay+0x1a>
 80096bc:	f04f 23e0 	mov.w	r3, #3758153728	@ 0xe000e000
 80096c0:	f04f 5280 	mov.w	r2, #268435456	@ 0x10000000
 80096c4:	f8c3 2d04 	str.w	r2, [r3, #3332]	@ 0xd04
 80096c8:	f3bf 8f4f 	dsb	sy
 80096cc:	f3bf 8f6f 	isb	sy
 80096d0:	bd08      	pop	{r3, pc}
 80096d2:	4b0a      	ldr	r3, [pc, #40]	@ (80096fc <vTaskDelay+0x44>)
 80096d4:	6819      	ldr	r1, [r3, #0]
 80096d6:	b141      	cbz	r1, 80096ea <vTaskDelay+0x32>
 80096d8:	f04f 0350 	mov.w	r3, #80	@ 0x50
 80096dc:	f383 8811 	msr	BASEPRI, r3
 80096e0:	f3bf 8f6f 	isb	sy
 80096e4:	f3bf 8f4f 	dsb	sy
 80096e8:	e7fe      	b.n	80096e8 <vTaskDelay+0x30>
 80096ea:	f7ff fe7b 	bl	80093e4 <vTaskSuspendAll>
 80096ee:	f7ff fceb 	bl	80090c8 <prvAddCurrentTaskToDelayedList>
 80096f2:	f7ff ff23 	bl	800953c <xTaskResumeAll>
 80096f6:	2800      	cmp	r0, #0
 80096f8:	d0e0      	beq.n	80096bc <vTaskDelay+0x4>
 80096fa:	e7e9      	b.n	80096d0 <vTaskDelay+0x18>
 80096fc:	2000ded8 	.word	0x2000ded8

08009700 <vTaskSwitchContext>:
 8009700:	4b17      	ldr	r3, [pc, #92]	@ (8009760 <vTaskSwitchContext+0x60>)
 8009702:	681a      	ldr	r2, [r3, #0]
 8009704:	4b17      	ldr	r3, [pc, #92]	@ (8009764 <vTaskSwitchContext+0x64>)
 8009706:	b570      	push	{r4, r5, r6, lr}
 8009708:	b112      	cbz	r2, 8009710 <vTaskSwitchContext+0x10>
 800970a:	2201      	movs	r2, #1
 800970c:	601a      	str	r2, [r3, #0]
 800970e:	bd70      	pop	{r4, r5, r6, pc}
 8009710:	4d15      	ldr	r5, [pc, #84]	@ (8009768 <vTaskSwitchContext+0x68>)
 8009712:	601a      	str	r2, [r3, #0]
 8009714:	682a      	ldr	r2, [r5, #0]
 8009716:	4915      	ldr	r1, [pc, #84]	@ (800976c <vTaskSwitchContext+0x6c>)
 8009718:	2614      	movs	r6, #20
 800971a:	fb06 f302 	mul.w	r3, r6, r2
 800971e:	18c8      	adds	r0, r1, r3
 8009720:	58cc      	ldr	r4, [r1, r3]
 8009722:	b18c      	cbz	r4, 8009748 <vTaskSwitchContext+0x48>
 8009724:	6844      	ldr	r4, [r0, #4]
 8009726:	3308      	adds	r3, #8
 8009728:	6864      	ldr	r4, [r4, #4]
 800972a:	6044      	str	r4, [r0, #4]
 800972c:	440b      	add	r3, r1
 800972e:	429c      	cmp	r4, r3
 8009730:	bf04      	itt	eq
 8009732:	6863      	ldreq	r3, [r4, #4]
 8009734:	6043      	streq	r3, [r0, #4]
 8009736:	2314      	movs	r3, #20
 8009738:	fb03 1102 	mla	r1, r3, r2, r1
 800973c:	684b      	ldr	r3, [r1, #4]
 800973e:	68d9      	ldr	r1, [r3, #12]
 8009740:	4b0b      	ldr	r3, [pc, #44]	@ (8009770 <vTaskSwitchContext+0x70>)
 8009742:	6019      	str	r1, [r3, #0]
 8009744:	602a      	str	r2, [r5, #0]
 8009746:	e7e2      	b.n	800970e <vTaskSwitchContext+0xe>
 8009748:	b942      	cbnz	r2, 800975c <vTaskSwitchContext+0x5c>
 800974a:	f04f 0350 	mov.w	r3, #80	@ 0x50
 800974e:	f383 8811 	msr	BASEPRI, r3
 8009752:	f3bf 8f6f 	isb	sy
 8009756:	f3bf 8f4f 	dsb	sy
 800975a:	e7fe      	b.n	800975a <vTaskSwitchContext+0x5a>
 800975c:	3a01      	subs	r2, #1
 800975e:	e7dc      	b.n	800971a <vTaskSwitchContext+0x1a>
 8009760:	2000ded8 	.word	0x2000ded8
 8009764:	2000dee8 	.word	0x2000dee8
 8009768:	2000def4 	.word	0x2000def4
 800976c:	2000df70 	.word	0x2000df70
 8009770:	2000e3d0 	.word	0x2000e3d0

08009774 <vTaskPlaceOnEventList>:
 8009774:	b510      	push	{r4, lr}
 8009776:	460c      	mov	r4, r1
 8009778:	b940      	cbnz	r0, 800978c <vTaskPlaceOnEventList+0x18>
 800977a:	f04f 0350 	mov.w	r3, #80	@ 0x50
 800977e:	f383 8811 	msr	BASEPRI, r3
 8009782:	f3bf 8f6f 	isb	sy
 8009786:	f3bf 8f4f 	dsb	sy
 800978a:	e7fe      	b.n	800978a <vTaskPlaceOnEventList+0x16>
 800978c:	4b05      	ldr	r3, [pc, #20]	@ (80097a4 <vTaskPlaceOnEventList+0x30>)
 800978e:	6819      	ldr	r1, [r3, #0]
 8009790:	3118      	adds	r1, #24
 8009792:	f7fe ff4e 	bl	8008632 <vListInsert>
 8009796:	4620      	mov	r0, r4
 8009798:	2101      	movs	r1, #1
 800979a:	e8bd 4010 	ldmia.w	sp!, {r4, lr}
 800979e:	f7ff bc93 	b.w	80090c8 <prvAddCurrentTaskToDelayedList>
 80097a2:	bf00      	nop
 80097a4:	2000e3d0 	.word	0x2000e3d0

080097a8 <vTaskPlaceOnEventListRestricted>:
 80097a8:	b538      	push	{r3, r4, r5, lr}
 80097aa:	460d      	mov	r5, r1
 80097ac:	4614      	mov	r4, r2
 80097ae:	b940      	cbnz	r0, 80097c2 <vTaskPlaceOnEventListRestricted+0x1a>
 80097b0:	f04f 0350 	mov.w	r3, #80	@ 0x50
 80097b4:	f383 8811 	msr	BASEPRI, r3
 80097b8:	f3bf 8f6f 	isb	sy
 80097bc:	f3bf 8f4f 	dsb	sy
 80097c0:	e7fe      	b.n	80097c0 <vTaskPlaceOnEventListRestricted+0x18>
 80097c2:	4b07      	ldr	r3, [pc, #28]	@ (80097e0 <vTaskPlaceOnEventListRestricted+0x38>)
 80097c4:	6819      	ldr	r1, [r3, #0]
 80097c6:	3118      	adds	r1, #24
 80097c8:	f7fe ff28 	bl	800861c <vListInsertEnd>
 80097cc:	2c00      	cmp	r4, #0
 80097ce:	4621      	mov	r1, r4
 80097d0:	bf0c      	ite	eq
 80097d2:	4628      	moveq	r0, r5
 80097d4:	f04f 30ff 	movne.w	r0, #4294967295
 80097d8:	e8bd 4038 	ldmia.w	sp!, {r3, r4, r5, lr}
 80097dc:	f7ff bc74 	b.w	80090c8 <prvAddCurrentTaskToDelayedList>
 80097e0:	2000e3d0 	.word	0x2000e3d0

080097e4 <xTaskRemoveFromEventList>:
 80097e4:	b538      	push	{r3, r4, r5, lr}
 80097e6:	68c3      	ldr	r3, [r0, #12]
 80097e8:	68dc      	ldr	r4, [r3, #12]
 80097ea:	b944      	cbnz	r4, 80097fe <xTaskRemoveFromEventList+0x1a>
 80097ec:	f04f 0350 	mov.w	r3, #80	@ 0x50
 80097f0:	f383 8811 	msr	BASEPRI, r3
 80097f4:	f3bf 8f6f 	isb	sy
 80097f8:	f3bf 8f4f 	dsb	sy
 80097fc:	e7fe      	b.n	80097fc <xTaskRemoveFromEventList+0x18>
 80097fe:	f104 0518 	add.w	r5, r4, #24
 8009802:	4628      	mov	r0, r5
 8009804:	f7fe ff2c 	bl	8008660 <uxListRemove>
 8009808:	4b10      	ldr	r3, [pc, #64]	@ (800984c <xTaskRemoveFromEventList+0x68>)
 800980a:	681b      	ldr	r3, [r3, #0]
 800980c:	b9db      	cbnz	r3, 8009846 <xTaskRemoveFromEventList+0x62>
 800980e:	1d25      	adds	r5, r4, #4
 8009810:	4628      	mov	r0, r5
 8009812:	f7fe ff25 	bl	8008660 <uxListRemove>
 8009816:	4a0e      	ldr	r2, [pc, #56]	@ (8009850 <xTaskRemoveFromEventList+0x6c>)
 8009818:	6ae3      	ldr	r3, [r4, #44]	@ 0x2c
 800981a:	6811      	ldr	r1, [r2, #0]
 800981c:	428b      	cmp	r3, r1
 800981e:	bf88      	it	hi
 8009820:	6013      	strhi	r3, [r2, #0]
 8009822:	4a0c      	ldr	r2, [pc, #48]	@ (8009854 <xTaskRemoveFromEventList+0x70>)
 8009824:	2014      	movs	r0, #20
 8009826:	4629      	mov	r1, r5
 8009828:	fb00 2003 	mla	r0, r0, r3, r2
 800982c:	f7fe fef6 	bl	800861c <vListInsertEnd>
 8009830:	4b09      	ldr	r3, [pc, #36]	@ (8009858 <xTaskRemoveFromEventList+0x74>)
 8009832:	6ae2      	ldr	r2, [r4, #44]	@ 0x2c
 8009834:	681b      	ldr	r3, [r3, #0]
 8009836:	6adb      	ldr	r3, [r3, #44]	@ 0x2c
 8009838:	429a      	cmp	r2, r3
 800983a:	bf83      	ittte	hi
 800983c:	4b07      	ldrhi	r3, [pc, #28]	@ (800985c <xTaskRemoveFromEventList+0x78>)
 800983e:	2001      	movhi	r0, #1
 8009840:	6018      	strhi	r0, [r3, #0]
 8009842:	2000      	movls	r0, #0
 8009844:	bd38      	pop	{r3, r4, r5, pc}
 8009846:	4806      	ldr	r0, [pc, #24]	@ (8009860 <xTaskRemoveFromEventList+0x7c>)
 8009848:	4629      	mov	r1, r5
 800984a:	e7ef      	b.n	800982c <xTaskRemoveFromEventList+0x48>
 800984c:	2000ded8 	.word	0x2000ded8
 8009850:	2000def4 	.word	0x2000def4
 8009854:	2000df70 	.word	0x2000df70
 8009858:	2000e3d0 	.word	0x2000e3d0
 800985c:	2000dee8 	.word	0x2000dee8
 8009860:	2000df2c 	.word	0x2000df2c

08009864 <vTaskInternalSetTimeOutState>:
 8009864:	4b03      	ldr	r3, [pc, #12]	@ (8009874 <vTaskInternalSetTimeOutState+0x10>)
 8009866:	681b      	ldr	r3, [r3, #0]
 8009868:	6003      	str	r3, [r0, #0]
 800986a:	4b03      	ldr	r3, [pc, #12]	@ (8009878 <vTaskInternalSetTimeOutState+0x14>)
 800986c:	681b      	ldr	r3, [r3, #0]
 800986e:	6043      	str	r3, [r0, #4]
 8009870:	4770      	bx	lr
 8009872:	bf00      	nop
 8009874:	2000dee4 	.word	0x2000dee4
 8009878:	2000def8 	.word	0x2000def8

0800987c <xTaskCheckForTimeOut>:
 800987c:	b570      	push	{r4, r5, r6, lr}
 800987e:	460c      	mov	r4, r1
 8009880:	4605      	mov	r5, r0
 8009882:	b940      	cbnz	r0, 8009896 <xTaskCheckForTimeOut+0x1a>
 8009884:	f04f 0350 	mov.w	r3, #80	@ 0x50
 8009888:	f383 8811 	msr	BASEPRI, r3
 800988c:	f3bf 8f6f 	isb	sy
 8009890:	f3bf 8f4f 	dsb	sy
 8009894:	e7fe      	b.n	8009894 <xTaskCheckForTimeOut+0x18>
 8009896:	b941      	cbnz	r1, 80098aa <xTaskCheckForTimeOut+0x2e>
 8009898:	f04f 0350 	mov.w	r3, #80	@ 0x50
 800989c:	f383 8811 	msr	BASEPRI, r3
 80098a0:	f3bf 8f6f 	isb	sy
 80098a4:	f3bf 8f4f 	dsb	sy
 80098a8:	e7fe      	b.n	80098a8 <xTaskCheckForTimeOut+0x2c>
 80098aa:	f7fe ff53 	bl	8008754 <vPortEnterCritical>
 80098ae:	4b0f      	ldr	r3, [pc, #60]	@ (80098ec <xTaskCheckForTimeOut+0x70>)
 80098b0:	6819      	ldr	r1, [r3, #0]
 80098b2:	6823      	ldr	r3, [r4, #0]
 80098b4:	1c5a      	adds	r2, r3, #1
 80098b6:	d010      	beq.n	80098da <xTaskCheckForTimeOut+0x5e>
 80098b8:	480d      	ldr	r0, [pc, #52]	@ (80098f0 <xTaskCheckForTimeOut+0x74>)
 80098ba:	682e      	ldr	r6, [r5, #0]
 80098bc:	6800      	ldr	r0, [r0, #0]
 80098be:	686a      	ldr	r2, [r5, #4]
 80098c0:	4286      	cmp	r6, r0
 80098c2:	d001      	beq.n	80098c8 <xTaskCheckForTimeOut+0x4c>
 80098c4:	428a      	cmp	r2, r1
 80098c6:	d90f      	bls.n	80098e8 <xTaskCheckForTimeOut+0x6c>
 80098c8:	1a88      	subs	r0, r1, r2
 80098ca:	4283      	cmp	r3, r0
 80098cc:	d90a      	bls.n	80098e4 <xTaskCheckForTimeOut+0x68>
 80098ce:	1a5b      	subs	r3, r3, r1
 80098d0:	4413      	add	r3, r2
 80098d2:	6023      	str	r3, [r4, #0]
 80098d4:	4628      	mov	r0, r5
 80098d6:	f7ff ffc5 	bl	8009864 <vTaskInternalSetTimeOutState>
 80098da:	2400      	movs	r4, #0
 80098dc:	f7fe ff5a 	bl	8008794 <vPortExitCritical>
 80098e0:	4620      	mov	r0, r4
 80098e2:	bd70      	pop	{r4, r5, r6, pc}
 80098e4:	2300      	movs	r3, #0
 80098e6:	6023      	str	r3, [r4, #0]
 80098e8:	2401      	movs	r4, #1
 80098ea:	e7f7      	b.n	80098dc <xTaskCheckForTimeOut+0x60>
 80098ec:	2000def8 	.word	0x2000def8
 80098f0:	2000dee4 	.word	0x2000dee4

080098f4 <vTaskMissedYield>:
 80098f4:	4b01      	ldr	r3, [pc, #4]	@ (80098fc <vTaskMissedYield+0x8>)
 80098f6:	2201      	movs	r2, #1
 80098f8:	601a      	str	r2, [r3, #0]
 80098fa:	4770      	bx	lr
 80098fc:	2000dee8 	.word	0x2000dee8

08009900 <xTaskGetSchedulerState>:
 8009900:	4b05      	ldr	r3, [pc, #20]	@ (8009918 <xTaskGetSchedulerState+0x18>)
 8009902:	681b      	ldr	r3, [r3, #0]
 8009904:	b133      	cbz	r3, 8009914 <xTaskGetSchedulerState+0x14>
 8009906:	4b05      	ldr	r3, [pc, #20]	@ (800991c <xTaskGetSchedulerState+0x1c>)
 8009908:	6818      	ldr	r0, [r3, #0]
 800990a:	fab0 f080 	clz	r0, r0
 800990e:	0940      	lsrs	r0, r0, #5
 8009910:	0040      	lsls	r0, r0, #1
 8009912:	4770      	bx	lr
 8009914:	2001      	movs	r0, #1
 8009916:	4770      	bx	lr
 8009918:	2000def0 	.word	0x2000def0
 800991c:	2000ded8 	.word	0x2000ded8

08009920 <xTaskPriorityDisinherit>:
 8009920:	b538      	push	{r3, r4, r5, lr}
 8009922:	b908      	cbnz	r0, 8009928 <xTaskPriorityDisinherit+0x8>
 8009924:	2000      	movs	r0, #0
 8009926:	bd38      	pop	{r3, r4, r5, pc}
 8009928:	4b1b      	ldr	r3, [pc, #108]	@ (8009998 <xTaskPriorityDisinherit+0x78>)
 800992a:	681c      	ldr	r4, [r3, #0]
 800992c:	4284      	cmp	r4, r0
 800992e:	d008      	beq.n	8009942 <xTaskPriorityDisinherit+0x22>
 8009930:	f04f 0350 	mov.w	r3, #80	@ 0x50
 8009934:	f383 8811 	msr	BASEPRI, r3
 8009938:	f3bf 8f6f 	isb	sy
 800993c:	f3bf 8f4f 	dsb	sy
 8009940:	e7fe      	b.n	8009940 <xTaskPriorityDisinherit+0x20>
 8009942:	6d23      	ldr	r3, [r4, #80]	@ 0x50
 8009944:	b943      	cbnz	r3, 8009958 <xTaskPriorityDisinherit+0x38>
 8009946:	f04f 0350 	mov.w	r3, #80	@ 0x50
 800994a:	f383 8811 	msr	BASEPRI, r3
 800994e:	f3bf 8f6f 	isb	sy
 8009952:	f3bf 8f4f 	dsb	sy
 8009956:	e7fe      	b.n	8009956 <xTaskPriorityDisinherit+0x36>
 8009958:	6ae1      	ldr	r1, [r4, #44]	@ 0x2c
 800995a:	6ce2      	ldr	r2, [r4, #76]	@ 0x4c
 800995c:	3b01      	subs	r3, #1
 800995e:	4291      	cmp	r1, r2
 8009960:	6523      	str	r3, [r4, #80]	@ 0x50
 8009962:	d0df      	beq.n	8009924 <xTaskPriorityDisinherit+0x4>
 8009964:	2b00      	cmp	r3, #0
 8009966:	d1dd      	bne.n	8009924 <xTaskPriorityDisinherit+0x4>
 8009968:	1d25      	adds	r5, r4, #4
 800996a:	4628      	mov	r0, r5
 800996c:	f7fe fe78 	bl	8008660 <uxListRemove>
 8009970:	6ce3      	ldr	r3, [r4, #76]	@ 0x4c
 8009972:	62e3      	str	r3, [r4, #44]	@ 0x2c
 8009974:	f1c3 0238 	rsb	r2, r3, #56	@ 0x38
 8009978:	61a2      	str	r2, [r4, #24]
 800997a:	4a08      	ldr	r2, [pc, #32]	@ (800999c <xTaskPriorityDisinherit+0x7c>)
 800997c:	6811      	ldr	r1, [r2, #0]
 800997e:	428b      	cmp	r3, r1
 8009980:	bf88      	it	hi
 8009982:	6013      	strhi	r3, [r2, #0]
 8009984:	4a06      	ldr	r2, [pc, #24]	@ (80099a0 <xTaskPriorityDisinherit+0x80>)
 8009986:	2014      	movs	r0, #20
 8009988:	fb00 2003 	mla	r0, r0, r3, r2
 800998c:	4629      	mov	r1, r5
 800998e:	f7fe fe45 	bl	800861c <vListInsertEnd>
 8009992:	2001      	movs	r0, #1
 8009994:	e7c7      	b.n	8009926 <xTaskPriorityDisinherit+0x6>
 8009996:	bf00      	nop
 8009998:	2000e3d0 	.word	0x2000e3d0
 800999c:	2000def4 	.word	0x2000def4
 80099a0:	2000df70 	.word	0x2000df70

080099a4 <prvInsertTimerInActiveList>:
 80099a4:	4291      	cmp	r1, r2
 80099a6:	b508      	push	{r3, lr}
 80099a8:	6041      	str	r1, [r0, #4]
 80099aa:	6100      	str	r0, [r0, #16]
 80099ac:	d80a      	bhi.n	80099c4 <prvInsertTimerInActiveList+0x20>
 80099ae:	1ad2      	subs	r2, r2, r3
 80099b0:	6983      	ldr	r3, [r0, #24]
 80099b2:	429a      	cmp	r2, r3
 80099b4:	d20d      	bcs.n	80099d2 <prvInsertTimerInActiveList+0x2e>
 80099b6:	4b08      	ldr	r3, [pc, #32]	@ (80099d8 <prvInsertTimerInActiveList+0x34>)
 80099b8:	1d01      	adds	r1, r0, #4
 80099ba:	6818      	ldr	r0, [r3, #0]
 80099bc:	f7fe fe39 	bl	8008632 <vListInsert>
 80099c0:	2000      	movs	r0, #0
 80099c2:	bd08      	pop	{r3, pc}
 80099c4:	429a      	cmp	r2, r3
 80099c6:	d201      	bcs.n	80099cc <prvInsertTimerInActiveList+0x28>
 80099c8:	4299      	cmp	r1, r3
 80099ca:	d202      	bcs.n	80099d2 <prvInsertTimerInActiveList+0x2e>
 80099cc:	4b03      	ldr	r3, [pc, #12]	@ (80099dc <prvInsertTimerInActiveList+0x38>)
 80099ce:	1d01      	adds	r1, r0, #4
 80099d0:	e7f3      	b.n	80099ba <prvInsertTimerInActiveList+0x16>
 80099d2:	2001      	movs	r0, #1
 80099d4:	e7f5      	b.n	80099c2 <prvInsertTimerInActiveList+0x1e>
 80099d6:	bf00      	nop
 80099d8:	2000e4d0 	.word	0x2000e4d0
 80099dc:	2000e4d4 	.word	0x2000e4d4

080099e0 <prvCheckForValidListAndQueue>:
 80099e0:	b5f7      	push	{r0, r1, r2, r4, r5, r6, r7, lr}
 80099e2:	4c11      	ldr	r4, [pc, #68]	@ (8009a28 <prvCheckForValidListAndQueue+0x48>)
 80099e4:	f7fe feb6 	bl	8008754 <vPortEnterCritical>
 80099e8:	6825      	ldr	r5, [r4, #0]
 80099ea:	b9bd      	cbnz	r5, 8009a1c <prvCheckForValidListAndQueue+0x3c>
 80099ec:	4f0f      	ldr	r7, [pc, #60]	@ (8009a2c <prvCheckForValidListAndQueue+0x4c>)
 80099ee:	4e10      	ldr	r6, [pc, #64]	@ (8009a30 <prvCheckForValidListAndQueue+0x50>)
 80099f0:	4638      	mov	r0, r7
 80099f2:	f7fe fe05 	bl	8008600 <vListInitialise>
 80099f6:	4630      	mov	r0, r6
 80099f8:	f7fe fe02 	bl	8008600 <vListInitialise>
 80099fc:	4b0d      	ldr	r3, [pc, #52]	@ (8009a34 <prvCheckForValidListAndQueue+0x54>)
 80099fe:	4a0e      	ldr	r2, [pc, #56]	@ (8009a38 <prvCheckForValidListAndQueue+0x58>)
 8009a00:	601f      	str	r7, [r3, #0]
 8009a02:	4b0e      	ldr	r3, [pc, #56]	@ (8009a3c <prvCheckForValidListAndQueue+0x5c>)
 8009a04:	2110      	movs	r1, #16
 8009a06:	601e      	str	r6, [r3, #0]
 8009a08:	200a      	movs	r0, #10
 8009a0a:	4b0d      	ldr	r3, [pc, #52]	@ (8009a40 <prvCheckForValidListAndQueue+0x60>)
 8009a0c:	9500      	str	r5, [sp, #0]
 8009a0e:	f7ff f8aa 	bl	8008b66 <xQueueGenericCreateStatic>
 8009a12:	6020      	str	r0, [r4, #0]
 8009a14:	b110      	cbz	r0, 8009a1c <prvCheckForValidListAndQueue+0x3c>
 8009a16:	490b      	ldr	r1, [pc, #44]	@ (8009a44 <prvCheckForValidListAndQueue+0x64>)
 8009a18:	f7ff faa0 	bl	8008f5c <vQueueAddToRegistry>
 8009a1c:	b003      	add	sp, #12
 8009a1e:	e8bd 40f0 	ldmia.w	sp!, {r4, r5, r6, r7, lr}
 8009a22:	f7fe beb7 	b.w	8008794 <vPortExitCritical>
 8009a26:	bf00      	nop
 8009a28:	2000e4cc 	.word	0x2000e4cc
 8009a2c:	2000e4ec 	.word	0x2000e4ec
 8009a30:	2000e4d8 	.word	0x2000e4d8
 8009a34:	2000e4d4 	.word	0x2000e4d4
 8009a38:	2000e424 	.word	0x2000e424
 8009a3c:	2000e4d0 	.word	0x2000e4d0
 8009a40:	2000e3d4 	.word	0x2000e3d4
 8009a44:	0800ac70 	.word	0x0800ac70

08009a48 <xTimerCreateTimerTask>:
 8009a48:	b510      	push	{r4, lr}
 8009a4a:	b088      	sub	sp, #32
 8009a4c:	f7ff ffc8 	bl	80099e0 <prvCheckForValidListAndQueue>
 8009a50:	4b12      	ldr	r3, [pc, #72]	@ (8009a9c <xTimerCreateTimerTask+0x54>)
 8009a52:	681b      	ldr	r3, [r3, #0]
 8009a54:	b1b3      	cbz	r3, 8009a84 <xTimerCreateTimerTask+0x3c>
 8009a56:	2400      	movs	r4, #0
 8009a58:	aa07      	add	r2, sp, #28
 8009a5a:	a906      	add	r1, sp, #24
 8009a5c:	a805      	add	r0, sp, #20
 8009a5e:	e9cd 4405 	strd	r4, r4, [sp, #20]
 8009a62:	f7fe fcc5 	bl	80083f0 <vApplicationGetTimerTaskMemory>
 8009a66:	9b05      	ldr	r3, [sp, #20]
 8009a68:	9302      	str	r3, [sp, #8]
 8009a6a:	9b06      	ldr	r3, [sp, #24]
 8009a6c:	9301      	str	r3, [sp, #4]
 8009a6e:	2302      	movs	r3, #2
 8009a70:	9300      	str	r3, [sp, #0]
 8009a72:	9a07      	ldr	r2, [sp, #28]
 8009a74:	490a      	ldr	r1, [pc, #40]	@ (8009aa0 <xTimerCreateTimerTask+0x58>)
 8009a76:	480b      	ldr	r0, [pc, #44]	@ (8009aa4 <xTimerCreateTimerTask+0x5c>)
 8009a78:	4623      	mov	r3, r4
 8009a7a:	f7ff fc06 	bl	800928a <xTaskCreateStatic>
 8009a7e:	4b0a      	ldr	r3, [pc, #40]	@ (8009aa8 <xTimerCreateTimerTask+0x60>)
 8009a80:	6018      	str	r0, [r3, #0]
 8009a82:	b940      	cbnz	r0, 8009a96 <xTimerCreateTimerTask+0x4e>
 8009a84:	f04f 0350 	mov.w	r3, #80	@ 0x50
 8009a88:	f383 8811 	msr	BASEPRI, r3
 8009a8c:	f3bf 8f6f 	isb	sy
 8009a90:	f3bf 8f4f 	dsb	sy
 8009a94:	e7fe      	b.n	8009a94 <xTimerCreateTimerTask+0x4c>
 8009a96:	2001      	movs	r0, #1
 8009a98:	b008      	add	sp, #32
 8009a9a:	bd10      	pop	{r4, pc}
 8009a9c:	2000e4cc 	.word	0x2000e4cc
 8009aa0:	0800ac75 	.word	0x0800ac75
 8009aa4:	08009ba9 	.word	0x08009ba9
 8009aa8:	2000e4c8 	.word	0x2000e4c8

08009aac <xTimerGenericCommand>:
 8009aac:	b57f      	push	{r0, r1, r2, r3, r4, r5, r6, lr}
 8009aae:	4616      	mov	r6, r2
 8009ab0:	4604      	mov	r4, r0
 8009ab2:	461a      	mov	r2, r3
 8009ab4:	b940      	cbnz	r0, 8009ac8 <xTimerGenericCommand+0x1c>
 8009ab6:	f04f 0350 	mov.w	r3, #80	@ 0x50
 8009aba:	f383 8811 	msr	BASEPRI, r3
 8009abe:	f3bf 8f6f 	isb	sy
 8009ac2:	f3bf 8f4f 	dsb	sy
 8009ac6:	e7fe      	b.n	8009ac6 <xTimerGenericCommand+0x1a>
 8009ac8:	4d0d      	ldr	r5, [pc, #52]	@ (8009b00 <xTimerGenericCommand+0x54>)
 8009aca:	6828      	ldr	r0, [r5, #0]
 8009acc:	b180      	cbz	r0, 8009af0 <xTimerGenericCommand+0x44>
 8009ace:	2905      	cmp	r1, #5
 8009ad0:	e9cd 1600 	strd	r1, r6, [sp]
 8009ad4:	9402      	str	r4, [sp, #8]
 8009ad6:	dc0d      	bgt.n	8009af4 <xTimerGenericCommand+0x48>
 8009ad8:	f7ff ff12 	bl	8009900 <xTaskGetSchedulerState>
 8009adc:	2300      	movs	r3, #0
 8009ade:	2802      	cmp	r0, #2
 8009ae0:	bf08      	it	eq
 8009ae2:	9a08      	ldreq	r2, [sp, #32]
 8009ae4:	6828      	ldr	r0, [r5, #0]
 8009ae6:	bf18      	it	ne
 8009ae8:	461a      	movne	r2, r3
 8009aea:	4669      	mov	r1, sp
 8009aec:	f7ff f889 	bl	8008c02 <xQueueGenericSend>
 8009af0:	b004      	add	sp, #16
 8009af2:	bd70      	pop	{r4, r5, r6, pc}
 8009af4:	2300      	movs	r3, #0
 8009af6:	4669      	mov	r1, sp
 8009af8:	f7ff f935 	bl	8008d66 <xQueueGenericSendFromISR>
 8009afc:	e7f8      	b.n	8009af0 <xTimerGenericCommand+0x44>
 8009afe:	bf00      	nop
 8009b00:	2000e4cc 	.word	0x2000e4cc

08009b04 <prvSampleTimeNow>:
 8009b04:	e92d 47f3 	stmdb	sp!, {r0, r1, r4, r5, r6, r7, r8, r9, sl, lr}
 8009b08:	f8df 8098 	ldr.w	r8, [pc, #152]	@ 8009ba4 <prvSampleTimeNow+0xa0>
 8009b0c:	4606      	mov	r6, r0
 8009b0e:	f7ff fc71 	bl	80093f4 <xTaskGetTickCount>
 8009b12:	f8d8 3000 	ldr.w	r3, [r8]
 8009b16:	4283      	cmp	r3, r0
 8009b18:	4605      	mov	r5, r0
 8009b1a:	d909      	bls.n	8009b30 <prvSampleTimeNow+0x2c>
 8009b1c:	4f1f      	ldr	r7, [pc, #124]	@ (8009b9c <prvSampleTimeNow+0x98>)
 8009b1e:	683b      	ldr	r3, [r7, #0]
 8009b20:	681a      	ldr	r2, [r3, #0]
 8009b22:	b96a      	cbnz	r2, 8009b40 <prvSampleTimeNow+0x3c>
 8009b24:	4a1e      	ldr	r2, [pc, #120]	@ (8009ba0 <prvSampleTimeNow+0x9c>)
 8009b26:	6811      	ldr	r1, [r2, #0]
 8009b28:	6039      	str	r1, [r7, #0]
 8009b2a:	6013      	str	r3, [r2, #0]
 8009b2c:	2301      	movs	r3, #1
 8009b2e:	e000      	b.n	8009b32 <prvSampleTimeNow+0x2e>
 8009b30:	2300      	movs	r3, #0
 8009b32:	4628      	mov	r0, r5
 8009b34:	6033      	str	r3, [r6, #0]
 8009b36:	f8c8 5000 	str.w	r5, [r8]
 8009b3a:	b002      	add	sp, #8
 8009b3c:	e8bd 87f0 	ldmia.w	sp!, {r4, r5, r6, r7, r8, r9, sl, pc}
 8009b40:	68db      	ldr	r3, [r3, #12]
 8009b42:	68dc      	ldr	r4, [r3, #12]
 8009b44:	f8d3 9000 	ldr.w	r9, [r3]
 8009b48:	f104 0a04 	add.w	sl, r4, #4
 8009b4c:	4650      	mov	r0, sl
 8009b4e:	f7fe fd87 	bl	8008660 <uxListRemove>
 8009b52:	6a23      	ldr	r3, [r4, #32]
 8009b54:	4620      	mov	r0, r4
 8009b56:	4798      	blx	r3
 8009b58:	f894 3028 	ldrb.w	r3, [r4, #40]	@ 0x28
 8009b5c:	075b      	lsls	r3, r3, #29
 8009b5e:	d5de      	bpl.n	8009b1e <prvSampleTimeNow+0x1a>
 8009b60:	69a3      	ldr	r3, [r4, #24]
 8009b62:	444b      	add	r3, r9
 8009b64:	4599      	cmp	r9, r3
 8009b66:	d206      	bcs.n	8009b76 <prvSampleTimeNow+0x72>
 8009b68:	6838      	ldr	r0, [r7, #0]
 8009b6a:	6063      	str	r3, [r4, #4]
 8009b6c:	6124      	str	r4, [r4, #16]
 8009b6e:	4651      	mov	r1, sl
 8009b70:	f7fe fd5f 	bl	8008632 <vListInsert>
 8009b74:	e7d3      	b.n	8009b1e <prvSampleTimeNow+0x1a>
 8009b76:	2300      	movs	r3, #0
 8009b78:	9300      	str	r3, [sp, #0]
 8009b7a:	464a      	mov	r2, r9
 8009b7c:	4619      	mov	r1, r3
 8009b7e:	4620      	mov	r0, r4
 8009b80:	f7ff ff94 	bl	8009aac <xTimerGenericCommand>
 8009b84:	2800      	cmp	r0, #0
 8009b86:	d1ca      	bne.n	8009b1e <prvSampleTimeNow+0x1a>
 8009b88:	f04f 0350 	mov.w	r3, #80	@ 0x50
 8009b8c:	f383 8811 	msr	BASEPRI, r3
 8009b90:	f3bf 8f6f 	isb	sy
 8009b94:	f3bf 8f4f 	dsb	sy
 8009b98:	e7fe      	b.n	8009b98 <prvSampleTimeNow+0x94>
 8009b9a:	bf00      	nop
 8009b9c:	2000e4d4 	.word	0x2000e4d4
 8009ba0:	2000e4d0 	.word	0x2000e4d0
 8009ba4:	2000e4c4 	.word	0x2000e4c4

08009ba8 <prvTimerTask>:
 8009ba8:	e92d 43f0 	stmdb	sp!, {r4, r5, r6, r7, r8, r9, lr}
 8009bac:	4d6e      	ldr	r5, [pc, #440]	@ (8009d68 <prvTimerTask+0x1c0>)
 8009bae:	4e6f      	ldr	r6, [pc, #444]	@ (8009d6c <prvTimerTask+0x1c4>)
 8009bb0:	b089      	sub	sp, #36	@ 0x24
 8009bb2:	682b      	ldr	r3, [r5, #0]
 8009bb4:	f8d3 8000 	ldr.w	r8, [r3]
 8009bb8:	f1b8 0f00 	cmp.w	r8, #0
 8009bbc:	d035      	beq.n	8009c2a <prvTimerTask+0x82>
 8009bbe:	68db      	ldr	r3, [r3, #12]
 8009bc0:	f8d3 8000 	ldr.w	r8, [r3]
 8009bc4:	2400      	movs	r4, #0
 8009bc6:	f7ff fc0d 	bl	80093e4 <vTaskSuspendAll>
 8009bca:	a804      	add	r0, sp, #16
 8009bcc:	f7ff ff9a 	bl	8009b04 <prvSampleTimeNow>
 8009bd0:	9b04      	ldr	r3, [sp, #16]
 8009bd2:	4681      	mov	r9, r0
 8009bd4:	2b00      	cmp	r3, #0
 8009bd6:	d169      	bne.n	8009cac <prvTimerTask+0x104>
 8009bd8:	2c00      	cmp	r4, #0
 8009bda:	d14c      	bne.n	8009c76 <prvTimerTask+0xce>
 8009bdc:	4540      	cmp	r0, r8
 8009bde:	d350      	bcc.n	8009c82 <prvTimerTask+0xda>
 8009be0:	f7ff fcac 	bl	800953c <xTaskResumeAll>
 8009be4:	682b      	ldr	r3, [r5, #0]
 8009be6:	68db      	ldr	r3, [r3, #12]
 8009be8:	68df      	ldr	r7, [r3, #12]
 8009bea:	1d38      	adds	r0, r7, #4
 8009bec:	f7fe fd38 	bl	8008660 <uxListRemove>
 8009bf0:	f897 3028 	ldrb.w	r3, [r7, #40]	@ 0x28
 8009bf4:	0758      	lsls	r0, r3, #29
 8009bf6:	d51a      	bpl.n	8009c2e <prvTimerTask+0x86>
 8009bf8:	69b9      	ldr	r1, [r7, #24]
 8009bfa:	4643      	mov	r3, r8
 8009bfc:	464a      	mov	r2, r9
 8009bfe:	4441      	add	r1, r8
 8009c00:	4638      	mov	r0, r7
 8009c02:	f7ff fecf 	bl	80099a4 <prvInsertTimerInActiveList>
 8009c06:	b1b0      	cbz	r0, 8009c36 <prvTimerTask+0x8e>
 8009c08:	9400      	str	r4, [sp, #0]
 8009c0a:	4623      	mov	r3, r4
 8009c0c:	4642      	mov	r2, r8
 8009c0e:	4621      	mov	r1, r4
 8009c10:	4638      	mov	r0, r7
 8009c12:	f7ff ff4b 	bl	8009aac <xTimerGenericCommand>
 8009c16:	b970      	cbnz	r0, 8009c36 <prvTimerTask+0x8e>
 8009c18:	f04f 0350 	mov.w	r3, #80	@ 0x50
 8009c1c:	f383 8811 	msr	BASEPRI, r3
 8009c20:	f3bf 8f6f 	isb	sy
 8009c24:	f3bf 8f4f 	dsb	sy
 8009c28:	e7fe      	b.n	8009c28 <prvTimerTask+0x80>
 8009c2a:	2401      	movs	r4, #1
 8009c2c:	e7cb      	b.n	8009bc6 <prvTimerTask+0x1e>
 8009c2e:	f023 0301 	bic.w	r3, r3, #1
 8009c32:	f887 3028 	strb.w	r3, [r7, #40]	@ 0x28
 8009c36:	6a3b      	ldr	r3, [r7, #32]
 8009c38:	4638      	mov	r0, r7
 8009c3a:	4798      	blx	r3
 8009c3c:	6830      	ldr	r0, [r6, #0]
 8009c3e:	2200      	movs	r2, #0
 8009c40:	a904      	add	r1, sp, #16
 8009c42:	f7ff f8ed 	bl	8008e20 <xQueueReceive>
 8009c46:	2800      	cmp	r0, #0
 8009c48:	d0b3      	beq.n	8009bb2 <prvTimerTask+0xa>
 8009c4a:	9b04      	ldr	r3, [sp, #16]
 8009c4c:	9806      	ldr	r0, [sp, #24]
 8009c4e:	2b00      	cmp	r3, #0
 8009c50:	db2f      	blt.n	8009cb2 <prvTimerTask+0x10a>
 8009c52:	9c06      	ldr	r4, [sp, #24]
 8009c54:	6963      	ldr	r3, [r4, #20]
 8009c56:	2b00      	cmp	r3, #0
 8009c58:	d132      	bne.n	8009cc0 <prvTimerTask+0x118>
 8009c5a:	a803      	add	r0, sp, #12
 8009c5c:	f7ff ff52 	bl	8009b04 <prvSampleTimeNow>
 8009c60:	9b04      	ldr	r3, [sp, #16]
 8009c62:	4602      	mov	r2, r0
 8009c64:	2b09      	cmp	r3, #9
 8009c66:	d8e9      	bhi.n	8009c3c <prvTimerTask+0x94>
 8009c68:	e8df f003 	tbb	[pc, r3]
 8009c6c:	572e2e2e 	.word	0x572e2e2e
 8009c70:	2e2e765e 	.word	0x2e2e765e
 8009c74:	5e57      	.short	0x5e57
 8009c76:	4b3e      	ldr	r3, [pc, #248]	@ (8009d70 <prvTimerTask+0x1c8>)
 8009c78:	681b      	ldr	r3, [r3, #0]
 8009c7a:	681c      	ldr	r4, [r3, #0]
 8009c7c:	fab4 f484 	clz	r4, r4
 8009c80:	0964      	lsrs	r4, r4, #5
 8009c82:	6830      	ldr	r0, [r6, #0]
 8009c84:	4622      	mov	r2, r4
 8009c86:	eba8 0109 	sub.w	r1, r8, r9
 8009c8a:	f7ff f979 	bl	8008f80 <vQueueWaitForMessageRestricted>
 8009c8e:	f7ff fc55 	bl	800953c <xTaskResumeAll>
 8009c92:	2800      	cmp	r0, #0
 8009c94:	d1d2      	bne.n	8009c3c <prvTimerTask+0x94>
 8009c96:	f04f 23e0 	mov.w	r3, #3758153728	@ 0xe000e000
 8009c9a:	f04f 5280 	mov.w	r2, #268435456	@ 0x10000000
 8009c9e:	f8c3 2d04 	str.w	r2, [r3, #3332]	@ 0xd04
 8009ca2:	f3bf 8f4f 	dsb	sy
 8009ca6:	f3bf 8f6f 	isb	sy
 8009caa:	e7c7      	b.n	8009c3c <prvTimerTask+0x94>
 8009cac:	f7ff fc46 	bl	800953c <xTaskResumeAll>
 8009cb0:	e7c4      	b.n	8009c3c <prvTimerTask+0x94>
 8009cb2:	9b05      	ldr	r3, [sp, #20]
 8009cb4:	9907      	ldr	r1, [sp, #28]
 8009cb6:	4798      	blx	r3
 8009cb8:	9b04      	ldr	r3, [sp, #16]
 8009cba:	2b00      	cmp	r3, #0
 8009cbc:	dbbe      	blt.n	8009c3c <prvTimerTask+0x94>
 8009cbe:	e7c8      	b.n	8009c52 <prvTimerTask+0xaa>
 8009cc0:	1d20      	adds	r0, r4, #4
 8009cc2:	f7fe fccd 	bl	8008660 <uxListRemove>
 8009cc6:	e7c8      	b.n	8009c5a <prvTimerTask+0xb2>
 8009cc8:	f894 3028 	ldrb.w	r3, [r4, #40]	@ 0x28
 8009ccc:	69a1      	ldr	r1, [r4, #24]
 8009cce:	f043 0301 	orr.w	r3, r3, #1
 8009cd2:	f884 3028 	strb.w	r3, [r4, #40]	@ 0x28
 8009cd6:	9b05      	ldr	r3, [sp, #20]
 8009cd8:	4620      	mov	r0, r4
 8009cda:	4419      	add	r1, r3
 8009cdc:	f7ff fe62 	bl	80099a4 <prvInsertTimerInActiveList>
 8009ce0:	2800      	cmp	r0, #0
 8009ce2:	d0ab      	beq.n	8009c3c <prvTimerTask+0x94>
 8009ce4:	6a23      	ldr	r3, [r4, #32]
 8009ce6:	4620      	mov	r0, r4
 8009ce8:	4798      	blx	r3
 8009cea:	f894 3028 	ldrb.w	r3, [r4, #40]	@ 0x28
 8009cee:	0759      	lsls	r1, r3, #29
 8009cf0:	d5a4      	bpl.n	8009c3c <prvTimerTask+0x94>
 8009cf2:	69a2      	ldr	r2, [r4, #24]
 8009cf4:	9905      	ldr	r1, [sp, #20]
 8009cf6:	2300      	movs	r3, #0
 8009cf8:	440a      	add	r2, r1
 8009cfa:	9300      	str	r3, [sp, #0]
 8009cfc:	4619      	mov	r1, r3
 8009cfe:	4620      	mov	r0, r4
 8009d00:	f7ff fed4 	bl	8009aac <xTimerGenericCommand>
 8009d04:	2800      	cmp	r0, #0
 8009d06:	d199      	bne.n	8009c3c <prvTimerTask+0x94>
 8009d08:	f04f 0350 	mov.w	r3, #80	@ 0x50
 8009d0c:	f383 8811 	msr	BASEPRI, r3
 8009d10:	f3bf 8f6f 	isb	sy
 8009d14:	f3bf 8f4f 	dsb	sy
 8009d18:	e7fe      	b.n	8009d18 <prvTimerTask+0x170>
 8009d1a:	f894 3028 	ldrb.w	r3, [r4, #40]	@ 0x28
 8009d1e:	f023 0301 	bic.w	r3, r3, #1
 8009d22:	f884 3028 	strb.w	r3, [r4, #40]	@ 0x28
 8009d26:	e789      	b.n	8009c3c <prvTimerTask+0x94>
 8009d28:	f894 3028 	ldrb.w	r3, [r4, #40]	@ 0x28
 8009d2c:	f043 0301 	orr.w	r3, r3, #1
 8009d30:	f884 3028 	strb.w	r3, [r4, #40]	@ 0x28
 8009d34:	9905      	ldr	r1, [sp, #20]
 8009d36:	61a1      	str	r1, [r4, #24]
 8009d38:	b941      	cbnz	r1, 8009d4c <prvTimerTask+0x1a4>
 8009d3a:	f04f 0350 	mov.w	r3, #80	@ 0x50
 8009d3e:	f383 8811 	msr	BASEPRI, r3
 8009d42:	f3bf 8f6f 	isb	sy
 8009d46:	f3bf 8f4f 	dsb	sy
 8009d4a:	e7fe      	b.n	8009d4a <prvTimerTask+0x1a2>
 8009d4c:	4603      	mov	r3, r0
 8009d4e:	4401      	add	r1, r0
 8009d50:	4620      	mov	r0, r4
 8009d52:	f7ff fe27 	bl	80099a4 <prvInsertTimerInActiveList>
 8009d56:	e771      	b.n	8009c3c <prvTimerTask+0x94>
 8009d58:	f894 3028 	ldrb.w	r3, [r4, #40]	@ 0x28
 8009d5c:	079a      	lsls	r2, r3, #30
 8009d5e:	d4de      	bmi.n	8009d1e <prvTimerTask+0x176>
 8009d60:	4620      	mov	r0, r4
 8009d62:	f7fe fc0f 	bl	8008584 <vPortFree>
 8009d66:	e769      	b.n	8009c3c <prvTimerTask+0x94>
 8009d68:	2000e4d4 	.word	0x2000e4d4
 8009d6c:	2000e4cc 	.word	0x2000e4cc
 8009d70:	2000e4d0 	.word	0x2000e4d0

08009d74 <sniprintf>:
 8009d74:	b40c      	push	{r2, r3}
 8009d76:	b530      	push	{r4, r5, lr}
 8009d78:	4b18      	ldr	r3, [pc, #96]	@ (8009ddc <sniprintf+0x68>)
 8009d7a:	1e0c      	subs	r4, r1, #0
 8009d7c:	681d      	ldr	r5, [r3, #0]
 8009d7e:	b09d      	sub	sp, #116	@ 0x74
 8009d80:	da08      	bge.n	8009d94 <sniprintf+0x20>
 8009d82:	238b      	movs	r3, #139	@ 0x8b
 8009d84:	602b      	str	r3, [r5, #0]
 8009d86:	f04f 30ff 	mov.w	r0, #4294967295
 8009d8a:	b01d      	add	sp, #116	@ 0x74
 8009d8c:	e8bd 4030 	ldmia.w	sp!, {r4, r5, lr}
 8009d90:	b002      	add	sp, #8
 8009d92:	4770      	bx	lr
 8009d94:	f44f 7302 	mov.w	r3, #520	@ 0x208
 8009d98:	f8ad 3014 	strh.w	r3, [sp, #20]
 8009d9c:	f04f 0300 	mov.w	r3, #0
 8009da0:	931b      	str	r3, [sp, #108]	@ 0x6c
 8009da2:	bf14      	ite	ne
 8009da4:	f104 33ff 	addne.w	r3, r4, #4294967295
 8009da8:	4623      	moveq	r3, r4
 8009daa:	9304      	str	r3, [sp, #16]
 8009dac:	9307      	str	r3, [sp, #28]
 8009dae:	f64f 73ff 	movw	r3, #65535	@ 0xffff
 8009db2:	9002      	str	r0, [sp, #8]
 8009db4:	9006      	str	r0, [sp, #24]
 8009db6:	f8ad 3016 	strh.w	r3, [sp, #22]
 8009dba:	9a20      	ldr	r2, [sp, #128]	@ 0x80
 8009dbc:	ab21      	add	r3, sp, #132	@ 0x84
 8009dbe:	a902      	add	r1, sp, #8
 8009dc0:	4628      	mov	r0, r5
 8009dc2:	9301      	str	r3, [sp, #4]
 8009dc4:	f000 f9c4 	bl	800a150 <_svfiprintf_r>
 8009dc8:	1c43      	adds	r3, r0, #1
 8009dca:	bfbc      	itt	lt
 8009dcc:	238b      	movlt	r3, #139	@ 0x8b
 8009dce:	602b      	strlt	r3, [r5, #0]
 8009dd0:	2c00      	cmp	r4, #0
 8009dd2:	d0da      	beq.n	8009d8a <sniprintf+0x16>
 8009dd4:	9b02      	ldr	r3, [sp, #8]
 8009dd6:	2200      	movs	r2, #0
 8009dd8:	701a      	strb	r2, [r3, #0]
 8009dda:	e7d6      	b.n	8009d8a <sniprintf+0x16>
 8009ddc:	2000051c 	.word	0x2000051c

08009de0 <siprintf>:
 8009de0:	b40e      	push	{r1, r2, r3}
 8009de2:	b510      	push	{r4, lr}
 8009de4:	b09d      	sub	sp, #116	@ 0x74
 8009de6:	ab1f      	add	r3, sp, #124	@ 0x7c
 8009de8:	9002      	str	r0, [sp, #8]
 8009dea:	9006      	str	r0, [sp, #24]
 8009dec:	f06f 4100 	mvn.w	r1, #2147483648	@ 0x80000000
 8009df0:	480a      	ldr	r0, [pc, #40]	@ (8009e1c <siprintf+0x3c>)
 8009df2:	9107      	str	r1, [sp, #28]
 8009df4:	9104      	str	r1, [sp, #16]
 8009df6:	490a      	ldr	r1, [pc, #40]	@ (8009e20 <siprintf+0x40>)
 8009df8:	f853 2b04 	ldr.w	r2, [r3], #4
 8009dfc:	9105      	str	r1, [sp, #20]
 8009dfe:	2400      	movs	r4, #0
 8009e00:	a902      	add	r1, sp, #8
 8009e02:	6800      	ldr	r0, [r0, #0]
 8009e04:	9301      	str	r3, [sp, #4]
 8009e06:	941b      	str	r4, [sp, #108]	@ 0x6c
 8009e08:	f000 f9a2 	bl	800a150 <_svfiprintf_r>
 8009e0c:	9b02      	ldr	r3, [sp, #8]
 8009e0e:	701c      	strb	r4, [r3, #0]
 8009e10:	b01d      	add	sp, #116	@ 0x74
 8009e12:	e8bd 4010 	ldmia.w	sp!, {r4, lr}
 8009e16:	b003      	add	sp, #12
 8009e18:	4770      	bx	lr
 8009e1a:	bf00      	nop
 8009e1c:	2000051c 	.word	0x2000051c
 8009e20:	ffff0208 	.word	0xffff0208

08009e24 <memset>:
 8009e24:	4402      	add	r2, r0
 8009e26:	4603      	mov	r3, r0
 8009e28:	4293      	cmp	r3, r2
 8009e2a:	d100      	bne.n	8009e2e <memset+0xa>
 8009e2c:	4770      	bx	lr
 8009e2e:	f803 1b01 	strb.w	r1, [r3], #1
 8009e32:	e7f9      	b.n	8009e28 <memset+0x4>

08009e34 <__errno>:
 8009e34:	4b01      	ldr	r3, [pc, #4]	@ (8009e3c <__errno+0x8>)
 8009e36:	6818      	ldr	r0, [r3, #0]
 8009e38:	4770      	bx	lr
 8009e3a:	bf00      	nop
 8009e3c:	2000051c 	.word	0x2000051c

08009e40 <__libc_init_array>:
 8009e40:	b570      	push	{r4, r5, r6, lr}
 8009e42:	4d0d      	ldr	r5, [pc, #52]	@ (8009e78 <__libc_init_array+0x38>)
 8009e44:	4c0d      	ldr	r4, [pc, #52]	@ (8009e7c <__libc_init_array+0x3c>)
 8009e46:	1b64      	subs	r4, r4, r5
 8009e48:	10a4      	asrs	r4, r4, #2
 8009e4a:	2600      	movs	r6, #0
 8009e4c:	42a6      	cmp	r6, r4
 8009e4e:	d109      	bne.n	8009e64 <__libc_init_array+0x24>
 8009e50:	4d0b      	ldr	r5, [pc, #44]	@ (8009e80 <__libc_init_array+0x40>)
 8009e52:	4c0c      	ldr	r4, [pc, #48]	@ (8009e84 <__libc_init_array+0x44>)
 8009e54:	f000 fc64 	bl	800a720 <_init>
 8009e58:	1b64      	subs	r4, r4, r5
 8009e5a:	10a4      	asrs	r4, r4, #2
 8009e5c:	2600      	movs	r6, #0
 8009e5e:	42a6      	cmp	r6, r4
 8009e60:	d105      	bne.n	8009e6e <__libc_init_array+0x2e>
 8009e62:	bd70      	pop	{r4, r5, r6, pc}
 8009e64:	f855 3b04 	ldr.w	r3, [r5], #4
 8009e68:	4798      	blx	r3
 8009e6a:	3601      	adds	r6, #1
 8009e6c:	e7ee      	b.n	8009e4c <__libc_init_array+0xc>
 8009e6e:	f855 3b04 	ldr.w	r3, [r5], #4
 8009e72:	4798      	blx	r3
 8009e74:	3601      	adds	r6, #1
 8009e76:	e7f2      	b.n	8009e5e <__libc_init_array+0x1e>
 8009e78:	08018bd8 	.word	0x08018bd8
 8009e7c:	08018bd8 	.word	0x08018bd8
 8009e80:	08018bd8 	.word	0x08018bd8
 8009e84:	08018bdc 	.word	0x08018bdc

08009e88 <__retarget_lock_acquire_recursive>:
 8009e88:	4770      	bx	lr

08009e8a <__retarget_lock_release_recursive>:
 8009e8a:	4770      	bx	lr

08009e8c <memcpy>:
 8009e8c:	440a      	add	r2, r1
 8009e8e:	4291      	cmp	r1, r2
 8009e90:	f100 33ff 	add.w	r3, r0, #4294967295
 8009e94:	d100      	bne.n	8009e98 <memcpy+0xc>
 8009e96:	4770      	bx	lr
 8009e98:	b510      	push	{r4, lr}
 8009e9a:	f811 4b01 	ldrb.w	r4, [r1], #1
 8009e9e:	f803 4f01 	strb.w	r4, [r3, #1]!
 8009ea2:	4291      	cmp	r1, r2
 8009ea4:	d1f9      	bne.n	8009e9a <memcpy+0xe>
 8009ea6:	bd10      	pop	{r4, pc}

08009ea8 <_free_r>:
 8009ea8:	b538      	push	{r3, r4, r5, lr}
 8009eaa:	4605      	mov	r5, r0
 8009eac:	2900      	cmp	r1, #0
 8009eae:	d041      	beq.n	8009f34 <_free_r+0x8c>
 8009eb0:	f851 3c04 	ldr.w	r3, [r1, #-4]
 8009eb4:	1f0c      	subs	r4, r1, #4
 8009eb6:	2b00      	cmp	r3, #0
 8009eb8:	bfb8      	it	lt
 8009eba:	18e4      	addlt	r4, r4, r3
 8009ebc:	f000 f8e0 	bl	800a080 <__malloc_lock>
 8009ec0:	4a1d      	ldr	r2, [pc, #116]	@ (8009f38 <_free_r+0x90>)
 8009ec2:	6813      	ldr	r3, [r2, #0]
 8009ec4:	b933      	cbnz	r3, 8009ed4 <_free_r+0x2c>
 8009ec6:	6063      	str	r3, [r4, #4]
 8009ec8:	6014      	str	r4, [r2, #0]
 8009eca:	4628      	mov	r0, r5
 8009ecc:	e8bd 4038 	ldmia.w	sp!, {r3, r4, r5, lr}
 8009ed0:	f000 b8dc 	b.w	800a08c <__malloc_unlock>
 8009ed4:	42a3      	cmp	r3, r4
 8009ed6:	d908      	bls.n	8009eea <_free_r+0x42>
 8009ed8:	6820      	ldr	r0, [r4, #0]
 8009eda:	1821      	adds	r1, r4, r0
 8009edc:	428b      	cmp	r3, r1
 8009ede:	bf01      	itttt	eq
 8009ee0:	6819      	ldreq	r1, [r3, #0]
 8009ee2:	685b      	ldreq	r3, [r3, #4]
 8009ee4:	1809      	addeq	r1, r1, r0
 8009ee6:	6021      	streq	r1, [r4, #0]
 8009ee8:	e7ed      	b.n	8009ec6 <_free_r+0x1e>
 8009eea:	461a      	mov	r2, r3
 8009eec:	685b      	ldr	r3, [r3, #4]
 8009eee:	b10b      	cbz	r3, 8009ef4 <_free_r+0x4c>
 8009ef0:	42a3      	cmp	r3, r4
 8009ef2:	d9fa      	bls.n	8009eea <_free_r+0x42>
 8009ef4:	6811      	ldr	r1, [r2, #0]
 8009ef6:	1850      	adds	r0, r2, r1
 8009ef8:	42a0      	cmp	r0, r4
 8009efa:	d10b      	bne.n	8009f14 <_free_r+0x6c>
 8009efc:	6820      	ldr	r0, [r4, #0]
 8009efe:	4401      	add	r1, r0
 8009f00:	1850      	adds	r0, r2, r1
 8009f02:	4283      	cmp	r3, r0
 8009f04:	6011      	str	r1, [r2, #0]
 8009f06:	d1e0      	bne.n	8009eca <_free_r+0x22>
 8009f08:	6818      	ldr	r0, [r3, #0]
 8009f0a:	685b      	ldr	r3, [r3, #4]
 8009f0c:	6053      	str	r3, [r2, #4]
 8009f0e:	4408      	add	r0, r1
 8009f10:	6010      	str	r0, [r2, #0]
 8009f12:	e7da      	b.n	8009eca <_free_r+0x22>
 8009f14:	d902      	bls.n	8009f1c <_free_r+0x74>
 8009f16:	230c      	movs	r3, #12
 8009f18:	602b      	str	r3, [r5, #0]
 8009f1a:	e7d6      	b.n	8009eca <_free_r+0x22>
 8009f1c:	6820      	ldr	r0, [r4, #0]
 8009f1e:	1821      	adds	r1, r4, r0
 8009f20:	428b      	cmp	r3, r1
 8009f22:	bf04      	itt	eq
 8009f24:	6819      	ldreq	r1, [r3, #0]
 8009f26:	685b      	ldreq	r3, [r3, #4]
 8009f28:	6063      	str	r3, [r4, #4]
 8009f2a:	bf04      	itt	eq
 8009f2c:	1809      	addeq	r1, r1, r0
 8009f2e:	6021      	streq	r1, [r4, #0]
 8009f30:	6054      	str	r4, [r2, #4]
 8009f32:	e7ca      	b.n	8009eca <_free_r+0x22>
 8009f34:	bd38      	pop	{r3, r4, r5, pc}
 8009f36:	bf00      	nop
 8009f38:	2000e644 	.word	0x2000e644

08009f3c <sbrk_aligned>:
 8009f3c:	b570      	push	{r4, r5, r6, lr}
 8009f3e:	4e0f      	ldr	r6, [pc, #60]	@ (8009f7c <sbrk_aligned+0x40>)
 8009f40:	460c      	mov	r4, r1
 8009f42:	6831      	ldr	r1, [r6, #0]
 8009f44:	4605      	mov	r5, r0
 8009f46:	b911      	cbnz	r1, 8009f4e <sbrk_aligned+0x12>
 8009f48:	f000 fba4 	bl	800a694 <_sbrk_r>
 8009f4c:	6030      	str	r0, [r6, #0]
 8009f4e:	4621      	mov	r1, r4
 8009f50:	4628      	mov	r0, r5
 8009f52:	f000 fb9f 	bl	800a694 <_sbrk_r>
 8009f56:	1c43      	adds	r3, r0, #1
 8009f58:	d103      	bne.n	8009f62 <sbrk_aligned+0x26>
 8009f5a:	f04f 34ff 	mov.w	r4, #4294967295
 8009f5e:	4620      	mov	r0, r4
 8009f60:	bd70      	pop	{r4, r5, r6, pc}
 8009f62:	1cc4      	adds	r4, r0, #3
 8009f64:	f024 0403 	bic.w	r4, r4, #3
 8009f68:	42a0      	cmp	r0, r4
 8009f6a:	d0f8      	beq.n	8009f5e <sbrk_aligned+0x22>
 8009f6c:	1a21      	subs	r1, r4, r0
 8009f6e:	4628      	mov	r0, r5
 8009f70:	f000 fb90 	bl	800a694 <_sbrk_r>
 8009f74:	3001      	adds	r0, #1
 8009f76:	d1f2      	bne.n	8009f5e <sbrk_aligned+0x22>
 8009f78:	e7ef      	b.n	8009f5a <sbrk_aligned+0x1e>
 8009f7a:	bf00      	nop
 8009f7c:	2000e640 	.word	0x2000e640

08009f80 <_malloc_r>:
 8009f80:	e92d 43f8 	stmdb	sp!, {r3, r4, r5, r6, r7, r8, r9, lr}
 8009f84:	1ccd      	adds	r5, r1, #3
 8009f86:	f025 0503 	bic.w	r5, r5, #3
 8009f8a:	3508      	adds	r5, #8
 8009f8c:	2d0c      	cmp	r5, #12
 8009f8e:	bf38      	it	cc
 8009f90:	250c      	movcc	r5, #12
 8009f92:	2d00      	cmp	r5, #0
 8009f94:	4606      	mov	r6, r0
 8009f96:	db01      	blt.n	8009f9c <_malloc_r+0x1c>
 8009f98:	42a9      	cmp	r1, r5
 8009f9a:	d904      	bls.n	8009fa6 <_malloc_r+0x26>
 8009f9c:	230c      	movs	r3, #12
 8009f9e:	6033      	str	r3, [r6, #0]
 8009fa0:	2000      	movs	r0, #0
 8009fa2:	e8bd 83f8 	ldmia.w	sp!, {r3, r4, r5, r6, r7, r8, r9, pc}
 8009fa6:	f8df 80d4 	ldr.w	r8, [pc, #212]	@ 800a07c <_malloc_r+0xfc>
 8009faa:	f000 f869 	bl	800a080 <__malloc_lock>
 8009fae:	f8d8 3000 	ldr.w	r3, [r8]
 8009fb2:	461c      	mov	r4, r3
 8009fb4:	bb44      	cbnz	r4, 800a008 <_malloc_r+0x88>
 8009fb6:	4629      	mov	r1, r5
 8009fb8:	4630      	mov	r0, r6
 8009fba:	f7ff ffbf 	bl	8009f3c <sbrk_aligned>
 8009fbe:	1c43      	adds	r3, r0, #1
 8009fc0:	4604      	mov	r4, r0
 8009fc2:	d158      	bne.n	800a076 <_malloc_r+0xf6>
 8009fc4:	f8d8 4000 	ldr.w	r4, [r8]
 8009fc8:	4627      	mov	r7, r4
 8009fca:	2f00      	cmp	r7, #0
 8009fcc:	d143      	bne.n	800a056 <_malloc_r+0xd6>
 8009fce:	2c00      	cmp	r4, #0
 8009fd0:	d04b      	beq.n	800a06a <_malloc_r+0xea>
 8009fd2:	6823      	ldr	r3, [r4, #0]
 8009fd4:	4639      	mov	r1, r7
 8009fd6:	4630      	mov	r0, r6
 8009fd8:	eb04 0903 	add.w	r9, r4, r3
 8009fdc:	f000 fb5a 	bl	800a694 <_sbrk_r>
 8009fe0:	4581      	cmp	r9, r0
 8009fe2:	d142      	bne.n	800a06a <_malloc_r+0xea>
 8009fe4:	6821      	ldr	r1, [r4, #0]
 8009fe6:	1a6d      	subs	r5, r5, r1
 8009fe8:	4629      	mov	r1, r5
 8009fea:	4630      	mov	r0, r6
 8009fec:	f7ff ffa6 	bl	8009f3c <sbrk_aligned>
 8009ff0:	3001      	adds	r0, #1
 8009ff2:	d03a      	beq.n	800a06a <_malloc_r+0xea>
 8009ff4:	6823      	ldr	r3, [r4, #0]
 8009ff6:	442b      	add	r3, r5
 8009ff8:	6023      	str	r3, [r4, #0]
 8009ffa:	f8d8 3000 	ldr.w	r3, [r8]
 8009ffe:	685a      	ldr	r2, [r3, #4]
 800a000:	bb62      	cbnz	r2, 800a05c <_malloc_r+0xdc>
 800a002:	f8c8 7000 	str.w	r7, [r8]
 800a006:	e00f      	b.n	800a028 <_malloc_r+0xa8>
 800a008:	6822      	ldr	r2, [r4, #0]
 800a00a:	1b52      	subs	r2, r2, r5
 800a00c:	d420      	bmi.n	800a050 <_malloc_r+0xd0>
 800a00e:	2a0b      	cmp	r2, #11
 800a010:	d917      	bls.n	800a042 <_malloc_r+0xc2>
 800a012:	1961      	adds	r1, r4, r5
 800a014:	42a3      	cmp	r3, r4
 800a016:	6025      	str	r5, [r4, #0]
 800a018:	bf18      	it	ne
 800a01a:	6059      	strne	r1, [r3, #4]
 800a01c:	6863      	ldr	r3, [r4, #4]
 800a01e:	bf08      	it	eq
 800a020:	f8c8 1000 	streq.w	r1, [r8]
 800a024:	5162      	str	r2, [r4, r5]
 800a026:	604b      	str	r3, [r1, #4]
 800a028:	4630      	mov	r0, r6
 800a02a:	f000 f82f 	bl	800a08c <__malloc_unlock>
 800a02e:	f104 000b 	add.w	r0, r4, #11
 800a032:	1d23      	adds	r3, r4, #4
 800a034:	f020 0007 	bic.w	r0, r0, #7
 800a038:	1ac2      	subs	r2, r0, r3
 800a03a:	bf1c      	itt	ne
 800a03c:	1a1b      	subne	r3, r3, r0
 800a03e:	50a3      	strne	r3, [r4, r2]
 800a040:	e7af      	b.n	8009fa2 <_malloc_r+0x22>
 800a042:	6862      	ldr	r2, [r4, #4]
 800a044:	42a3      	cmp	r3, r4
 800a046:	bf0c      	ite	eq
 800a048:	f8c8 2000 	streq.w	r2, [r8]
 800a04c:	605a      	strne	r2, [r3, #4]
 800a04e:	e7eb      	b.n	800a028 <_malloc_r+0xa8>
 800a050:	4623      	mov	r3, r4
 800a052:	6864      	ldr	r4, [r4, #4]
 800a054:	e7ae      	b.n	8009fb4 <_malloc_r+0x34>
 800a056:	463c      	mov	r4, r7
 800a058:	687f      	ldr	r7, [r7, #4]
 800a05a:	e7b6      	b.n	8009fca <_malloc_r+0x4a>
 800a05c:	461a      	mov	r2, r3
 800a05e:	685b      	ldr	r3, [r3, #4]
 800a060:	42a3      	cmp	r3, r4
 800a062:	d1fb      	bne.n	800a05c <_malloc_r+0xdc>
 800a064:	2300      	movs	r3, #0
 800a066:	6053      	str	r3, [r2, #4]
 800a068:	e7de      	b.n	800a028 <_malloc_r+0xa8>
 800a06a:	230c      	movs	r3, #12
 800a06c:	6033      	str	r3, [r6, #0]
 800a06e:	4630      	mov	r0, r6
 800a070:	f000 f80c 	bl	800a08c <__malloc_unlock>
 800a074:	e794      	b.n	8009fa0 <_malloc_r+0x20>
 800a076:	6005      	str	r5, [r0, #0]
 800a078:	e7d6      	b.n	800a028 <_malloc_r+0xa8>
 800a07a:	bf00      	nop
 800a07c:	2000e644 	.word	0x2000e644

0800a080 <__malloc_lock>:
 800a080:	4801      	ldr	r0, [pc, #4]	@ (800a088 <__malloc_lock+0x8>)
 800a082:	f7ff bf01 	b.w	8009e88 <__retarget_lock_acquire_recursive>
 800a086:	bf00      	nop
 800a088:	2000e63c 	.word	0x2000e63c

0800a08c <__malloc_unlock>:
 800a08c:	4801      	ldr	r0, [pc, #4]	@ (800a094 <__malloc_unlock+0x8>)
 800a08e:	f7ff befc 	b.w	8009e8a <__retarget_lock_release_recursive>
 800a092:	bf00      	nop
 800a094:	2000e63c 	.word	0x2000e63c

0800a098 <__ssputs_r>:
 800a098:	e92d 47f0 	stmdb	sp!, {r4, r5, r6, r7, r8, r9, sl, lr}
 800a09c:	688e      	ldr	r6, [r1, #8]
 800a09e:	461f      	mov	r7, r3
 800a0a0:	42be      	cmp	r6, r7
 800a0a2:	680b      	ldr	r3, [r1, #0]
 800a0a4:	4682      	mov	sl, r0
 800a0a6:	460c      	mov	r4, r1
 800a0a8:	4690      	mov	r8, r2
 800a0aa:	d82d      	bhi.n	800a108 <__ssputs_r+0x70>
 800a0ac:	f9b1 200c 	ldrsh.w	r2, [r1, #12]
 800a0b0:	f412 6f90 	tst.w	r2, #1152	@ 0x480
 800a0b4:	d026      	beq.n	800a104 <__ssputs_r+0x6c>
 800a0b6:	6965      	ldr	r5, [r4, #20]
 800a0b8:	6909      	ldr	r1, [r1, #16]
 800a0ba:	eb05 0545 	add.w	r5, r5, r5, lsl #1
 800a0be:	eba3 0901 	sub.w	r9, r3, r1
 800a0c2:	eb05 75d5 	add.w	r5, r5, r5, lsr #31
 800a0c6:	1c7b      	adds	r3, r7, #1
 800a0c8:	444b      	add	r3, r9
 800a0ca:	106d      	asrs	r5, r5, #1
 800a0cc:	429d      	cmp	r5, r3
 800a0ce:	bf38      	it	cc
 800a0d0:	461d      	movcc	r5, r3
 800a0d2:	0553      	lsls	r3, r2, #21
 800a0d4:	d527      	bpl.n	800a126 <__ssputs_r+0x8e>
 800a0d6:	4629      	mov	r1, r5
 800a0d8:	f7ff ff52 	bl	8009f80 <_malloc_r>
 800a0dc:	4606      	mov	r6, r0
 800a0de:	b360      	cbz	r0, 800a13a <__ssputs_r+0xa2>
 800a0e0:	6921      	ldr	r1, [r4, #16]
 800a0e2:	464a      	mov	r2, r9
 800a0e4:	f7ff fed2 	bl	8009e8c <memcpy>
 800a0e8:	89a3      	ldrh	r3, [r4, #12]
 800a0ea:	f423 6390 	bic.w	r3, r3, #1152	@ 0x480
 800a0ee:	f043 0380 	orr.w	r3, r3, #128	@ 0x80
 800a0f2:	81a3      	strh	r3, [r4, #12]
 800a0f4:	6126      	str	r6, [r4, #16]
 800a0f6:	6165      	str	r5, [r4, #20]
 800a0f8:	444e      	add	r6, r9
 800a0fa:	eba5 0509 	sub.w	r5, r5, r9
 800a0fe:	6026      	str	r6, [r4, #0]
 800a100:	60a5      	str	r5, [r4, #8]
 800a102:	463e      	mov	r6, r7
 800a104:	42be      	cmp	r6, r7
 800a106:	d900      	bls.n	800a10a <__ssputs_r+0x72>
 800a108:	463e      	mov	r6, r7
 800a10a:	6820      	ldr	r0, [r4, #0]
 800a10c:	4632      	mov	r2, r6
 800a10e:	4641      	mov	r1, r8
 800a110:	f000 faa6 	bl	800a660 <memmove>
 800a114:	68a3      	ldr	r3, [r4, #8]
 800a116:	1b9b      	subs	r3, r3, r6
 800a118:	60a3      	str	r3, [r4, #8]
 800a11a:	6823      	ldr	r3, [r4, #0]
 800a11c:	4433      	add	r3, r6
 800a11e:	6023      	str	r3, [r4, #0]
 800a120:	2000      	movs	r0, #0
 800a122:	e8bd 87f0 	ldmia.w	sp!, {r4, r5, r6, r7, r8, r9, sl, pc}
 800a126:	462a      	mov	r2, r5
 800a128:	f000 fac4 	bl	800a6b4 <_realloc_r>
 800a12c:	4606      	mov	r6, r0
 800a12e:	2800      	cmp	r0, #0
 800a130:	d1e0      	bne.n	800a0f4 <__ssputs_r+0x5c>
 800a132:	6921      	ldr	r1, [r4, #16]
 800a134:	4650      	mov	r0, sl
 800a136:	f7ff feb7 	bl	8009ea8 <_free_r>
 800a13a:	230c      	movs	r3, #12
 800a13c:	f8ca 3000 	str.w	r3, [sl]
 800a140:	89a3      	ldrh	r3, [r4, #12]
 800a142:	f043 0340 	orr.w	r3, r3, #64	@ 0x40
 800a146:	81a3      	strh	r3, [r4, #12]
 800a148:	f04f 30ff 	mov.w	r0, #4294967295
 800a14c:	e7e9      	b.n	800a122 <__ssputs_r+0x8a>
	...

0800a150 <_svfiprintf_r>:
 800a150:	e92d 4ff0 	stmdb	sp!, {r4, r5, r6, r7, r8, r9, sl, fp, lr}
 800a154:	4698      	mov	r8, r3
 800a156:	898b      	ldrh	r3, [r1, #12]
 800a158:	061b      	lsls	r3, r3, #24
 800a15a:	b09d      	sub	sp, #116	@ 0x74
 800a15c:	4607      	mov	r7, r0
 800a15e:	460d      	mov	r5, r1
 800a160:	4614      	mov	r4, r2
 800a162:	d510      	bpl.n	800a186 <_svfiprintf_r+0x36>
 800a164:	690b      	ldr	r3, [r1, #16]
 800a166:	b973      	cbnz	r3, 800a186 <_svfiprintf_r+0x36>
 800a168:	2140      	movs	r1, #64	@ 0x40
 800a16a:	f7ff ff09 	bl	8009f80 <_malloc_r>
 800a16e:	6028      	str	r0, [r5, #0]
 800a170:	6128      	str	r0, [r5, #16]
 800a172:	b930      	cbnz	r0, 800a182 <_svfiprintf_r+0x32>
 800a174:	230c      	movs	r3, #12
 800a176:	603b      	str	r3, [r7, #0]
 800a178:	f04f 30ff 	mov.w	r0, #4294967295
 800a17c:	b01d      	add	sp, #116	@ 0x74
 800a17e:	e8bd 8ff0 	ldmia.w	sp!, {r4, r5, r6, r7, r8, r9, sl, fp, pc}
 800a182:	2340      	movs	r3, #64	@ 0x40
 800a184:	616b      	str	r3, [r5, #20]
 800a186:	2300      	movs	r3, #0
 800a188:	9309      	str	r3, [sp, #36]	@ 0x24
 800a18a:	2320      	movs	r3, #32
 800a18c:	f88d 3029 	strb.w	r3, [sp, #41]	@ 0x29
 800a190:	f8cd 800c 	str.w	r8, [sp, #12]
 800a194:	2330      	movs	r3, #48	@ 0x30
 800a196:	f8df 819c 	ldr.w	r8, [pc, #412]	@ 800a334 <_svfiprintf_r+0x1e4>
 800a19a:	f88d 302a 	strb.w	r3, [sp, #42]	@ 0x2a
 800a19e:	f04f 0901 	mov.w	r9, #1
 800a1a2:	4623      	mov	r3, r4
 800a1a4:	469a      	mov	sl, r3
 800a1a6:	f813 2b01 	ldrb.w	r2, [r3], #1
 800a1aa:	b10a      	cbz	r2, 800a1b0 <_svfiprintf_r+0x60>
 800a1ac:	2a25      	cmp	r2, #37	@ 0x25
 800a1ae:	d1f9      	bne.n	800a1a4 <_svfiprintf_r+0x54>
 800a1b0:	ebba 0b04 	subs.w	fp, sl, r4
 800a1b4:	d00b      	beq.n	800a1ce <_svfiprintf_r+0x7e>
 800a1b6:	465b      	mov	r3, fp
 800a1b8:	4622      	mov	r2, r4
 800a1ba:	4629      	mov	r1, r5
 800a1bc:	4638      	mov	r0, r7
 800a1be:	f7ff ff6b 	bl	800a098 <__ssputs_r>
 800a1c2:	3001      	adds	r0, #1
 800a1c4:	f000 80a7 	beq.w	800a316 <_svfiprintf_r+0x1c6>
 800a1c8:	9a09      	ldr	r2, [sp, #36]	@ 0x24
 800a1ca:	445a      	add	r2, fp
 800a1cc:	9209      	str	r2, [sp, #36]	@ 0x24
 800a1ce:	f89a 3000 	ldrb.w	r3, [sl]
 800a1d2:	2b00      	cmp	r3, #0
 800a1d4:	f000 809f 	beq.w	800a316 <_svfiprintf_r+0x1c6>
 800a1d8:	2300      	movs	r3, #0
 800a1da:	f04f 32ff 	mov.w	r2, #4294967295
 800a1de:	e9cd 2305 	strd	r2, r3, [sp, #20]
 800a1e2:	f10a 0a01 	add.w	sl, sl, #1
 800a1e6:	9304      	str	r3, [sp, #16]
 800a1e8:	9307      	str	r3, [sp, #28]
 800a1ea:	f88d 3053 	strb.w	r3, [sp, #83]	@ 0x53
 800a1ee:	931a      	str	r3, [sp, #104]	@ 0x68
 800a1f0:	4654      	mov	r4, sl
 800a1f2:	2205      	movs	r2, #5
 800a1f4:	f814 1b01 	ldrb.w	r1, [r4], #1
 800a1f8:	484e      	ldr	r0, [pc, #312]	@ (800a334 <_svfiprintf_r+0x1e4>)
 800a1fa:	f7f5 fff9 	bl	80001f0 <memchr>
 800a1fe:	9a04      	ldr	r2, [sp, #16]
 800a200:	b9d8      	cbnz	r0, 800a23a <_svfiprintf_r+0xea>
 800a202:	06d0      	lsls	r0, r2, #27
 800a204:	bf44      	itt	mi
 800a206:	2320      	movmi	r3, #32
 800a208:	f88d 3053 	strbmi.w	r3, [sp, #83]	@ 0x53
 800a20c:	0711      	lsls	r1, r2, #28
 800a20e:	bf44      	itt	mi
 800a210:	232b      	movmi	r3, #43	@ 0x2b
 800a212:	f88d 3053 	strbmi.w	r3, [sp, #83]	@ 0x53
 800a216:	f89a 3000 	ldrb.w	r3, [sl]
 800a21a:	2b2a      	cmp	r3, #42	@ 0x2a
 800a21c:	d015      	beq.n	800a24a <_svfiprintf_r+0xfa>
 800a21e:	9a07      	ldr	r2, [sp, #28]
 800a220:	4654      	mov	r4, sl
 800a222:	2000      	movs	r0, #0
 800a224:	f04f 0c0a 	mov.w	ip, #10
 800a228:	4621      	mov	r1, r4
 800a22a:	f811 3b01 	ldrb.w	r3, [r1], #1
 800a22e:	3b30      	subs	r3, #48	@ 0x30
 800a230:	2b09      	cmp	r3, #9
 800a232:	d94b      	bls.n	800a2cc <_svfiprintf_r+0x17c>
 800a234:	b1b0      	cbz	r0, 800a264 <_svfiprintf_r+0x114>
 800a236:	9207      	str	r2, [sp, #28]
 800a238:	e014      	b.n	800a264 <_svfiprintf_r+0x114>
 800a23a:	eba0 0308 	sub.w	r3, r0, r8
 800a23e:	fa09 f303 	lsl.w	r3, r9, r3
 800a242:	4313      	orrs	r3, r2
 800a244:	9304      	str	r3, [sp, #16]
 800a246:	46a2      	mov	sl, r4
 800a248:	e7d2      	b.n	800a1f0 <_svfiprintf_r+0xa0>
 800a24a:	9b03      	ldr	r3, [sp, #12]
 800a24c:	1d19      	adds	r1, r3, #4
 800a24e:	681b      	ldr	r3, [r3, #0]
 800a250:	9103      	str	r1, [sp, #12]
 800a252:	2b00      	cmp	r3, #0
 800a254:	bfbb      	ittet	lt
 800a256:	425b      	neglt	r3, r3
 800a258:	f042 0202 	orrlt.w	r2, r2, #2
 800a25c:	9307      	strge	r3, [sp, #28]
 800a25e:	9307      	strlt	r3, [sp, #28]
 800a260:	bfb8      	it	lt
 800a262:	9204      	strlt	r2, [sp, #16]
 800a264:	7823      	ldrb	r3, [r4, #0]
 800a266:	2b2e      	cmp	r3, #46	@ 0x2e
 800a268:	d10a      	bne.n	800a280 <_svfiprintf_r+0x130>
 800a26a:	7863      	ldrb	r3, [r4, #1]
 800a26c:	2b2a      	cmp	r3, #42	@ 0x2a
 800a26e:	d132      	bne.n	800a2d6 <_svfiprintf_r+0x186>
 800a270:	9b03      	ldr	r3, [sp, #12]
 800a272:	1d1a      	adds	r2, r3, #4
 800a274:	681b      	ldr	r3, [r3, #0]
 800a276:	9203      	str	r2, [sp, #12]
 800a278:	ea43 73e3 	orr.w	r3, r3, r3, asr #31
 800a27c:	3402      	adds	r4, #2
 800a27e:	9305      	str	r3, [sp, #20]
 800a280:	f8df a0c0 	ldr.w	sl, [pc, #192]	@ 800a344 <_svfiprintf_r+0x1f4>
 800a284:	7821      	ldrb	r1, [r4, #0]
 800a286:	2203      	movs	r2, #3
 800a288:	4650      	mov	r0, sl
 800a28a:	f7f5 ffb1 	bl	80001f0 <memchr>
 800a28e:	b138      	cbz	r0, 800a2a0 <_svfiprintf_r+0x150>
 800a290:	9b04      	ldr	r3, [sp, #16]
 800a292:	eba0 000a 	sub.w	r0, r0, sl
 800a296:	2240      	movs	r2, #64	@ 0x40
 800a298:	4082      	lsls	r2, r0
 800a29a:	4313      	orrs	r3, r2
 800a29c:	3401      	adds	r4, #1
 800a29e:	9304      	str	r3, [sp, #16]
 800a2a0:	f814 1b01 	ldrb.w	r1, [r4], #1
 800a2a4:	4824      	ldr	r0, [pc, #144]	@ (800a338 <_svfiprintf_r+0x1e8>)
 800a2a6:	f88d 1028 	strb.w	r1, [sp, #40]	@ 0x28
 800a2aa:	2206      	movs	r2, #6
 800a2ac:	f7f5 ffa0 	bl	80001f0 <memchr>
 800a2b0:	2800      	cmp	r0, #0
 800a2b2:	d036      	beq.n	800a322 <_svfiprintf_r+0x1d2>
 800a2b4:	4b21      	ldr	r3, [pc, #132]	@ (800a33c <_svfiprintf_r+0x1ec>)
 800a2b6:	bb1b      	cbnz	r3, 800a300 <_svfiprintf_r+0x1b0>
 800a2b8:	9b03      	ldr	r3, [sp, #12]
 800a2ba:	3307      	adds	r3, #7
 800a2bc:	f023 0307 	bic.w	r3, r3, #7
 800a2c0:	3308      	adds	r3, #8
 800a2c2:	9303      	str	r3, [sp, #12]
 800a2c4:	9b09      	ldr	r3, [sp, #36]	@ 0x24
 800a2c6:	4433      	add	r3, r6
 800a2c8:	9309      	str	r3, [sp, #36]	@ 0x24
 800a2ca:	e76a      	b.n	800a1a2 <_svfiprintf_r+0x52>
 800a2cc:	fb0c 3202 	mla	r2, ip, r2, r3
 800a2d0:	460c      	mov	r4, r1
 800a2d2:	2001      	movs	r0, #1
 800a2d4:	e7a8      	b.n	800a228 <_svfiprintf_r+0xd8>
 800a2d6:	2300      	movs	r3, #0
 800a2d8:	3401      	adds	r4, #1
 800a2da:	9305      	str	r3, [sp, #20]
 800a2dc:	4619      	mov	r1, r3
 800a2de:	f04f 0c0a 	mov.w	ip, #10
 800a2e2:	4620      	mov	r0, r4
 800a2e4:	f810 2b01 	ldrb.w	r2, [r0], #1
 800a2e8:	3a30      	subs	r2, #48	@ 0x30
 800a2ea:	2a09      	cmp	r2, #9
 800a2ec:	d903      	bls.n	800a2f6 <_svfiprintf_r+0x1a6>
 800a2ee:	2b00      	cmp	r3, #0
 800a2f0:	d0c6      	beq.n	800a280 <_svfiprintf_r+0x130>
 800a2f2:	9105      	str	r1, [sp, #20]
 800a2f4:	e7c4      	b.n	800a280 <_svfiprintf_r+0x130>
 800a2f6:	fb0c 2101 	mla	r1, ip, r1, r2
 800a2fa:	4604      	mov	r4, r0
 800a2fc:	2301      	movs	r3, #1
 800a2fe:	e7f0      	b.n	800a2e2 <_svfiprintf_r+0x192>
 800a300:	ab03      	add	r3, sp, #12
 800a302:	9300      	str	r3, [sp, #0]
 800a304:	462a      	mov	r2, r5
 800a306:	4b0e      	ldr	r3, [pc, #56]	@ (800a340 <_svfiprintf_r+0x1f0>)
 800a308:	a904      	add	r1, sp, #16
 800a30a:	4638      	mov	r0, r7
 800a30c:	f3af 8000 	nop.w
 800a310:	1c42      	adds	r2, r0, #1
 800a312:	4606      	mov	r6, r0
 800a314:	d1d6      	bne.n	800a2c4 <_svfiprintf_r+0x174>
 800a316:	89ab      	ldrh	r3, [r5, #12]
 800a318:	065b      	lsls	r3, r3, #25
 800a31a:	f53f af2d 	bmi.w	800a178 <_svfiprintf_r+0x28>
 800a31e:	9809      	ldr	r0, [sp, #36]	@ 0x24
 800a320:	e72c      	b.n	800a17c <_svfiprintf_r+0x2c>
 800a322:	ab03      	add	r3, sp, #12
 800a324:	9300      	str	r3, [sp, #0]
 800a326:	462a      	mov	r2, r5
 800a328:	4b05      	ldr	r3, [pc, #20]	@ (800a340 <_svfiprintf_r+0x1f0>)
 800a32a:	a904      	add	r1, sp, #16
 800a32c:	4638      	mov	r0, r7
 800a32e:	f000 f879 	bl	800a424 <_printf_i>
 800a332:	e7ed      	b.n	800a310 <_svfiprintf_r+0x1c0>
 800a334:	0800ac7d 	.word	0x0800ac7d
 800a338:	0800ac87 	.word	0x0800ac87
 800a33c:	00000000 	.word	0x00000000
 800a340:	0800a099 	.word	0x0800a099
 800a344:	0800ac83 	.word	0x0800ac83

0800a348 <_printf_common>:
 800a348:	e92d 47f0 	stmdb	sp!, {r4, r5, r6, r7, r8, r9, sl, lr}
 800a34c:	4616      	mov	r6, r2
 800a34e:	4698      	mov	r8, r3
 800a350:	688a      	ldr	r2, [r1, #8]
 800a352:	690b      	ldr	r3, [r1, #16]
 800a354:	f8dd 9020 	ldr.w	r9, [sp, #32]
 800a358:	4293      	cmp	r3, r2
 800a35a:	bfb8      	it	lt
 800a35c:	4613      	movlt	r3, r2
 800a35e:	6033      	str	r3, [r6, #0]
 800a360:	f891 2043 	ldrb.w	r2, [r1, #67]	@ 0x43
 800a364:	4607      	mov	r7, r0
 800a366:	460c      	mov	r4, r1
 800a368:	b10a      	cbz	r2, 800a36e <_printf_common+0x26>
 800a36a:	3301      	adds	r3, #1
 800a36c:	6033      	str	r3, [r6, #0]
 800a36e:	6823      	ldr	r3, [r4, #0]
 800a370:	0699      	lsls	r1, r3, #26
 800a372:	bf42      	ittt	mi
 800a374:	6833      	ldrmi	r3, [r6, #0]
 800a376:	3302      	addmi	r3, #2
 800a378:	6033      	strmi	r3, [r6, #0]
 800a37a:	6825      	ldr	r5, [r4, #0]
 800a37c:	f015 0506 	ands.w	r5, r5, #6
 800a380:	d106      	bne.n	800a390 <_printf_common+0x48>
 800a382:	f104 0a19 	add.w	sl, r4, #25
 800a386:	68e3      	ldr	r3, [r4, #12]
 800a388:	6832      	ldr	r2, [r6, #0]
 800a38a:	1a9b      	subs	r3, r3, r2
 800a38c:	42ab      	cmp	r3, r5
 800a38e:	dc26      	bgt.n	800a3de <_printf_common+0x96>
 800a390:	f894 3043 	ldrb.w	r3, [r4, #67]	@ 0x43
 800a394:	6822      	ldr	r2, [r4, #0]
 800a396:	3b00      	subs	r3, #0
 800a398:	bf18      	it	ne
 800a39a:	2301      	movne	r3, #1
 800a39c:	0692      	lsls	r2, r2, #26
 800a39e:	d42b      	bmi.n	800a3f8 <_printf_common+0xb0>
 800a3a0:	f104 0243 	add.w	r2, r4, #67	@ 0x43
 800a3a4:	4641      	mov	r1, r8
 800a3a6:	4638      	mov	r0, r7
 800a3a8:	47c8      	blx	r9
 800a3aa:	3001      	adds	r0, #1
 800a3ac:	d01e      	beq.n	800a3ec <_printf_common+0xa4>
 800a3ae:	6823      	ldr	r3, [r4, #0]
 800a3b0:	6922      	ldr	r2, [r4, #16]
 800a3b2:	f003 0306 	and.w	r3, r3, #6
 800a3b6:	2b04      	cmp	r3, #4
 800a3b8:	bf02      	ittt	eq
 800a3ba:	68e5      	ldreq	r5, [r4, #12]
 800a3bc:	6833      	ldreq	r3, [r6, #0]
 800a3be:	1aed      	subeq	r5, r5, r3
 800a3c0:	68a3      	ldr	r3, [r4, #8]
 800a3c2:	bf0c      	ite	eq
 800a3c4:	ea25 75e5 	biceq.w	r5, r5, r5, asr #31
 800a3c8:	2500      	movne	r5, #0
 800a3ca:	4293      	cmp	r3, r2
 800a3cc:	bfc4      	itt	gt
 800a3ce:	1a9b      	subgt	r3, r3, r2
 800a3d0:	18ed      	addgt	r5, r5, r3
 800a3d2:	2600      	movs	r6, #0
 800a3d4:	341a      	adds	r4, #26
 800a3d6:	42b5      	cmp	r5, r6
 800a3d8:	d11a      	bne.n	800a410 <_printf_common+0xc8>
 800a3da:	2000      	movs	r0, #0
 800a3dc:	e008      	b.n	800a3f0 <_printf_common+0xa8>
 800a3de:	2301      	movs	r3, #1
 800a3e0:	4652      	mov	r2, sl
 800a3e2:	4641      	mov	r1, r8
 800a3e4:	4638      	mov	r0, r7
 800a3e6:	47c8      	blx	r9
 800a3e8:	3001      	adds	r0, #1
 800a3ea:	d103      	bne.n	800a3f4 <_printf_common+0xac>
 800a3ec:	f04f 30ff 	mov.w	r0, #4294967295
 800a3f0:	e8bd 87f0 	ldmia.w	sp!, {r4, r5, r6, r7, r8, r9, sl, pc}
 800a3f4:	3501      	adds	r5, #1
 800a3f6:	e7c6      	b.n	800a386 <_printf_common+0x3e>
 800a3f8:	18e1      	adds	r1, r4, r3
 800a3fa:	1c5a      	adds	r2, r3, #1
 800a3fc:	2030      	movs	r0, #48	@ 0x30
 800a3fe:	f881 0043 	strb.w	r0, [r1, #67]	@ 0x43
 800a402:	4422      	add	r2, r4
 800a404:	f894 1045 	ldrb.w	r1, [r4, #69]	@ 0x45
 800a408:	f882 1043 	strb.w	r1, [r2, #67]	@ 0x43
 800a40c:	3302      	adds	r3, #2
 800a40e:	e7c7      	b.n	800a3a0 <_printf_common+0x58>
 800a410:	2301      	movs	r3, #1
 800a412:	4622      	mov	r2, r4
 800a414:	4641      	mov	r1, r8
 800a416:	4638      	mov	r0, r7
 800a418:	47c8      	blx	r9
 800a41a:	3001      	adds	r0, #1
 800a41c:	d0e6      	beq.n	800a3ec <_printf_common+0xa4>
 800a41e:	3601      	adds	r6, #1
 800a420:	e7d9      	b.n	800a3d6 <_printf_common+0x8e>
	...

0800a424 <_printf_i>:
 800a424:	e92d 47ff 	stmdb	sp!, {r0, r1, r2, r3, r4, r5, r6, r7, r8, r9, sl, lr}
 800a428:	7e0f      	ldrb	r7, [r1, #24]
 800a42a:	9e0c      	ldr	r6, [sp, #48]	@ 0x30
 800a42c:	2f78      	cmp	r7, #120	@ 0x78
 800a42e:	4691      	mov	r9, r2
 800a430:	4680      	mov	r8, r0
 800a432:	460c      	mov	r4, r1
 800a434:	469a      	mov	sl, r3
 800a436:	f101 0243 	add.w	r2, r1, #67	@ 0x43
 800a43a:	d807      	bhi.n	800a44c <_printf_i+0x28>
 800a43c:	2f62      	cmp	r7, #98	@ 0x62
 800a43e:	d80a      	bhi.n	800a456 <_printf_i+0x32>
 800a440:	2f00      	cmp	r7, #0
 800a442:	f000 80d1 	beq.w	800a5e8 <_printf_i+0x1c4>
 800a446:	2f58      	cmp	r7, #88	@ 0x58
 800a448:	f000 80b8 	beq.w	800a5bc <_printf_i+0x198>
 800a44c:	f104 0642 	add.w	r6, r4, #66	@ 0x42
 800a450:	f884 7042 	strb.w	r7, [r4, #66]	@ 0x42
 800a454:	e03a      	b.n	800a4cc <_printf_i+0xa8>
 800a456:	f1a7 0363 	sub.w	r3, r7, #99	@ 0x63
 800a45a:	2b15      	cmp	r3, #21
 800a45c:	d8f6      	bhi.n	800a44c <_printf_i+0x28>
 800a45e:	a101      	add	r1, pc, #4	@ (adr r1, 800a464 <_printf_i+0x40>)
 800a460:	f851 f023 	ldr.w	pc, [r1, r3, lsl #2]
 800a464:	0800a4bd 	.word	0x0800a4bd
 800a468:	0800a4d1 	.word	0x0800a4d1
 800a46c:	0800a44d 	.word	0x0800a44d
 800a470:	0800a44d 	.word	0x0800a44d
 800a474:	0800a44d 	.word	0x0800a44d
 800a478:	0800a44d 	.word	0x0800a44d
 800a47c:	0800a4d1 	.word	0x0800a4d1
 800a480:	0800a44d 	.word	0x0800a44d
 800a484:	0800a44d 	.word	0x0800a44d
 800a488:	0800a44d 	.word	0x0800a44d
 800a48c:	0800a44d 	.word	0x0800a44d
 800a490:	0800a5cf 	.word	0x0800a5cf
 800a494:	0800a4fb 	.word	0x0800a4fb
 800a498:	0800a589 	.word	0x0800a589
 800a49c:	0800a44d 	.word	0x0800a44d
 800a4a0:	0800a44d 	.word	0x0800a44d
 800a4a4:	0800a5f1 	.word	0x0800a5f1
 800a4a8:	0800a44d 	.word	0x0800a44d
 800a4ac:	0800a4fb 	.word	0x0800a4fb
 800a4b0:	0800a44d 	.word	0x0800a44d
 800a4b4:	0800a44d 	.word	0x0800a44d
 800a4b8:	0800a591 	.word	0x0800a591
 800a4bc:	6833      	ldr	r3, [r6, #0]
 800a4be:	1d1a      	adds	r2, r3, #4
 800a4c0:	681b      	ldr	r3, [r3, #0]
 800a4c2:	6032      	str	r2, [r6, #0]
 800a4c4:	f104 0642 	add.w	r6, r4, #66	@ 0x42
 800a4c8:	f884 3042 	strb.w	r3, [r4, #66]	@ 0x42
 800a4cc:	2301      	movs	r3, #1
 800a4ce:	e09c      	b.n	800a60a <_printf_i+0x1e6>
 800a4d0:	6833      	ldr	r3, [r6, #0]
 800a4d2:	6820      	ldr	r0, [r4, #0]
 800a4d4:	1d19      	adds	r1, r3, #4
 800a4d6:	6031      	str	r1, [r6, #0]
 800a4d8:	0606      	lsls	r6, r0, #24
 800a4da:	d501      	bpl.n	800a4e0 <_printf_i+0xbc>
 800a4dc:	681d      	ldr	r5, [r3, #0]
 800a4de:	e003      	b.n	800a4e8 <_printf_i+0xc4>
 800a4e0:	0645      	lsls	r5, r0, #25
 800a4e2:	d5fb      	bpl.n	800a4dc <_printf_i+0xb8>
 800a4e4:	f9b3 5000 	ldrsh.w	r5, [r3]
 800a4e8:	2d00      	cmp	r5, #0
 800a4ea:	da03      	bge.n	800a4f4 <_printf_i+0xd0>
 800a4ec:	232d      	movs	r3, #45	@ 0x2d
 800a4ee:	426d      	negs	r5, r5
 800a4f0:	f884 3043 	strb.w	r3, [r4, #67]	@ 0x43
 800a4f4:	4858      	ldr	r0, [pc, #352]	@ (800a658 <_printf_i+0x234>)
 800a4f6:	230a      	movs	r3, #10
 800a4f8:	e011      	b.n	800a51e <_printf_i+0xfa>
 800a4fa:	6821      	ldr	r1, [r4, #0]
 800a4fc:	6833      	ldr	r3, [r6, #0]
 800a4fe:	0608      	lsls	r0, r1, #24
 800a500:	f853 5b04 	ldr.w	r5, [r3], #4
 800a504:	d402      	bmi.n	800a50c <_printf_i+0xe8>
 800a506:	0649      	lsls	r1, r1, #25
 800a508:	bf48      	it	mi
 800a50a:	b2ad      	uxthmi	r5, r5
 800a50c:	2f6f      	cmp	r7, #111	@ 0x6f
 800a50e:	4852      	ldr	r0, [pc, #328]	@ (800a658 <_printf_i+0x234>)
 800a510:	6033      	str	r3, [r6, #0]
 800a512:	bf14      	ite	ne
 800a514:	230a      	movne	r3, #10
 800a516:	2308      	moveq	r3, #8
 800a518:	2100      	movs	r1, #0
 800a51a:	f884 1043 	strb.w	r1, [r4, #67]	@ 0x43
 800a51e:	6866      	ldr	r6, [r4, #4]
 800a520:	60a6      	str	r6, [r4, #8]
 800a522:	2e00      	cmp	r6, #0
 800a524:	db05      	blt.n	800a532 <_printf_i+0x10e>
 800a526:	6821      	ldr	r1, [r4, #0]
 800a528:	432e      	orrs	r6, r5
 800a52a:	f021 0104 	bic.w	r1, r1, #4
 800a52e:	6021      	str	r1, [r4, #0]
 800a530:	d04b      	beq.n	800a5ca <_printf_i+0x1a6>
 800a532:	4616      	mov	r6, r2
 800a534:	fbb5 f1f3 	udiv	r1, r5, r3
 800a538:	fb03 5711 	mls	r7, r3, r1, r5
 800a53c:	5dc7      	ldrb	r7, [r0, r7]
 800a53e:	f806 7d01 	strb.w	r7, [r6, #-1]!
 800a542:	462f      	mov	r7, r5
 800a544:	42bb      	cmp	r3, r7
 800a546:	460d      	mov	r5, r1
 800a548:	d9f4      	bls.n	800a534 <_printf_i+0x110>
 800a54a:	2b08      	cmp	r3, #8
 800a54c:	d10b      	bne.n	800a566 <_printf_i+0x142>
 800a54e:	6823      	ldr	r3, [r4, #0]
 800a550:	07df      	lsls	r7, r3, #31
 800a552:	d508      	bpl.n	800a566 <_printf_i+0x142>
 800a554:	6923      	ldr	r3, [r4, #16]
 800a556:	6861      	ldr	r1, [r4, #4]
 800a558:	4299      	cmp	r1, r3
 800a55a:	bfde      	ittt	le
 800a55c:	2330      	movle	r3, #48	@ 0x30
 800a55e:	f806 3c01 	strble.w	r3, [r6, #-1]
 800a562:	f106 36ff 	addle.w	r6, r6, #4294967295
 800a566:	1b92      	subs	r2, r2, r6
 800a568:	6122      	str	r2, [r4, #16]
 800a56a:	f8cd a000 	str.w	sl, [sp]
 800a56e:	464b      	mov	r3, r9
 800a570:	aa03      	add	r2, sp, #12
 800a572:	4621      	mov	r1, r4
 800a574:	4640      	mov	r0, r8
 800a576:	f7ff fee7 	bl	800a348 <_printf_common>
 800a57a:	3001      	adds	r0, #1
 800a57c:	d14a      	bne.n	800a614 <_printf_i+0x1f0>
 800a57e:	f04f 30ff 	mov.w	r0, #4294967295
 800a582:	b004      	add	sp, #16
 800a584:	e8bd 87f0 	ldmia.w	sp!, {r4, r5, r6, r7, r8, r9, sl, pc}
 800a588:	6823      	ldr	r3, [r4, #0]
 800a58a:	f043 0320 	orr.w	r3, r3, #32
 800a58e:	6023      	str	r3, [r4, #0]
 800a590:	4832      	ldr	r0, [pc, #200]	@ (800a65c <_printf_i+0x238>)
 800a592:	2778      	movs	r7, #120	@ 0x78
 800a594:	f884 7045 	strb.w	r7, [r4, #69]	@ 0x45
 800a598:	6823      	ldr	r3, [r4, #0]
 800a59a:	6831      	ldr	r1, [r6, #0]
 800a59c:	061f      	lsls	r7, r3, #24
 800a59e:	f851 5b04 	ldr.w	r5, [r1], #4
 800a5a2:	d402      	bmi.n	800a5aa <_printf_i+0x186>
 800a5a4:	065f      	lsls	r7, r3, #25
 800a5a6:	bf48      	it	mi
 800a5a8:	b2ad      	uxthmi	r5, r5
 800a5aa:	6031      	str	r1, [r6, #0]
 800a5ac:	07d9      	lsls	r1, r3, #31
 800a5ae:	bf44      	itt	mi
 800a5b0:	f043 0320 	orrmi.w	r3, r3, #32
 800a5b4:	6023      	strmi	r3, [r4, #0]
 800a5b6:	b11d      	cbz	r5, 800a5c0 <_printf_i+0x19c>
 800a5b8:	2310      	movs	r3, #16
 800a5ba:	e7ad      	b.n	800a518 <_printf_i+0xf4>
 800a5bc:	4826      	ldr	r0, [pc, #152]	@ (800a658 <_printf_i+0x234>)
 800a5be:	e7e9      	b.n	800a594 <_printf_i+0x170>
 800a5c0:	6823      	ldr	r3, [r4, #0]
 800a5c2:	f023 0320 	bic.w	r3, r3, #32
 800a5c6:	6023      	str	r3, [r4, #0]
 800a5c8:	e7f6      	b.n	800a5b8 <_printf_i+0x194>
 800a5ca:	4616      	mov	r6, r2
 800a5cc:	e7bd      	b.n	800a54a <_printf_i+0x126>
 800a5ce:	6833      	ldr	r3, [r6, #0]
 800a5d0:	6825      	ldr	r5, [r4, #0]
 800a5d2:	6961      	ldr	r1, [r4, #20]
 800a5d4:	1d18      	adds	r0, r3, #4
 800a5d6:	6030      	str	r0, [r6, #0]
 800a5d8:	062e      	lsls	r6, r5, #24
 800a5da:	681b      	ldr	r3, [r3, #0]
 800a5dc:	d501      	bpl.n	800a5e2 <_printf_i+0x1be>
 800a5de:	6019      	str	r1, [r3, #0]
 800a5e0:	e002      	b.n	800a5e8 <_printf_i+0x1c4>
 800a5e2:	0668      	lsls	r0, r5, #25
 800a5e4:	d5fb      	bpl.n	800a5de <_printf_i+0x1ba>
 800a5e6:	8019      	strh	r1, [r3, #0]
 800a5e8:	2300      	movs	r3, #0
 800a5ea:	6123      	str	r3, [r4, #16]
 800a5ec:	4616      	mov	r6, r2
 800a5ee:	e7bc      	b.n	800a56a <_printf_i+0x146>
 800a5f0:	6833      	ldr	r3, [r6, #0]
 800a5f2:	1d1a      	adds	r2, r3, #4
 800a5f4:	6032      	str	r2, [r6, #0]
 800a5f6:	681e      	ldr	r6, [r3, #0]
 800a5f8:	6862      	ldr	r2, [r4, #4]
 800a5fa:	2100      	movs	r1, #0
 800a5fc:	4630      	mov	r0, r6
 800a5fe:	f7f5 fdf7 	bl	80001f0 <memchr>
 800a602:	b108      	cbz	r0, 800a608 <_printf_i+0x1e4>
 800a604:	1b80      	subs	r0, r0, r6
 800a606:	6060      	str	r0, [r4, #4]
 800a608:	6863      	ldr	r3, [r4, #4]
 800a60a:	6123      	str	r3, [r4, #16]
 800a60c:	2300      	movs	r3, #0
 800a60e:	f884 3043 	strb.w	r3, [r4, #67]	@ 0x43
 800a612:	e7aa      	b.n	800a56a <_printf_i+0x146>
 800a614:	6923      	ldr	r3, [r4, #16]
 800a616:	4632      	mov	r2, r6
 800a618:	4649      	mov	r1, r9
 800a61a:	4640      	mov	r0, r8
 800a61c:	47d0      	blx	sl
 800a61e:	3001      	adds	r0, #1
 800a620:	d0ad      	beq.n	800a57e <_printf_i+0x15a>
 800a622:	6823      	ldr	r3, [r4, #0]
 800a624:	079b      	lsls	r3, r3, #30
 800a626:	d413      	bmi.n	800a650 <_printf_i+0x22c>
 800a628:	68e0      	ldr	r0, [r4, #12]
 800a62a:	9b03      	ldr	r3, [sp, #12]
 800a62c:	4298      	cmp	r0, r3
 800a62e:	bfb8      	it	lt
 800a630:	4618      	movlt	r0, r3
 800a632:	e7a6      	b.n	800a582 <_printf_i+0x15e>
 800a634:	2301      	movs	r3, #1
 800a636:	4632      	mov	r2, r6
 800a638:	4649      	mov	r1, r9
 800a63a:	4640      	mov	r0, r8
 800a63c:	47d0      	blx	sl
 800a63e:	3001      	adds	r0, #1
 800a640:	d09d      	beq.n	800a57e <_printf_i+0x15a>
 800a642:	3501      	adds	r5, #1
 800a644:	68e3      	ldr	r3, [r4, #12]
 800a646:	9903      	ldr	r1, [sp, #12]
 800a648:	1a5b      	subs	r3, r3, r1
 800a64a:	42ab      	cmp	r3, r5
 800a64c:	dcf2      	bgt.n	800a634 <_printf_i+0x210>
 800a64e:	e7eb      	b.n	800a628 <_printf_i+0x204>
 800a650:	2500      	movs	r5, #0
 800a652:	f104 0619 	add.w	r6, r4, #25
 800a656:	e7f5      	b.n	800a644 <_printf_i+0x220>
 800a658:	0800ac8e 	.word	0x0800ac8e
 800a65c:	0800ac9f 	.word	0x0800ac9f

0800a660 <memmove>:
 800a660:	4288      	cmp	r0, r1
 800a662:	b510      	push	{r4, lr}
 800a664:	eb01 0402 	add.w	r4, r1, r2
 800a668:	d902      	bls.n	800a670 <memmove+0x10>
 800a66a:	4284      	cmp	r4, r0
 800a66c:	4623      	mov	r3, r4
 800a66e:	d807      	bhi.n	800a680 <memmove+0x20>
 800a670:	1e43      	subs	r3, r0, #1
 800a672:	42a1      	cmp	r1, r4
 800a674:	d008      	beq.n	800a688 <memmove+0x28>
 800a676:	f811 2b01 	ldrb.w	r2, [r1], #1
 800a67a:	f803 2f01 	strb.w	r2, [r3, #1]!
 800a67e:	e7f8      	b.n	800a672 <memmove+0x12>
 800a680:	4402      	add	r2, r0
 800a682:	4601      	mov	r1, r0
 800a684:	428a      	cmp	r2, r1
 800a686:	d100      	bne.n	800a68a <memmove+0x2a>
 800a688:	bd10      	pop	{r4, pc}
 800a68a:	f813 4d01 	ldrb.w	r4, [r3, #-1]!
 800a68e:	f802 4d01 	strb.w	r4, [r2, #-1]!
 800a692:	e7f7      	b.n	800a684 <memmove+0x24>

0800a694 <_sbrk_r>:
 800a694:	b538      	push	{r3, r4, r5, lr}
 800a696:	4d06      	ldr	r5, [pc, #24]	@ (800a6b0 <_sbrk_r+0x1c>)
 800a698:	2300      	movs	r3, #0
 800a69a:	4604      	mov	r4, r0
 800a69c:	4608      	mov	r0, r1
 800a69e:	602b      	str	r3, [r5, #0]
 800a6a0:	f7f6 fe02 	bl	80012a8 <_sbrk>
 800a6a4:	1c43      	adds	r3, r0, #1
 800a6a6:	d102      	bne.n	800a6ae <_sbrk_r+0x1a>
 800a6a8:	682b      	ldr	r3, [r5, #0]
 800a6aa:	b103      	cbz	r3, 800a6ae <_sbrk_r+0x1a>
 800a6ac:	6023      	str	r3, [r4, #0]
 800a6ae:	bd38      	pop	{r3, r4, r5, pc}
 800a6b0:	2000e638 	.word	0x2000e638

0800a6b4 <_realloc_r>:
 800a6b4:	e92d 41f0 	stmdb	sp!, {r4, r5, r6, r7, r8, lr}
 800a6b8:	4607      	mov	r7, r0
 800a6ba:	4614      	mov	r4, r2
 800a6bc:	460d      	mov	r5, r1
 800a6be:	b921      	cbnz	r1, 800a6ca <_realloc_r+0x16>
 800a6c0:	e8bd 41f0 	ldmia.w	sp!, {r4, r5, r6, r7, r8, lr}
 800a6c4:	4611      	mov	r1, r2
 800a6c6:	f7ff bc5b 	b.w	8009f80 <_malloc_r>
 800a6ca:	b92a      	cbnz	r2, 800a6d8 <_realloc_r+0x24>
 800a6cc:	f7ff fbec 	bl	8009ea8 <_free_r>
 800a6d0:	4625      	mov	r5, r4
 800a6d2:	4628      	mov	r0, r5
 800a6d4:	e8bd 81f0 	ldmia.w	sp!, {r4, r5, r6, r7, r8, pc}
 800a6d8:	f000 f81a 	bl	800a710 <_malloc_usable_size_r>
 800a6dc:	4284      	cmp	r4, r0
 800a6de:	4606      	mov	r6, r0
 800a6e0:	d802      	bhi.n	800a6e8 <_realloc_r+0x34>
 800a6e2:	ebb4 0f50 	cmp.w	r4, r0, lsr #1
 800a6e6:	d8f4      	bhi.n	800a6d2 <_realloc_r+0x1e>
 800a6e8:	4621      	mov	r1, r4
 800a6ea:	4638      	mov	r0, r7
 800a6ec:	f7ff fc48 	bl	8009f80 <_malloc_r>
 800a6f0:	4680      	mov	r8, r0
 800a6f2:	b908      	cbnz	r0, 800a6f8 <_realloc_r+0x44>
 800a6f4:	4645      	mov	r5, r8
 800a6f6:	e7ec      	b.n	800a6d2 <_realloc_r+0x1e>
 800a6f8:	42b4      	cmp	r4, r6
 800a6fa:	4622      	mov	r2, r4
 800a6fc:	4629      	mov	r1, r5
 800a6fe:	bf28      	it	cs
 800a700:	4632      	movcs	r2, r6
 800a702:	f7ff fbc3 	bl	8009e8c <memcpy>
 800a706:	4629      	mov	r1, r5
 800a708:	4638      	mov	r0, r7
 800a70a:	f7ff fbcd 	bl	8009ea8 <_free_r>
 800a70e:	e7f1      	b.n	800a6f4 <_realloc_r+0x40>

0800a710 <_malloc_usable_size_r>:
 800a710:	f851 3c04 	ldr.w	r3, [r1, #-4]
 800a714:	1f18      	subs	r0, r3, #4
 800a716:	2b00      	cmp	r3, #0
 800a718:	bfbc      	itt	lt
 800a71a:	580b      	ldrlt	r3, [r1, r0]
 800a71c:	18c0      	addlt	r0, r0, r3
 800a71e:	4770      	bx	lr

0800a720 <_init>:
 800a720:	b5f8      	push	{r3, r4, r5, r6, r7, lr}
 800a722:	bf00      	nop
 800a724:	bcf8      	pop	{r3, r4, r5, r6, r7}
 800a726:	bc08      	pop	{r3}
 800a728:	469e      	mov	lr, r3
 800a72a:	4770      	bx	lr

0800a72c <_fini>:
 800a72c:	b5f8      	push	{r3, r4, r5, r6, r7, lr}
 800a72e:	bf00      	nop
 800a730:	bcf8      	pop	{r3, r4, r5, r6, r7}
 800a732:	bc08      	pop	{r3}
 800a734:	469e      	mov	lr, r3
 800a736:	4770      	bx	lr
